 Zeniapp

 Timestamp is 48914d51 (Thu Jul 31 01:27:45 2008)

 Preferred load address is 00400000

 Start         Length     Name                   Class
 0001:00000000 0007f3adH .textbss                DATA
 0002:00000000 000f5d10H .text                   CODE
 0002:000f5d10 00013eadH .text$x                 CODE
 0002:00109bc0 000015f8H .text$yc                CODE
 0002:0010b1c0 00001698H .text$yd                CODE
 0003:00000000 00000104H .CRT$XCA                DATA
 0003:00000104 00000104H .CRT$XCAA               DATA
 0003:00000208 00000143H .CRT$XCU                DATA
 0003:0000034c 00000104H .CRT$XCZ                DATA
 0003:00000450 00000104H .CRT$XIA                DATA
 0003:00000554 00000104H .CRT$XIAA               DATA
 0003:00000658 00000104H .CRT$XIC                DATA
 0003:0000075c 00000104H .CRT$XIY                DATA
 0003:00000860 00000104H .CRT$XIZ                DATA
 0003:00000970 000165a3H .rdata                  DATA
 0003:00016f14 00000173H .rdata$debug            DATA
 0003:00017088 000018dcH .rdata$r                DATA
 0003:00018964 00000104H .rtc$IAA                DATA
 0003:00018a68 0000011cH .rtc$IMZ                DATA
 0003:00018b84 00000104H .rtc$IZZ                DATA
 0003:00018c88 00000104H .rtc$TAA                DATA
 0003:00018d8c 0000011cH .rtc$TMZ                DATA
 0003:00018ea8 00000104H .rtc$TZZ                DATA
 0003:00018fb0 000113deH .xdata$x                DATA
 0003:0002a38e 00000000H .edata                  DATA
 0004:00000000 000014beH .data                   DATA
 0004:000014c0 00002650H .bss                    DATA
 0005:00000000 00000168H .idata$2                DATA
 0005:00000168 00000014H .idata$3                DATA
 0005:0000017c 00000a48H .idata$4                DATA
 0005:00000bc4 00000a48H .idata$5                DATA
 0005:0000160c 0000388aH .idata$6                DATA
 0006:00000000 00000169H .rsrc$01                DATA
 0006:00000170 0000041cH .rsrc$02                DATA

  Address         Publics by Value              Rva+Base       Lib:Object

 0000:00000000       __except_list              00000000     <absolute>
 0000:00000000       ___safe_se_handler_count   00000000     <absolute>
 0000:00000000       ___safe_se_handler_table   00000000     <absolute>
 0000:00009876       __ldused                   00009876     <absolute>
 0000:00009876       __fltused                  00009876     <absolute>
 0000:00000000       ___ImageBase               00400000     <linker-defined>
 0001:00000000       __enc$textbss$begin        00401000     <linker-defined>
 0001:0007f3ad       __enc$textbss$end          004803ad     <linker-defined>
 0002:0000aaa0       ??0Crate@0@QAE@ABUPoint3f@Zeni@@ABUVector3f@2@ABUQuaternion@2@@Z 0048baa0 f   Crate.obj
 0002:0000ae40       ??0Parallelepiped@Zeni_Collision@@QAE@XZ 0048be40 f i Crate.obj
 0002:0000b010       ??0Point3f@Zeni@@QAE@XZ    0048c010 f i Crate.obj
 0002:0000b070       ??0Point3f@Zeni@@QAE@ABM00@Z 0048c070 f i Crate.obj
 0002:0000b0e0       ??0Vector3f@Zeni@@QAE@XZ   0048c0e0 f i Crate.obj
 0002:0000b140       ??0Vector3f@Zeni@@QAE@ABM00@Z 0048c140 f i Crate.obj
 0002:0000b1b0       ??0Quaternion@Zeni@@QAE@XZ 0048c1b0 f i Crate.obj
 0002:0000b250       ??0Crate@0@QAE@ABV00@@Z    0048c250 f   Crate.obj
 0002:0000b2e0       ??4Crate@0@QAEAAV00@ABV00@@Z 0048c2e0 f   Crate.obj
 0002:0000b320       ??1Crate@0@QAE@XZ          0048c320 f   Crate.obj
 0002:0000b430       ??_GSound_Source@Zeni@@QAEPAXI@Z 0048c430 f i Crate.obj
 0002:0000b4a0       ?render@Crate@1@QAEXXZ     0048c4a0 f   Crate.obj
 0002:0000b560       ?set_scale@Model@Zeni@@QAEXABUPoint3f@2@@Z 0048c560 f i Crate.obj
 0002:0000b700       ??0Error@Zeni@@QAE@ABV?$basic_string@DU?$char_traits@D@std@@V?$allocator@D@2@@std@@@Z 0048c700 f i Crate.obj
 0002:0000b770       ??1Error@Zeni@@QAE@XZ      0048c770 f i Crate.obj
 0002:0000b7d0       ?done_mutex@Task@Zeni@@QBEAAVRecursive_Mutex@2@XZ 0048c7d0 f i Crate.obj
 0002:0000b810       ?done_condition@Task@Zeni@@QBEAAVCondition_Variable@2@XZ 0048c810 f i Crate.obj
 0002:0000b850       ?done_variable@Task@Zeni@@QBEAB_NXZ 0048c850 f i Crate.obj
 0002:0000b890       ??0Error@Zeni@@QAE@ABU01@@Z 0048c890 f i Crate.obj
 0002:0000b900       ?set_rotate@Model@Zeni@@QAEXABUQuaternion@2@@Z 0048c900 f i Crate.obj
 0002:0000b9c0       ?set_rotate@Model@Zeni@@QAEXABMABUPoint3f@2@@Z 0048c9c0 f i Crate.obj
 0002:0000bb70       ?set_translate@Model@Zeni@@QAEXABUPoint3f@2@@Z 0048cb70 f i Crate.obj
 0002:0000bd10       ??BVector3f@Zeni@@QBE?AUPoint3f@1@XZ 0048cd10 f i Crate.obj
 0002:0000bd80       ?get_rotation@Quaternion@Zeni@@QBE?AU?$pair@UVector3f@Zeni@@M@std@@XZ 0048cd80 f i Crate.obj
 0002:0000bf20       ?acos@@YAMM@Z              0048cf20 f i Crate.obj
 0002:0000bf80       _acosf                     0048cf80 f i Crate.obj
 0002:0000bff0       ?fabs@@YAMM@Z              0048cff0 f i Crate.obj
 0002:0000c050       _fabsf                     0048d050 f i Crate.obj
 0002:0000c0c0       ?sqrt@@YAMM@Z              0048d0c0 f i Crate.obj
 0002:0000c120       _sqrtf                     0048d120 f i Crate.obj
 0002:0000c190       ??0Vector3f@Zeni@@QAE@ABU01@@Z 0048d190 f i Crate.obj
 0002:0000c200       ??KVector3f@Zeni@@QBE?AU01@ABM@Z 0048d200 f i Crate.obj
 0002:0000c2b0       ?norm@Quaternion@Zeni@@QBE?AU12@XZ 0048d2b0 f i Crate.obj
 0002:0000c360       ??DVector3f@Zeni@@QBEMABU01@@Z 0048d360 f i Crate.obj
 0002:0000c3d0       ?collide@Crate@1@QAEXXZ    0048d3d0 f   Crate.obj
 0002:0000c440       ?play@Sound_Source@Zeni@@QAEXXZ 0048d440 f i Crate.obj
 0002:0000c4b0       ?is_playing@Sound_Source@Zeni@@QAE_NXZ 0048d4b0 f i Crate.obj
 0002:0000c570       ?create_body@Crate@1@AAEXXZ 0048d570 f   Crate.obj
 0002:0000c740       ??DZeni@@YA?AUVector3f@0@ABMABU10@@Z 0048d740 f i Crate.obj
 0002:0000c7a0       ??DVector3f@Zeni@@QBE?AU01@ABM@Z 0048d7a0 f i Crate.obj
 0002:0000c850       ??HZeni@@YA?AUPoint3f@0@ABU10@ABUVector3f@0@@Z 0048d850 f i Crate.obj
 0002:0000c900       ?get_i@Vector3f@Zeni@@QBE?AU12@XZ 0048d900 f i Crate.obj
 0002:0000c980       ?get_j@Vector3f@Zeni@@QBE?AU12@XZ 0048d980 f i Crate.obj
 0002:0000ca10       ?get_k@Vector3f@Zeni@@QBE?AU12@XZ 0048da10 f i Crate.obj
 0002:0000caa0       ??DQuaternion@Zeni@@QBE?AUVector3f@1@ABU21@@Z 0048daa0 f i Crate.obj
 0002:0000cd70       ?set_position@Sound_Source@Zeni@@QAEXABUPoint3f@2@@Z 0048dd70 f i Crate.obj
 0002:0000cde0       ?set_velocity@Sound_Source@Zeni@@QAEXABUVector3f@2@@Z 0048dde0 f i Crate.obj
 0002:0000ce50       ??$make_pair@UVector3f@Zeni@@M@std@@YA?AU?$pair@UVector3f@Zeni@@M@0@UVector3f@Zeni@@M@Z 0048de50 f i Crate.obj
 0002:0000ceb0       ??0?$pair@UVector3f@Zeni@@M@std@@QAE@ABUVector3f@Zeni@@ABM@Z 0048deb0 f i Crate.obj
 0002:0000cf20       ??0Crate_State@Crate@@QAE@XZ 0048df20 f   Crate_State.obj
 0002:0000e130       ??0Gamestate_Base@Zeni@@QAE@XZ 0048f130 f i Crate_State.obj
 0002:0000e180       ??1Gamestate_Base@Zeni@@UAE@XZ 0048f180 f i Crate_State.obj
 0002:0000e1c0       ?perform_logic@Gamestate_Base@Zeni@@UAEXXZ 0048f1c0 f i Crate_State.obj
 0002:0000e200       ?render@Gamestate_Base@Zeni@@UAEXXZ 0048f200 f i Crate_State.obj
 0002:0000e240       ??_GGamestate_Base@Zeni@@UAEPAXI@Z 0048f240 f i Crate_State.obj
 0002:0000e240       ??_EGamestate_Base@Zeni@@UAEPAXI@Z 0048f240 f i Crate_State.obj
 0002:0000e2b0       ??0Controls@Crate_State@Crate@@QAE@XZ 0048f2b0 f i Crate_State.obj
 0002:0000e310       ?set_BGM_looping@Sound@Zeni@@QAEXAB_N@Z 0048f310 f i Crate_State.obj
 0002:0000e380       ?set_looping@Sound_Source@Zeni@@QAEXAB_N@Z 0048f380 f i Crate_State.obj
 0002:0000e400       ??_GCrate_State@Crate@@UAEPAXI@Z 0048f400 f i Crate_State.obj
 0002:0000e400       ??_ECrate_State@Crate@@UAEPAXI@Z 0048f400 f i Crate_State.obj
 0002:0000e470       ??1Sprite@Zeni@@UAE@XZ     0048f470 f i Crate_State.obj
 0002:0000e520       ??1Texture@Zeni@@UAE@XZ    0048f520 f i Crate_State.obj
 0002:0000e580       ??_ETexture@Zeni@@UAEPAXI@Z 0048f580 f i Crate_State.obj
 0002:0000e580       ??_GTexture@Zeni@@UAEPAXI@Z 0048f580 f i Crate_State.obj
 0002:0000e5f0       ??1Crate_State@Crate@@UAE@XZ 0048f5f0 f i Crate_State.obj
 0002:0000e6a0       ?on_key@Crate_State@Crate@@UAEXABUSDL_KeyboardEvent@@@Z 0048f6a0 f   Crate_State.obj
 0002:0000eab0       ?is_on_ground@Player@Crate@@QBE_NXZ 0048fab0 f i Crate_State.obj
 0002:0000eaf0       ?get_velocity@Player@Crate@@QBEABUVector3f@Zeni@@XZ 0048faf0 f i Crate_State.obj
 0002:0000eb30       ?set_velocity@Player@Crate@@QAEXABUVector3f@Zeni@@@Z 0048fb30 f i Crate_State.obj
 0002:0000eb90       ??0Gamestate@Zeni@@QAE@PAVGamestate_Base@1@@Z 0048fb90 f i Crate_State.obj
 0002:0000ec00       ?increment@Gamestate_Base@Zeni@@AAEXXZ 0048fc00 f i Crate_State.obj
 0002:0000ec50       ?push_state@Game@Zeni@@QAEXABVGamestate@2@@Z 0048fc50 f i Crate_State.obj
 0002:0000ecb0       ?pop_state@Game@Zeni@@QAE?AVGamestate@2@XZ 0048fcb0 f i Crate_State.obj
 0002:0000ee10       ??0Zero_Gamestate@Zeni@@QAE@XZ 0048fe10 f i Crate_State.obj
 0002:0000ef00       ??0Gamestate@Zeni@@QAE@XZ  0048ff00 f i Crate_State.obj
 0002:0000ef50       ??0Gamestate@Zeni@@QAE@ABV01@@Z 0048ff50 f i Crate_State.obj
 0002:0000efc0       ??4Gamestate@Zeni@@QAEAAV01@ABV01@@Z 0048ffc0 f i Crate_State.obj
 0002:0000f050       ?decrement@Gamestate_Base@Zeni@@AAEXXZ 00490050 f i Crate_State.obj
 0002:0000f120       ??1Zero_Gamestate@Zeni@@QAE@XZ 00490120 f i Crate_State.obj
 0002:0000f170       ??0Zero_Gamestate@Zeni@@QAE@ABU01@@Z 00490170 f i Crate_State.obj
 0002:0000f1d0       ?on_mouse_motion@Crate_State@Crate@@UAEXABUSDL_MouseMotionEvent@@@Z 004901d0 f   Crate_State.obj
 0002:0000f3e0       ?get_camera@Player@Crate@@QBEABVCamera@Zeni@@XZ 004903e0 f i Crate_State.obj
 0002:0000f420       ?get_up@Camera@Zeni@@QBEABUVector3f@2@XZ 00490420 f i Crate_State.obj
 0002:0000f460       ?on_mouse_button@Crate_State@Crate@@UAEXABUSDL_MouseButtonEvent@@@Z 00490460 f   Crate_State.obj
 0002:0000f510       ?perform_logic@Crate_State@Crate@@UAEXXZ 00490510 f   Crate_State.obj
 0002:0000fa80       ?get_position@Camera@Zeni@@QBEABUPoint3f@2@XZ 00490a80 f i Crate_State.obj
 0002:0000fac0       ?get_seconds_since@Time_HQ@Zeni@@QBEOABV12@@Z 00490ac0 f i Crate_State.obj
 0002:0000fb40       ?get_ticks_since@Time_HQ@Zeni@@QBE_JABV12@@Z 00490b40 f i Crate_State.obj
 0002:0000fb90       ?get_time@Timer_HQ@Zeni@@QAE?AVTime_HQ@2@XZ 00490b90 f i Crate_State.obj
 0002:0000fca0       ?update@Timer_HQ@Zeni@@AAEXXZ 00490ca0 f i Crate_State.obj
 0002:0000fd80       ?set_BGM_time@Sound@Zeni@@QAEXABM@Z 00490d80 f i Crate_State.obj
 0002:0000fdf0       ?set_time@Sound_Source@Zeni@@QAEXABM@Z 00490df0 f i Crate_State.obj
 0002:0000fe70       ?get_BGM_time@Sound@Zeni@@QAEMXZ 00490e70 f i Crate_State.obj
 0002:0000fed0       ?get_time@Sound_Source@Zeni@@QBEMXZ 00490ed0 f i Crate_State.obj
 0002:0000ff80       ?render@Crate_State@Crate@@UAEXXZ 00490f80 f   Crate_State.obj
 0002:00012000       ??0Point2f@Zeni@@QAE@ABM0@Z 00493000 f i Crate_State.obj
 0002:00012060       ?get_forward@Camera@Zeni@@QBEABUVector3f@2@XZ 00493060 f i Crate_State.obj
 0002:000120a0       ?set_type@Fog@Zeni@@QAEXABW4FOG_TYPE@2@@Z 004930a0 f i Crate_State.obj
 0002:000120f0       ?set_density@Fog@Zeni@@QAEXABM@Z 004930f0 f i Crate_State.obj
 0002:00012140       ?get_fps@Game@Zeni@@QBEHXZ 00493140 f i Crate_State.obj
 0002:00012180       ?get_screen_width@Video@Zeni@@SAABHXZ 00493180 f i Crate_State.obj
 0002:000121c0       ?set_2d@Video@Zeni@@QAEXXZ 004931c0 f i Crate_State.obj
 0002:00012330       ??0Point2i@Zeni@@QAE@ABH0@Z 00493330 f i Crate_State.obj
 0002:00012390       ?get_screen_height@Video@Zeni@@SAABHXZ 00493390 f i Crate_State.obj
 0002:000123d0       ?set_2d@Video@Zeni@@QAEXABU?$pair@UPoint2f@Zeni@@U12@@std@@@Z 004933d0 f i Crate_State.obj
 0002:000124a0       ?set_3d@Video@Zeni@@QAEXABVCamera@2@@Z 004934a0 f i Crate_State.obj
 0002:00012570       ?render@Video@Zeni@@QAEXABVRenderable@2@@Z 00493570 f i Crate_State.obj
 0002:00012630       ?render_impl@Video_DX9@Zeni@@QAEXABVRenderable@2@@Z 00493630 f i Crate_State.obj
 0002:000126a0       ?render_impl@Video_GL@Zeni@@QAEXABVRenderable@2@@Z 004936a0 f i Crate_State.obj
 0002:00012710       ?set_2d_view@Video@Zeni@@QAEXABU?$pair@UPoint2f@Zeni@@U12@@std@@ABU?$pair@UPoint2i@Zeni@@U12@@4@@Z 00493710 f i Crate_State.obj
 0002:00012900       ?Identity@Matrix4f@Zeni@@SA?AV12@XZ 00493900 f i Crate_State.obj
 0002:00012a80       ?Orthographic@Matrix4f@Zeni@@SA?AV12@ABM00000@Z 00493a80 f i Crate_State.obj
 0002:00012cc0       ?set_2d_view_impl@Video_DX9@Zeni@@QAEXABU?$pair@UPoint2f@Zeni@@U12@@std@@ABU?$pair@UPoint2i@Zeni@@U12@@4@@Z 00493cc0 f i Crate_State.obj
 0002:00012de0       ?set_2d_view_impl@Video_GL@Zeni@@QAEXABU?$pair@UPoint2f@Zeni@@U12@@std@@ABU?$pair@UPoint2i@Zeni@@U12@@4@@Z 00493de0 f i Crate_State.obj
 0002:00012e20       ?set_3d_view@Video@Zeni@@QAEXABVCamera@2@ABU?$pair@UPoint2i@Zeni@@U12@@std@@@Z 00493e20 f i Crate_State.obj
 0002:00013070       ?get_view_matrix@Camera@Zeni@@QBE?AVMatrix4f@2@XZ 00494070 f i Crate_State.obj
 0002:000130e0       ?View@Matrix4f@Zeni@@SA?AV12@ABUPoint3f@2@ABUVector3f@2@1@Z 004940e0 f i Crate_State.obj
 0002:00013320       ??0Vector3f@Zeni@@QAE@ABUPoint3f@1@@Z 00494320 f i Crate_State.obj
 0002:00013390       ??LVector3f@Zeni@@QBE?AU01@ABU01@@Z 00494390 f i Crate_State.obj
 0002:00013480       ??GVector3f@Zeni@@QBE?AU01@XZ 00494480 f i Crate_State.obj
 0002:00013500       ?Translate@Matrix4f@Zeni@@SA?AV12@ABUVector3f@2@@Z 00494500 f i Crate_State.obj
 0002:00013660       ??DMatrix4f@Zeni@@QBE?AV01@ABV01@@Z 00494660 f i Crate_State.obj
 0002:000137e0       ?get_projection_matrix@Camera@Zeni@@QBE?AVMatrix4f@2@ABU?$pair@UPoint2f@Zeni@@U12@@std@@@Z 004947e0 f i Crate_State.obj
 0002:00013890       ?Perspective@Matrix4f@Zeni@@SA?AV12@ABM000@Z 00494890 f i Crate_State.obj
 0002:00013a90       ?atan@@YAMM@Z              00494a90 f i Crate_State.obj
 0002:00013af0       _atanf                     00494af0 f i Crate_State.obj
 0002:00013b60       ?set_3d_view_impl@Video_DX9@Zeni@@QAEXABVCamera@2@ABU?$pair@UPoint2i@Zeni@@U12@@std@@@Z 00494b60 f i Crate_State.obj
 0002:00013c80       ?set_3d_view_impl@Video_GL@Zeni@@QAEXABVCamera@2@ABU?$pair@UPoint2i@Zeni@@U12@@std@@@Z 00494c80 f i Crate_State.obj
 0002:00013cc0       ?set_zwrite@Video@Zeni@@QAEXAB_N@Z 00494cc0 f i Crate_State.obj
 0002:00013da0       ?set_zwrite_impl@Video_DX9@Zeni@@QAEXAB_N@Z 00494da0 f i Crate_State.obj
 0002:00013e30       ?set_zwrite_impl@Video_GL@Zeni@@QAEXAB_N@Z 00494e30 f i Crate_State.obj
 0002:00013ea0       ?set_ztest@Video@Zeni@@QAEXAB_N@Z 00494ea0 f i Crate_State.obj
 0002:00013f80       ?set_ztest_impl@Video_DX9@Zeni@@QAEXAB_N@Z 00494f80 f i Crate_State.obj
 0002:00014080       ?set_ztest_impl@Video_GL@Zeni@@QAEXAB_N@Z 00495080 f i Crate_State.obj
 0002:00014130       ?set_fog@Video@Zeni@@QAEXQBVFog@2@@Z 00495130 f i Crate_State.obj
 0002:000141f0       ?set_fog_impl@Video_DX9@Zeni@@QAEXQBVFog@2@@Z 004951f0 f i Crate_State.obj
 0002:000142f0       ?set_fog_impl@Video_GL@Zeni@@QAEXQBVFog@2@@Z 004952f0 f i Crate_State.obj
 0002:00014390       ?set_view_matrix@Video@Zeni@@QAEXABVMatrix4f@2@@Z 00495390 f i Crate_State.obj
 0002:00014480       ?set_view_matrix_impl@Video_DX9@Zeni@@QAEXABVMatrix4f@2@@Z 00495480 f i Crate_State.obj
 0002:00014500       ?set_view_matrix_impl@Video_GL@Zeni@@QAEXABVMatrix4f@2@@Z 00495500 f i Crate_State.obj
 0002:00014580       ?set_projection_matrix@Video@Zeni@@QAEXABVMatrix4f@2@@Z 00495580 f i Crate_State.obj
 0002:00014670       ?set_projection_matrix_impl@Video_DX9@Zeni@@QAEXABVMatrix4f@2@@Z 00495670 f i Crate_State.obj
 0002:000146f0       ?set_projection_matrix_impl@Video_GL@Zeni@@QAEXABVMatrix4f@2@@Z 004956f0 f i Crate_State.obj
 0002:00014770       ?set_viewport@Video@Zeni@@QAEXABU?$pair@UPoint2i@Zeni@@U12@@std@@@Z 00495770 f i Crate_State.obj
 0002:00014860       ?set_viewport_impl@Video_DX9@Zeni@@QAEXABU?$pair@UPoint2i@Zeni@@U12@@std@@@Z 00495860 f i Crate_State.obj
 0002:00014960       ?set_viewport_impl@Video_GL@Zeni@@QAEXABU?$pair@UPoint2i@Zeni@@U12@@std@@@Z 00495960 f i Crate_State.obj
 0002:00014a00       ??1Vertex3f_Texture@Zeni@@UAE@XZ 00495a00 f i Crate_State.obj
 0002:00014ab0       ??1Renderable@Zeni@@UAE@XZ 00495ab0 f i Crate_State.obj
 0002:00014af0       ??_ERenderable@Zeni@@UAEPAXI@Z 00495af0 f i Crate_State.obj
 0002:00014af0       ??_GRenderable@Zeni@@UAEPAXI@Z 00495af0 f i Crate_State.obj
 0002:00014b60       ??1Material@Zeni@@QAE@XZ   00495b60 f i Crate_State.obj
 0002:00014bc0       ??1Vertex2f_Texture@Zeni@@UAE@XZ 00495bc0 f i Crate_State.obj
 0002:00014c70       ?DrawWalls@Crate_State@Crate@@QAEXXZ 00495c70 f   Crate_State.obj
 0002:00016660       ?DrawSkyBox@Crate_State@Crate@@QAEXXZ 00497660 f   Crate_State.obj
 0002:00018ea0       ?set_position@Camera@Zeni@@QAEXABUPoint3f@2@@Z 00499ea0 f i Crate_State.obj
 0002:00018f00       ??0Camera@Zeni@@QAE@ABV01@@Z 00499f00 f i Crate_State.obj
 0002:00018fc0       ?partial_step@Crate_State@Crate@@AAEXABMABUVector3f@Zeni@@@Z 00499fc0 f   Crate_State.obj
 0002:00019230       ?get_body@Crate@1@QBEABVParallelepiped@Zeni_Collision@@XZ 0049a230 f i Crate_State.obj
 0002:00019270       ?get_body@Player@Crate@@QBEABVCapsule@Zeni_Collision@@XZ 0049a270 f i Crate_State.obj
 0002:000192b0       ?ShootArrow@Crate_State@Crate@@QAEXXZ 0049a2b0 f   Crate_State.obj
 0002:00019790       ??0Sphere@Zeni_Collision@@QAE@XZ 0049a790 f i Crate_State.obj
 0002:00019830       ?SetTargets@Crate_State@Crate@@QAEXH@Z 0049a830 f   Crate_State.obj
 0002:0001a060       ?RenderTargets@Crate_State@Crate@@QAEXXZ 0049b060 f   Crate_State.obj
 0002:0001b780       ??0Point2f@Zeni@@QAE@XZ    0049c780 f i Crate_State.obj
 0002:0001b7d0       ??4Vertex3f_Texture@Zeni@@QAEAAV01@ABV01@@Z 0049c7d0 f i Crate_State.obj
 0002:0001b880       ??4Renderable@Zeni@@QAEAAV01@ABV01@@Z 0049c880 f i Crate_State.obj
 0002:0001b8c0       ??4Vertex3f@Zeni@@QAEAAV01@ABV01@@Z 0049c8c0 f i Crate_State.obj
 0002:0001b940       ?ControlTargets@Crate_State@Crate@@QAEXABM@Z 0049c940 f   Crate_State.obj
 0002:0001bc20       ?AddScores@Crate_State@Crate@@QAEXXZ 0049cc20 f   Crate_State.obj
 0002:0001c3f0       ?CheckScores@Crate_State@Crate@@QAEHXZ 0049d3f0 f   Crate_State.obj
 0002:0001c860       ??_H@YGXPAXIHP6EPAX0@Z@Z   0049d860 f i Crate_State.obj
 0002:0001c8d0       ??0_Has_debug_it@?$basic_string@DU?$char_traits@D@std@@V?$allocator@D@2@@std@@QAE@_N@Z 0049d8d0 f i Crate_State.obj
 0002:0001c920       ??1?$IV@VTexture_Base@Zeni@@W4VTYPE@12@@@IAE@XZ 0049d920 f i Crate_State.obj
 0002:0001c960       ??1?$vector@U?$pair@V?$basic_string@DU?$char_traits@D@std@@V?$allocator@D@2@@std@@K@std@@V?$allocator@U?$pair@V?$basic_string@DU?$char_traits@D@std@@V?$allocator@D@2@@std@@K@std@@@2@@std@@QAE@XZ 0049d960 f i Crate_State.obj
 0002:0001ca00       ?vtype@?$IV@VVideo_Base@Zeni@@W4VIDEO_MODE@12@@@QBE?AW4VIDEO_MODE@Video_Base@Zeni@@XZ 0049da00 f i Crate_State.obj
 0002:0001ca40       ?empty@?$stack@VGamestate@Zeni@@V?$deque@VGamestate@Zeni@@V?$allocator@VGamestate@Zeni@@@std@@@std@@@std@@QBE_NXZ 0049da40 f i Crate_State.obj
 0002:0001ca90       ?top@?$stack@VGamestate@Zeni@@V?$deque@VGamestate@Zeni@@V?$allocator@VGamestate@Zeni@@@std@@@std@@@std@@QAEAAVGamestate@Zeni@@XZ 0049da90 f i Crate_State.obj
 0002:0001cae0       ?push@?$stack@VGamestate@Zeni@@V?$deque@VGamestate@Zeni@@V?$allocator@VGamestate@Zeni@@@std@@@std@@@std@@QAEXABVGamestate@Zeni@@@Z 0049dae0 f i Crate_State.obj
 0002:0001cb40       ?pop@?$stack@VGamestate@Zeni@@V?$deque@VGamestate@Zeni@@V?$allocator@VGamestate@Zeni@@@std@@@std@@@std@@QAEXXZ 0049db40 f i Crate_State.obj
 0002:0001cb90       ??1?$_Vector_val@U?$pair@V?$basic_string@DU?$char_traits@D@std@@V?$allocator@D@2@@std@@K@std@@V?$allocator@U?$pair@V?$basic_string@DU?$char_traits@D@std@@V?$allocator@D@2@@std@@K@std@@@2@@std@@QAE@XZ 0049db90 f i Crate_State.obj
 0002:0001cbe0       ?_Tidy@?$vector@U?$pair@V?$basic_string@DU?$char_traits@D@std@@V?$allocator@D@2@@std@@K@std@@V?$allocator@U?$pair@V?$basic_string@DU?$char_traits@D@std@@V?$allocator@D@2@@std@@K@std@@@2@@std@@IAEXXZ 0049dbe0 f i Crate_State.obj
 0002:0001ccc0       ??1?$_Container_base_aux_alloc_empty@V?$allocator@U?$pair@V?$basic_string@DU?$char_traits@D@std@@V?$allocator@D@2@@std@@K@std@@@std@@@std@@IAE@XZ 0049dcc0 f i Crate_State.obj
 0002:0001cd20       ?empty@?$deque@VGamestate@Zeni@@V?$allocator@VGamestate@Zeni@@@std@@@std@@QBE_NXZ 0049dd20 f i Crate_State.obj
 0002:0001cd70       ?back@?$deque@VGamestate@Zeni@@V?$allocator@VGamestate@Zeni@@@std@@@std@@QAEAAVGamestate@Zeni@@XZ 0049dd70 f i Crate_State.obj
 0002:0001cea0       ?push_back@?$deque@VGamestate@Zeni@@V?$allocator@VGamestate@Zeni@@@std@@@std@@QAEXABVGamestate@Zeni@@@Z 0049dea0 f i Crate_State.obj
 0002:0001d000       ?pop_back@?$deque@VGamestate@Zeni@@V?$allocator@VGamestate@Zeni@@@std@@@std@@QAEXXZ 0049e000 f i Crate_State.obj
 0002:0001d150       ??1?$_Deque_iterator@VGamestate@Zeni@@V?$allocator@VGamestate@Zeni@@@std@@$00@std@@QAE@XZ 0049e150 f i Crate_State.obj
 0002:0001d1a0       ??1?$_Deque_const_iterator@VGamestate@Zeni@@V?$allocator@VGamestate@Zeni@@@std@@$00@std@@QAE@XZ 0049e1a0 f i Crate_State.obj
 0002:0001d1f0       ??1?$_Ranit@VGamestate@Zeni@@HPBV12@ABV12@@std@@QAE@XZ 0049e1f0 f i Crate_State.obj
 0002:0001d240       ??1?$_Iterator_with_base@Urandom_access_iterator_tag@std@@VGamestate@Zeni@@HPBV34@ABV34@V_Iterator_base@2@@std@@QAE@XZ 0049e240 f i Crate_State.obj
 0002:0001d290       ??1_Iterator_base@std@@QAE@XZ 0049e290 f i Crate_State.obj
 0002:0001d390       ?_Orphan_me@_Iterator_base@std@@QAEXXZ 0049e390 f i Crate_State.obj
 0002:0001d470       ?_Destroy@?$vector@U?$pair@V?$basic_string@DU?$char_traits@D@std@@V?$allocator@D@2@@std@@K@std@@V?$allocator@U?$pair@V?$basic_string@DU?$char_traits@D@std@@V?$allocator@D@2@@std@@K@std@@@2@@std@@IAEXPAU?$pair@V?$basic_string@DU?$char_traits@D@std@@V?$allocator@D@2@@std@@K@2@0@Z 0049e470 f i Crate_State.obj
 0002:0001d4e0       ?deallocate@?$allocator@U?$pair@V?$basic_string@DU?$char_traits@D@std@@V?$allocator@D@2@@std@@K@std@@@std@@QAEXPAU?$pair@V?$basic_string@DU?$char_traits@D@std@@V?$allocator@D@2@@std@@K@2@I@Z 0049e4e0 f i Crate_State.obj
 0002:0001d540       ?end@?$deque@VGamestate@Zeni@@V?$allocator@VGamestate@Zeni@@@std@@@std@@QAE?AV?$_Deque_iterator@VGamestate@Zeni@@V?$allocator@VGamestate@Zeni@@@std@@$00@2@XZ 0049e540 f i Crate_State.obj
 0002:0001d5d0       ?_Growmap@?$deque@VGamestate@Zeni@@V?$allocator@VGamestate@Zeni@@@std@@@std@@IAEXI@Z 0049e5d0 f i Crate_State.obj
 0002:0001d8d0       ?_Orphan_off@?$deque@VGamestate@Zeni@@V?$allocator@VGamestate@Zeni@@@std@@@std@@IBEXI@Z 0049e8d0 f i Crate_State.obj
 0002:0001da70       ?allocate@?$allocator@VGamestate@Zeni@@@std@@QAEPAVGamestate@Zeni@@I@Z 0049ea70 f i Crate_State.obj
 0002:0001dad0       ?construct@?$allocator@VGamestate@Zeni@@@std@@QAEXPAVGamestate@Zeni@@ABV34@@Z 0049ead0 f i Crate_State.obj
 0002:0001db30       ?destroy@?$allocator@VGamestate@Zeni@@@std@@QAEXPAVGamestate@Zeni@@@Z 0049eb30 f i Crate_State.obj
 0002:0001db90       ??D?$_Deque_iterator@VGamestate@Zeni@@V?$allocator@VGamestate@Zeni@@@std@@$00@std@@QBEAAVGamestate@Zeni@@XZ 0049eb90 f i Crate_State.obj
 0002:0001dbe0       ??G?$_Deque_iterator@VGamestate@Zeni@@V?$allocator@VGamestate@Zeni@@@std@@$00@std@@QBE?AV01@H@Z 0049ebe0 f i Crate_State.obj
 0002:0001dd00       ??0?$_Deque_iterator@VGamestate@Zeni@@V?$allocator@VGamestate@Zeni@@@std@@$00@std@@QAE@ABV01@@Z 0049ed00 f i Crate_State.obj
 0002:0001dd60       ?max_size@?$deque@VGamestate@Zeni@@V?$allocator@VGamestate@Zeni@@@std@@@std@@QBEIXZ 0049ed60 f i Crate_State.obj
 0002:0001ddc0       ?_Xlen@?$deque@VGamestate@Zeni@@V?$allocator@VGamestate@Zeni@@@std@@@std@@KAXXZ 0049edc0 f i Crate_State.obj
 0002:0001deb0       ??0length_error@std@@QAE@ABV?$basic_string@DU?$char_traits@D@std@@V?$allocator@D@2@@1@@Z 0049eeb0 f i Crate_State.obj
 0002:0001df20       ??0logic_error@std@@QAE@ABV?$basic_string@DU?$char_traits@D@std@@V?$allocator@D@2@@1@@Z 0049ef20 f i Crate_State.obj
 0002:0001e000       ?what@logic_error@std@@UBEPBDXZ 0049f000 f i Crate_State.obj
 0002:0001e060       ??_Elogic_error@std@@UAEPAXI@Z 0049f060 f i Crate_State.obj
 0002:0001e060       ??_Glogic_error@std@@UAEPAXI@Z 0049f060 f i Crate_State.obj
 0002:0001e0d0       ??1logic_error@std@@UAE@XZ 0049f0d0 f i Crate_State.obj
 0002:0001e150       ??1length_error@std@@UAE@XZ 0049f150 f i Crate_State.obj
 0002:0001e1b0       ??_Glength_error@std@@UAEPAXI@Z 0049f1b0 f i Crate_State.obj
 0002:0001e1b0       ??_Elength_error@std@@UAEPAXI@Z 0049f1b0 f i Crate_State.obj
 0002:0001e220       ??0logic_error@std@@QAE@ABV01@@Z 0049f220 f i Crate_State.obj
 0002:0001e300       ??0length_error@std@@QAE@ABV01@@Z 0049f300 f i Crate_State.obj
 0002:0001e370       ?deallocate@?$allocator@PAVGamestate@Zeni@@@std@@QAEXPAPAVGamestate@Zeni@@I@Z 0049f370 f i Crate_State.obj
 0002:0001e3d0       ?allocate@?$allocator@PAVGamestate@Zeni@@@std@@QAEPAPAVGamestate@Zeni@@I@Z 0049f3d0 f i Crate_State.obj
 0002:0001e430       ??0?$_Deque_iterator@VGamestate@Zeni@@V?$allocator@VGamestate@Zeni@@@std@@$00@std@@QAE@IPBV_Container_base_secure@1@@Z 0049f430 f i Crate_State.obj
 0002:0001e490       ??Z?$_Deque_iterator@VGamestate@Zeni@@V?$allocator@VGamestate@Zeni@@@std@@$00@std@@QAEAAV01@H@Z 0049f490 f i Crate_State.obj
 0002:0001e4f0       ??0?$_Deque_const_iterator@VGamestate@Zeni@@V?$allocator@VGamestate@Zeni@@@std@@$00@std@@QAE@ABV01@@Z 0049f4f0 f i Crate_State.obj
 0002:0001e5b0       ?_Adopt@_Iterator_base@std@@QAEXPBV_Container_base_secure@2@@Z 0049f5b0 f i Crate_State.obj
 0002:0001e6f0       ??D?$_Deque_const_iterator@VGamestate@Zeni@@V?$allocator@VGamestate@Zeni@@@std@@$00@std@@QBEABVGamestate@Zeni@@XZ 0049f6f0 f i Crate_State.obj
 0002:0001e860       ??0?$_Ranit@VGamestate@Zeni@@HPBV12@ABV12@@std@@QAE@XZ 0049f860 f i Crate_State.obj
 0002:0001e8c0       ??0?$_Iterator_with_base@Urandom_access_iterator_tag@std@@VGamestate@Zeni@@HPBV34@ABV34@V_Iterator_base@2@@std@@QAE@XZ 0049f8c0 f i Crate_State.obj
 0002:0001e920       ??0_Iterator_base@std@@QAE@XZ 0049f920 f i Crate_State.obj
 0002:0001e970       ?max_size@?$allocator@VGamestate@Zeni@@@std@@QBEIXZ 0049f970 f i Crate_State.obj
 0002:0001e9e0       ??Y?$_Deque_iterator@VGamestate@Zeni@@V?$allocator@VGamestate@Zeni@@@std@@$00@std@@QAEAAV01@H@Z 0049f9e0 f i Crate_State.obj
 0002:0001ea40       ??0?$_Deque_const_iterator@VGamestate@Zeni@@V?$allocator@VGamestate@Zeni@@@std@@$00@std@@QAE@IPBV_Container_base_secure@1@@Z 0049fa40 f i Crate_State.obj
 0002:0001eba0       ??Y?$_Deque_const_iterator@VGamestate@Zeni@@V?$allocator@VGamestate@Zeni@@@std@@$00@std@@QAEAAV01@H@Z 0049fba0 f i Crate_State.obj
 0002:0001ed60       ?_Getmycont@_Iterator_base@std@@QBEPBV_Container_base_secure@2@XZ 0049fd60 f i Crate_State.obj
 0002:0001eda0       ?_Has_container@_Iterator_base@std@@QBE_NXZ 0049fda0 f i Crate_State.obj
 0002:0001edf0       ??$make_pair@UPoint2f@Zeni@@U12@@std@@YA?AU?$pair@UPoint2f@Zeni@@U12@@0@UPoint2f@Zeni@@0@Z 0049fdf0 f i Crate_State.obj
 0002:0001ee50       ??$make_pair@UPoint2i@Zeni@@U12@@std@@YA?AU?$pair@UPoint2i@Zeni@@U12@@0@UPoint2i@Zeni@@0@Z 0049fe50 f i Crate_State.obj
 0002:0001eeb0       ??$?6U?$char_traits@D@std@@@std@@YAAAV?$basic_ostream@DU?$char_traits@D@std@@@0@AAV10@PBD@Z 0049feb0 f i Crate_State.obj
 0002:0001f430       ??0sentry@?$basic_ostream@DU?$char_traits@D@std@@@std@@QAE@AAV12@@Z 004a0430 f i Crate_State.obj
 0002:0001f590       ??1sentry@?$basic_ostream@DU?$char_traits@D@std@@@std@@QAE@XZ 004a0590 f i Crate_State.obj
 0002:0001f660       ??Bsentry@?$basic_ostream@DU?$char_traits@D@std@@@std@@QBE_NXZ 004a0660 f i Crate_State.obj
 0002:0001f6a0       ??0_Sentry_base@?$basic_ostream@DU?$char_traits@D@std@@@std@@QAE@AAV12@@Z 004a06a0 f i Crate_State.obj
 0002:0001f760       ??1_Sentry_base@?$basic_ostream@DU?$char_traits@D@std@@@std@@QAE@XZ 004a0760 f i Crate_State.obj
 0002:0001f810       ??$intersects@VParallelepiped@Zeni_Collision@@@Capsule@Zeni_Collision@@QBE_NABVParallelepiped@1@@Z 004a0810 f i Crate_State.obj
 0002:0001f8b0       ??$intersects@VSphere@Zeni_Collision@@@Ray@Zeni_Collision@@QBE_NABVSphere@1@@Z 004a08b0 f i Crate_State.obj
 0002:0001f950       ??$_Destroy_range@V?$allocator@U?$pair@V?$basic_string@DU?$char_traits@D@std@@V?$allocator@D@2@@std@@K@std@@@std@@@std@@YAXPAU?$pair@V?$basic_string@DU?$char_traits@D@std@@V?$allocator@D@2@@std@@K@0@0AAV?$allocator@U?$pair@V?$basic_string@DU?$char_traits@D@std@@V?$allocator@D@2@@std@@K@std@@@0@@Z 004a0950 f i Crate_State.obj
 0002:0001f9d0       ??$unchecked_uninitialized_copy@PAPAVGamestate@Zeni@@PAPAV12@V?$allocator@PAVGamestate@Zeni@@@std@@@stdext@@YAPAPAVGamestate@Zeni@@PAPAV12@00AAV?$allocator@PAVGamestate@Zeni@@@std@@@Z 004a09d0 f i Crate_State.obj
 0002:0001fa80       ??$unchecked_uninitialized_fill_n@PAPAVGamestate@Zeni@@IPAV12@V?$allocator@PAVGamestate@Zeni@@@std@@@stdext@@YAXPAPAVGamestate@Zeni@@IABQAV12@AAV?$allocator@PAVGamestate@Zeni@@@std@@@Z 004a0a80 f i Crate_State.obj
 0002:0001fb20       ??$_Destroy_range@V?$allocator@PAVGamestate@Zeni@@@std@@@std@@YAXPAPAVGamestate@Zeni@@0AAV?$allocator@PAVGamestate@Zeni@@@0@@Z 004a0b20 f i Crate_State.obj
 0002:0001fba0       ??$_Allocate@VGamestate@Zeni@@@std@@YAPAVGamestate@Zeni@@IPAV12@@Z 004a0ba0 f i Crate_State.obj
 0002:0001fc40       ??0bad_alloc@std@@QAE@PBD@Z 004a0c40 f i Crate_State.obj
 0002:0001fcc0       ??1bad_alloc@std@@UAE@XZ   004a0cc0 f i Crate_State.obj
 0002:0001fd30       ??_Gbad_alloc@std@@UAEPAXI@Z 004a0d30 f i Crate_State.obj
 0002:0001fd30       ??_Ebad_alloc@std@@UAEPAXI@Z 004a0d30 f i Crate_State.obj
 0002:0001fda0       ??0bad_alloc@std@@QAE@ABV01@@Z 004a0da0 f i Crate_State.obj
 0002:0001fe20       ??$_Construct@VGamestate@Zeni@@V12@@std@@YAXPAVGamestate@Zeni@@ABV12@@Z 004a0e20 f i Crate_State.obj
 0002:0001ff10       ??2@YAPAXIPAX@Z            004a0f10 f i Crate_State.obj
 0002:0001ff50       ??3@YAXPAX0@Z              004a0f50 f i Crate_State.obj
 0002:0001ff80       ??$_Destroy@VGamestate@Zeni@@@std@@YAXPAVGamestate@Zeni@@@Z 004a0f80 f i Crate_State.obj
 0002:0001ffd0       ??$_Allocate@PAVGamestate@Zeni@@@std@@YAPAPAVGamestate@Zeni@@IPAPAV12@@Z 004a0fd0 f i Crate_State.obj
 0002:00020070       ??_GGamestate@Zeni@@QAEPAXI@Z 004a1070 f i Crate_State.obj
 0002:000200e0       ??0?$pair@UPoint2i@Zeni@@U12@@std@@QAE@ABUPoint2i@Zeni@@0@Z 004a10e0 f i Crate_State.obj
 0002:00020150       ??0?$pair@UPoint2f@Zeni@@U12@@std@@QAE@ABUPoint2f@Zeni@@0@Z 004a1150 f i Crate_State.obj
 0002:000201c0       ??$_Ptr_cat@PAU?$pair@V?$basic_string@DU?$char_traits@D@std@@V?$allocator@D@2@@std@@K@std@@PAU12@@std@@YA?AU_Nonscalar_ptr_iterator_tag@0@AAPAU?$pair@V?$basic_string@DU?$char_traits@D@std@@V?$allocator@D@2@@std@@K@0@0@Z 004a11c0 f i Crate_State.obj
 0002:00020230       ??$_Destroy_range@V?$allocator@U?$pair@V?$basic_string@DU?$char_traits@D@std@@V?$allocator@D@2@@std@@K@std@@@std@@@std@@YAXPAU?$pair@V?$basic_string@DU?$char_traits@D@std@@V?$allocator@D@2@@std@@K@0@0AAV?$allocator@U?$pair@V?$basic_string@DU?$char_traits@D@std@@V?$allocator@D@2@@std@@K@std@@@0@U_Nonscalar_ptr_iterator_tag@0@@Z 004a1230 f i Crate_State.obj
 0002:000202a0       ??$_Checked_base@PAPAVGamestate@Zeni@@@std@@YAPAPAVGamestate@Zeni@@AAPAPAV12@@Z 004a12a0 f i Crate_State.obj
 0002:00020330       ??$_Ptr_cat@PAPAVGamestate@Zeni@@PAPAV12@@std@@YA?AU_Scalar_ptr_iterator_tag@0@AAPAPAVGamestate@Zeni@@0@Z 004a1330 f i Crate_State.obj
 0002:000203a0       ??$_Uninit_copy@PAPAVGamestate@Zeni@@PAPAV12@V?$allocator@PAVGamestate@Zeni@@@std@@@std@@YAPAPAVGamestate@Zeni@@PAPAV12@00AAV?$allocator@PAVGamestate@Zeni@@@0@U_Scalar_ptr_iterator_tag@0@U_Range_checked_iterator_tag@0@@Z 004a13a0 f i Crate_State.obj
 0002:00020480       ??$_Uninit_fill_n@PAPAVGamestate@Zeni@@IPAV12@V?$allocator@PAVGamestate@Zeni@@@std@@@std@@YAXPAPAVGamestate@Zeni@@IABQAV12@AAV?$allocator@PAVGamestate@Zeni@@@0@U_Scalar_ptr_iterator_tag@0@U_Range_checked_iterator_tag@0@@Z 004a1480 f i Crate_State.obj
 0002:000204e0       ??$_Destroy_range@V?$allocator@PAVGamestate@Zeni@@@std@@@std@@YAXPAPAVGamestate@Zeni@@0AAV?$allocator@PAVGamestate@Zeni@@@0@U_Scalar_ptr_iterator_tag@0@@Z 004a14e0 f i Crate_State.obj
 0002:00020510       ?destroy@?$allocator@U?$pair@V?$basic_string@DU?$char_traits@D@std@@V?$allocator@D@2@@std@@K@std@@@std@@QAEXPAU?$pair@V?$basic_string@DU?$char_traits@D@std@@V?$allocator@D@2@@std@@K@2@@Z 004a1510 f i Crate_State.obj
 0002:00020570       ??$_Checked_base@PAPAVGamestate@Zeni@@@std@@YAPAPAVGamestate@Zeni@@AAPAPAV12@U_Unchanged_checked_iterator_base_type_tag@0@@Z 004a1570 f i Crate_State.obj
 0002:000205b0       ??$_Debug_range@PAPAVGamestate@Zeni@@@std@@YAXPAPAVGamestate@Zeni@@0PB_WI@Z 004a15b0 f i Crate_State.obj
 0002:00020630       ??$_Debug_pointer@PAVGamestate@Zeni@@@std@@YAXPAPAVGamestate@Zeni@@PB_WI@Z 004a1630 f i Crate_State.obj
 0002:000206a0       ??$unchecked_fill_n@PAPAVGamestate@Zeni@@IPAV12@@stdext@@YAXPAPAVGamestate@Zeni@@IABQAV12@@Z 004a16a0 f i Crate_State.obj
 0002:00020730       ??$_Destroy@U?$pair@V?$basic_string@DU?$char_traits@D@std@@V?$allocator@D@2@@std@@K@std@@@std@@YAXPAU?$pair@V?$basic_string@DU?$char_traits@D@std@@V?$allocator@D@2@@std@@K@0@@Z 004a1730 f i Crate_State.obj
 0002:00020780       ??_G?$pair@V?$basic_string@DU?$char_traits@D@std@@V?$allocator@D@2@@std@@K@std@@QAEPAXI@Z 004a1780 f i Crate_State.obj
 0002:000207f0       ??1?$pair@V?$basic_string@DU?$char_traits@D@std@@V?$allocator@D@2@@std@@K@std@@QAE@XZ 004a17f0 f i Crate_State.obj
 0002:00020850       ??$_Iter_cat@PAPAVGamestate@Zeni@@@std@@YA?AUrandom_access_iterator_tag@0@ABQAPAVGamestate@Zeni@@@Z 004a1850 f i Crate_State.obj
 0002:000208c0       ??$_Debug_range2@PAPAVGamestate@Zeni@@@std@@YAXPAPAVGamestate@Zeni@@0PB_WIUrandom_access_iterator_tag@0@@Z 004a18c0 f i Crate_State.obj
 0002:00020970       ??$_Fill_n@PAPAVGamestate@Zeni@@IPAV12@@std@@YAXPAPAVGamestate@Zeni@@IABQAV12@Urandom_access_iterator_tag@0@U_Range_checked_iterator_tag@0@@Z 004a1970 f i Crate_State.obj
 0002:00020a00       ??$_Fill_n@PAPAVGamestate@Zeni@@IPAV12@@std@@YAXPAPAVGamestate@Zeni@@IABQAV12@U_Range_checked_iterator_tag@0@@Z 004a1a00 f i Crate_State.obj
 0002:00020a60       ??0Target@Crate@@QAE@XZ    004a1a60 f i Crate_State.obj
 0002:00020ae0       ??0Gamestate_One@Zeni@@QAE@QBV?$vector@V?$basic_string@DU?$char_traits@D@std@@V?$allocator@D@2@@std@@V?$allocator@V?$basic_string@DU?$char_traits@D@std@@V?$allocator@D@2@@std@@@2@@std@@@Z 004a1ae0 f   Gamestate_One.obj
 0002:00020bd0       ??_EGamestate_One@Zeni@@UAEPAXI@Z 004a1bd0 f i Gamestate_One.obj
 0002:00020bd0       ??_GGamestate_One@Zeni@@UAEPAXI@Z 004a1bd0 f i Gamestate_One.obj
 0002:00020c40       ??1Gamestate_One@Zeni@@UAE@XZ 004a1c40 f   Gamestate_One.obj
 0002:00020ca0       ?perform_logic@Gamestate_One@Zeni@@UAEXXZ 004a1ca0 f   Gamestate_One.obj
 0002:00020e00       ??4?$vector@V?$basic_string@DU?$char_traits@D@std@@V?$allocator@D@2@@std@@V?$allocator@V?$basic_string@DU?$char_traits@D@std@@V?$allocator@D@2@@std@@@2@@std@@QAEAAV01@ABV01@@Z 004a1e00 f i Gamestate_One.obj
 0002:00021030       ?capacity@?$vector@V?$basic_string@DU?$char_traits@D@std@@V?$allocator@D@2@@std@@V?$allocator@V?$basic_string@DU?$char_traits@D@std@@V?$allocator@D@2@@std@@@2@@std@@QBEIXZ 004a2030 f i Gamestate_One.obj
 0002:000210a0       ?size@?$vector@V?$basic_string@DU?$char_traits@D@std@@V?$allocator@D@2@@std@@V?$allocator@V?$basic_string@DU?$char_traits@D@std@@V?$allocator@D@2@@std@@@2@@std@@QBEIXZ 004a20a0 f i Gamestate_One.obj
 0002:000210f0       ?clear@?$vector@V?$basic_string@DU?$char_traits@D@std@@V?$allocator@D@2@@std@@V?$allocator@V?$basic_string@DU?$char_traits@D@std@@V?$allocator@D@2@@std@@@2@@std@@QAEXXZ 004a20f0 f i Gamestate_One.obj
 0002:00021280       ?_Buy@?$vector@V?$basic_string@DU?$char_traits@D@std@@V?$allocator@D@2@@std@@V?$allocator@V?$basic_string@DU?$char_traits@D@std@@V?$allocator@D@2@@std@@@2@@std@@IAE_NI@Z 004a2280 f i Gamestate_One.obj
 0002:00021360       ?_Destroy@?$vector@V?$basic_string@DU?$char_traits@D@std@@V?$allocator@D@2@@std@@V?$allocator@V?$basic_string@DU?$char_traits@D@std@@V?$allocator@D@2@@std@@@2@@std@@IAEXPAV?$basic_string@DU?$char_traits@D@std@@V?$allocator@D@2@@2@0@Z 004a2360 f i Gamestate_One.obj
 0002:000213d0       ?deallocate@?$allocator@V?$basic_string@DU?$char_traits@D@std@@V?$allocator@D@2@@std@@@std@@QAEXPAV?$basic_string@DU?$char_traits@D@std@@V?$allocator@D@2@@2@I@Z 004a23d0 f i Gamestate_One.obj
 0002:00021430       ??1?$_Vector_iterator@V?$basic_string@DU?$char_traits@D@std@@V?$allocator@D@2@@std@@V?$allocator@V?$basic_string@DU?$char_traits@D@std@@V?$allocator@D@2@@std@@@2@@std@@QAE@XZ 004a2430 f i Gamestate_One.obj
 0002:00021480       ??0?$_Vector_const_iterator@V?$basic_string@DU?$char_traits@D@std@@V?$allocator@D@2@@std@@V?$allocator@V?$basic_string@DU?$char_traits@D@std@@V?$allocator@D@2@@std@@@2@@std@@QAE@ABV01@@Z 004a2480 f i Gamestate_One.obj
 0002:000214f0       ??1?$_Vector_const_iterator@V?$basic_string@DU?$char_traits@D@std@@V?$allocator@D@2@@std@@V?$allocator@V?$basic_string@DU?$char_traits@D@std@@V?$allocator@D@2@@std@@@2@@std@@QAE@XZ 004a24f0 f i Gamestate_One.obj
 0002:00021540       ??0?$_Ranit@V?$basic_string@DU?$char_traits@D@std@@V?$allocator@D@2@@std@@HPBV12@ABV12@@std@@QAE@ABU01@@Z 004a2540 f i Gamestate_One.obj
 0002:000215a0       ??1?$_Ranit@V?$basic_string@DU?$char_traits@D@std@@V?$allocator@D@2@@std@@HPBV12@ABV12@@std@@QAE@XZ 004a25a0 f i Gamestate_One.obj
 0002:000215f0       ??0?$_Iterator_with_base@Urandom_access_iterator_tag@std@@V?$basic_string@DU?$char_traits@D@std@@V?$allocator@D@2@@2@HPBV32@ABV32@V_Iterator_base@2@@std@@QAE@ABU01@@Z 004a25f0 f i Gamestate_One.obj
 0002:00021650       ??0_Iterator_base@std@@QAE@ABV01@@Z 004a2650 f i Gamestate_One.obj
 0002:000216d0       ??4_Iterator_base@std@@QAEAAV01@ABV01@@Z 004a26d0 f i Gamestate_One.obj
 0002:00021800       ??1?$_Iterator_with_base@Urandom_access_iterator_tag@std@@V?$basic_string@DU?$char_traits@D@std@@V?$allocator@D@2@@2@HPBV32@ABV32@V_Iterator_base@2@@std@@QAE@XZ 004a2800 f i Gamestate_One.obj
 0002:00021850       ?begin@?$vector@V?$basic_string@DU?$char_traits@D@std@@V?$allocator@D@2@@std@@V?$allocator@V?$basic_string@DU?$char_traits@D@std@@V?$allocator@D@2@@std@@@2@@std@@QAE?AV?$_Vector_iterator@V?$basic_string@DU?$char_traits@D@std@@V?$allocator@D@2@@std@@V?$allocator@V?$basic_string@DU?$char_traits@D@std@@V?$allocator@D@2@@std@@@2@@2@XZ 004a2850 f i Gamestate_One.obj
 0002:000218e0       ?end@?$vector@V?$basic_string@DU?$char_traits@D@std@@V?$allocator@D@2@@std@@V?$allocator@V?$basic_string@DU?$char_traits@D@std@@V?$allocator@D@2@@std@@@2@@std@@QAE?AV?$_Vector_iterator@V?$basic_string@DU?$char_traits@D@std@@V?$allocator@D@2@@std@@V?$allocator@V?$basic_string@DU?$char_traits@D@std@@V?$allocator@D@2@@std@@@2@@2@XZ 004a28e0 f i Gamestate_One.obj
 0002:00021970       ?max_size@?$vector@V?$basic_string@DU?$char_traits@D@std@@V?$allocator@D@2@@std@@V?$allocator@V?$basic_string@DU?$char_traits@D@std@@V?$allocator@D@2@@std@@@2@@std@@QBEIXZ 004a2970 f i Gamestate_One.obj
 0002:000219d0       ?erase@?$vector@V?$basic_string@DU?$char_traits@D@std@@V?$allocator@D@2@@std@@V?$allocator@V?$basic_string@DU?$char_traits@D@std@@V?$allocator@D@2@@std@@@2@@std@@QAE?AV?$_Vector_iterator@V?$basic_string@DU?$char_traits@D@std@@V?$allocator@D@2@@std@@V?$allocator@V?$basic_string@DU?$char_traits@D@std@@V?$allocator@D@2@@std@@@2@@2@V?$_Vector_const_iterator@V?$basic_string@DU?$char_traits@D@std@@V?$allocator@D@2@@std@@V?$allocator@V?$basic_string@DU?$char_traits@D@std@@V?$allocator@D@2@@std@@@2@@2@0@Z 004a29d0 f i Gamestate_One.obj
 0002:00021c70       ?_Xlen@?$vector@V?$basic_string@DU?$char_traits@D@std@@V?$allocator@D@2@@std@@V?$allocator@V?$basic_string@DU?$char_traits@D@std@@V?$allocator@D@2@@std@@@2@@std@@KAXXZ 004a2c70 f i Gamestate_One.obj
 0002:00021d60       ?allocate@?$allocator@V?$basic_string@DU?$char_traits@D@std@@V?$allocator@D@2@@std@@@std@@QAEPAV?$basic_string@DU?$char_traits@D@std@@V?$allocator@D@2@@2@I@Z 004a2d60 f i Gamestate_One.obj
 0002:00021dc0       ?_Make_iter@?$vector@V?$basic_string@DU?$char_traits@D@std@@V?$allocator@D@2@@std@@V?$allocator@V?$basic_string@DU?$char_traits@D@std@@V?$allocator@D@2@@std@@@2@@std@@QBE?AV?$_Vector_iterator@V?$basic_string@DU?$char_traits@D@std@@V?$allocator@D@2@@std@@V?$allocator@V?$basic_string@DU?$char_traits@D@std@@V?$allocator@D@2@@std@@@2@@2@V?$_Vector_const_iterator@V?$basic_string@DU?$char_traits@D@std@@V?$allocator@D@2@@std@@V?$allocator@V?$basic_string@DU?$char_traits@D@std@@V?$allocator@D@2@@std@@@2@@2@@Z 004a2dc0 f i Gamestate_One.obj
 0002:00021e90       ?_Orphan_range@?$vector@V?$basic_string@DU?$char_traits@D@std@@V?$allocator@D@2@@std@@V?$allocator@V?$basic_string@DU?$char_traits@D@std@@V?$allocator@D@2@@std@@@2@@std@@IBEXPAV?$basic_string@DU?$char_traits@D@std@@V?$allocator@D@2@@2@0@Z 004a2e90 f i Gamestate_One.obj
 0002:00021fa0       ?max_size@?$allocator@V?$basic_string@DU?$char_traits@D@std@@V?$allocator@D@2@@std@@@std@@QBEIXZ 004a2fa0 f i Gamestate_One.obj
 0002:00022010       ??0?$_Vector_iterator@V?$basic_string@DU?$char_traits@D@std@@V?$allocator@D@2@@std@@V?$allocator@V?$basic_string@DU?$char_traits@D@std@@V?$allocator@D@2@@std@@@2@@std@@QAE@PAV?$basic_string@DU?$char_traits@D@std@@V?$allocator@D@2@@1@PBV_Container_base_secure@1@@Z 004a3010 f i Gamestate_One.obj
 0002:00022070       ??9?$_Vector_const_iterator@V?$basic_string@DU?$char_traits@D@std@@V?$allocator@D@2@@std@@V?$allocator@V?$basic_string@DU?$char_traits@D@std@@V?$allocator@D@2@@std@@@2@@std@@QBE_NABV01@@Z 004a3070 f i Gamestate_One.obj
 0002:000220e0       ??M?$_Vector_const_iterator@V?$basic_string@DU?$char_traits@D@std@@V?$allocator@D@2@@std@@V?$allocator@V?$basic_string@DU?$char_traits@D@std@@V?$allocator@D@2@@std@@@2@@std@@QBE_NABV01@@Z 004a30e0 f i Gamestate_One.obj
 0002:00022150       ??0?$_Vector_const_iterator@V?$basic_string@DU?$char_traits@D@std@@V?$allocator@D@2@@std@@V?$allocator@V?$basic_string@DU?$char_traits@D@std@@V?$allocator@D@2@@std@@@2@@std@@QAE@PAV?$basic_string@DU?$char_traits@D@std@@V?$allocator@D@2@@1@PBV_Container_base_secure@1@@Z 004a3150 f i Gamestate_One.obj
 0002:00022290       ??8?$_Vector_const_iterator@V?$basic_string@DU?$char_traits@D@std@@V?$allocator@D@2@@std@@V?$allocator@V?$basic_string@DU?$char_traits@D@std@@V?$allocator@D@2@@std@@@2@@std@@QBE_NABV01@@Z 004a3290 f i Gamestate_One.obj
 0002:00022300       ?_Compat@?$_Vector_const_iterator@V?$basic_string@DU?$char_traits@D@std@@V?$allocator@D@2@@std@@V?$allocator@V?$basic_string@DU?$char_traits@D@std@@V?$allocator@D@2@@std@@@2@@std@@QBEXABV12@@Z 004a3300 f i Gamestate_One.obj
 0002:00022400       ??0?$_Ranit@V?$basic_string@DU?$char_traits@D@std@@V?$allocator@D@2@@std@@HPBV12@ABV12@@std@@QAE@XZ 004a3400 f i Gamestate_One.obj
 0002:00022460       ??0?$_Iterator_with_base@Urandom_access_iterator_tag@std@@V?$basic_string@DU?$char_traits@D@std@@V?$allocator@D@2@@2@HPBV32@ABV32@V_Iterator_base@2@@std@@QAE@XZ 004a3460 f i Gamestate_One.obj
 0002:000224c0       ??$unchecked_copy@PAV?$basic_string@DU?$char_traits@D@std@@V?$allocator@D@2@@std@@PAV12@@stdext@@YAPAV?$basic_string@DU?$char_traits@D@std@@V?$allocator@D@2@@std@@PAV12@00@Z 004a34c0 f i Gamestate_One.obj
 0002:00022590       ??$_Ucopy@PAV?$basic_string@DU?$char_traits@D@std@@V?$allocator@D@2@@std@@@?$vector@V?$basic_string@DU?$char_traits@D@std@@V?$allocator@D@2@@std@@V?$allocator@V?$basic_string@DU?$char_traits@D@std@@V?$allocator@D@2@@std@@@2@@std@@IAEPAV?$basic_string@DU?$char_traits@D@std@@V?$allocator@D@2@@1@PAV21@00@Z 004a3590 f i Gamestate_One.obj
 0002:00022600       ??$_Destroy_range@V?$allocator@V?$basic_string@DU?$char_traits@D@std@@V?$allocator@D@2@@std@@@std@@@std@@YAXPAV?$basic_string@DU?$char_traits@D@std@@V?$allocator@D@2@@0@0AAV?$allocator@V?$basic_string@DU?$char_traits@D@std@@V?$allocator@D@2@@std@@@0@@Z 004a3600 f i Gamestate_One.obj
 0002:00022680       ??$_Allocate@V?$basic_string@DU?$char_traits@D@std@@V?$allocator@D@2@@std@@@std@@YAPAV?$basic_string@DU?$char_traits@D@std@@V?$allocator@D@2@@0@IPAV10@@Z 004a3680 f i Gamestate_One.obj
 0002:00022720       ??$_Checked_base@PAV?$basic_string@DU?$char_traits@D@std@@V?$allocator@D@2@@std@@@std@@YAPAV?$basic_string@DU?$char_traits@D@std@@V?$allocator@D@2@@0@AAPAV10@@Z 004a3720 f i Gamestate_One.obj
 0002:000227b0       ??$_Iter_random@PAV?$basic_string@DU?$char_traits@D@std@@V?$allocator@D@2@@std@@PAV12@@std@@YA?AUrandom_access_iterator_tag@0@ABQAV?$basic_string@DU?$char_traits@D@std@@V?$allocator@D@2@@0@0@Z 004a37b0 f i Gamestate_One.obj
 0002:00022820       ??$_Ptr_cat@PAV?$basic_string@DU?$char_traits@D@std@@V?$allocator@D@2@@std@@PAV12@@std@@YA?AU_Nonscalar_ptr_iterator_tag@0@AAPAV?$basic_string@DU?$char_traits@D@std@@V?$allocator@D@2@@0@0@Z 004a3820 f i Gamestate_One.obj
 0002:00022890       ??$_Copy_opt@PAV?$basic_string@DU?$char_traits@D@std@@V?$allocator@D@2@@std@@PAV12@@std@@YAPAV?$basic_string@DU?$char_traits@D@std@@V?$allocator@D@2@@0@PAV10@00Urandom_access_iterator_tag@0@U_Nonscalar_ptr_iterator_tag@0@U_Range_checked_iterator_tag@0@@Z 004a3890 f i Gamestate_One.obj
 0002:00022940       ??$unchecked_uninitialized_copy@PAV?$basic_string@DU?$char_traits@D@std@@V?$allocator@D@2@@std@@PAV12@V?$allocator@V?$basic_string@DU?$char_traits@D@std@@V?$allocator@D@2@@std@@@2@@stdext@@YAPAV?$basic_string@DU?$char_traits@D@std@@V?$allocator@D@2@@std@@PAV12@00AAV?$allocator@V?$basic_string@DU?$char_traits@D@std@@V?$allocator@D@2@@std@@@2@@Z 004a3940 f i Gamestate_One.obj
 0002:000229f0       ??$_Destroy_range@V?$allocator@V?$basic_string@DU?$char_traits@D@std@@V?$allocator@D@2@@std@@@std@@@std@@YAXPAV?$basic_string@DU?$char_traits@D@std@@V?$allocator@D@2@@0@0AAV?$allocator@V?$basic_string@DU?$char_traits@D@std@@V?$allocator@D@2@@std@@@0@U_Nonscalar_ptr_iterator_tag@0@@Z 004a39f0 f i Gamestate_One.obj
 0002:00022a60       ?destroy@?$allocator@V?$basic_string@DU?$char_traits@D@std@@V?$allocator@D@2@@std@@@std@@QAEXPAV?$basic_string@DU?$char_traits@D@std@@V?$allocator@D@2@@2@@Z 004a3a60 f i Gamestate_One.obj
 0002:00022ac0       ??$_Checked_base@PAV?$basic_string@DU?$char_traits@D@std@@V?$allocator@D@2@@std@@@std@@YAPAV?$basic_string@DU?$char_traits@D@std@@V?$allocator@D@2@@0@AAPAV10@U_Unchanged_checked_iterator_base_type_tag@0@@Z 004a3ac0 f i Gamestate_One.obj
 0002:00022b00       ??$_Copy_opt@PAV?$basic_string@DU?$char_traits@D@std@@V?$allocator@D@2@@std@@PAV12@Uforward_iterator_tag@2@@std@@YAPAV?$basic_string@DU?$char_traits@D@std@@V?$allocator@D@2@@0@PAV10@00Uforward_iterator_tag@0@U_Nonscalar_ptr_iterator_tag@0@U_Range_checked_iterator_tag@0@@Z 004a3b00 f i Gamestate_One.obj
 0002:00022bb0       ??$_Uninit_copy@PAV?$basic_string@DU?$char_traits@D@std@@V?$allocator@D@2@@std@@PAV12@V?$allocator@V?$basic_string@DU?$char_traits@D@std@@V?$allocator@D@2@@std@@@2@@std@@YAPAV?$basic_string@DU?$char_traits@D@std@@V?$allocator@D@2@@0@PAV10@00AAV?$allocator@V?$basic_string@DU?$char_traits@D@std@@V?$allocator@D@2@@std@@@0@U_Nonscalar_ptr_iterator_tag@0@U_Range_checked_iterator_tag@0@@Z 004a3bb0 f i Gamestate_One.obj
 0002:00022d00       ??$_Destroy@V?$basic_string@DU?$char_traits@D@std@@V?$allocator@D@2@@std@@@std@@YAXPAV?$basic_string@DU?$char_traits@D@std@@V?$allocator@D@2@@0@@Z 004a3d00 f i Gamestate_One.obj
 0002:00022d50       ??_G?$basic_string@DU?$char_traits@D@std@@V?$allocator@D@2@@std@@QAEPAXI@Z 004a3d50 f i Gamestate_One.obj
 0002:00022dd0       ?construct@?$allocator@V?$basic_string@DU?$char_traits@D@std@@V?$allocator@D@2@@std@@@std@@QAEXPAV?$basic_string@DU?$char_traits@D@std@@V?$allocator@D@2@@2@ABV32@@Z 004a3dd0 f i Gamestate_One.obj
 0002:00022e30       ??$_Debug_range@PAV?$basic_string@DU?$char_traits@D@std@@V?$allocator@D@2@@std@@@std@@YAXPAV?$basic_string@DU?$char_traits@D@std@@V?$allocator@D@2@@0@0PB_WI@Z 004a3e30 f i Gamestate_One.obj
 0002:00022eb0       ??$_Debug_pointer@V?$basic_string@DU?$char_traits@D@std@@V?$allocator@D@2@@std@@@std@@YAXPAV?$basic_string@DU?$char_traits@D@std@@V?$allocator@D@2@@0@PB_WI@Z 004a3eb0 f i Gamestate_One.obj
 0002:00022f20       ??$_Construct@V?$basic_string@DU?$char_traits@D@std@@V?$allocator@D@2@@std@@V12@@std@@YAXPAV?$basic_string@DU?$char_traits@D@std@@V?$allocator@D@2@@0@ABV10@@Z 004a3f20 f i Gamestate_One.obj
 0002:00023020       ??$_Iter_cat@PAV?$basic_string@DU?$char_traits@D@std@@V?$allocator@D@2@@std@@@std@@YA?AUrandom_access_iterator_tag@0@ABQAV?$basic_string@DU?$char_traits@D@std@@V?$allocator@D@2@@0@@Z 004a4020 f i Gamestate_One.obj
 0002:00023090       ??$_Debug_range2@PAV?$basic_string@DU?$char_traits@D@std@@V?$allocator@D@2@@std@@@std@@YAXPAV?$basic_string@DU?$char_traits@D@std@@V?$allocator@D@2@@0@0PB_WIUrandom_access_iterator_tag@0@@Z 004a4090 f i Gamestate_One.obj
 0002:00023140       ??0?$vector@V?$basic_string@DU?$char_traits@D@std@@V?$allocator@D@2@@std@@V?$allocator@V?$basic_string@DU?$char_traits@D@std@@V?$allocator@D@2@@std@@@2@@std@@QAE@XZ 004a4140 f i Gamestate_One.obj
 0002:00023200       ??1?$_Vector_val@V?$basic_string@DU?$char_traits@D@std@@V?$allocator@D@2@@std@@V?$allocator@V?$basic_string@DU?$char_traits@D@std@@V?$allocator@D@2@@std@@@2@@std@@QAE@XZ 004a4200 f i Gamestate_One.obj
 0002:00023250       ??0?$_Vector_val@V?$basic_string@DU?$char_traits@D@std@@V?$allocator@D@2@@std@@V?$allocator@V?$basic_string@DU?$char_traits@D@std@@V?$allocator@D@2@@std@@@2@@std@@IAE@V?$allocator@V?$basic_string@DU?$char_traits@D@std@@V?$allocator@D@2@@std@@@1@@Z 004a4250 f i Gamestate_One.obj
 0002:000232d0       ??1?$_Container_base_aux_alloc_empty@V?$allocator@V?$basic_string@DU?$char_traits@D@std@@V?$allocator@D@2@@std@@@std@@@std@@IAE@XZ 004a42d0 f i Gamestate_One.obj
 0002:00023330       ??0?$allocator@V?$basic_string@DU?$char_traits@D@std@@V?$allocator@D@2@@std@@@std@@QAE@XZ 004a4330 f i Gamestate_One.obj
 0002:00023370       ??0?$_Container_base_aux_alloc_empty@V?$allocator@V?$basic_string@DU?$char_traits@D@std@@V?$allocator@D@2@@std@@@std@@@std@@IAE@V?$allocator@V?$basic_string@DU?$char_traits@D@std@@V?$allocator@D@2@@std@@@1@@Z 004a4370 f i Gamestate_One.obj
 0002:000233e0       ??0?$allocator@V?$basic_string@DU?$char_traits@D@std@@V?$allocator@D@2@@std@@@std@@QAE@ABV01@@Z 004a43e0 f i Gamestate_One.obj
 0002:00023420       ??1?$vector@V?$basic_string@DU?$char_traits@D@std@@V?$allocator@D@2@@std@@V?$allocator@V?$basic_string@DU?$char_traits@D@std@@V?$allocator@D@2@@std@@@2@@std@@QAE@XZ 004a4420 f i Gamestate_One.obj
 0002:000234c0       ?_Tidy@?$vector@V?$basic_string@DU?$char_traits@D@std@@V?$allocator@D@2@@std@@V?$allocator@V?$basic_string@DU?$char_traits@D@std@@V?$allocator@D@2@@std@@@2@@std@@IAEXXZ 004a44c0 f i Gamestate_One.obj
 0002:000235a0       ??0Player@Crate@@QAE@ABVCamera@Zeni@@ABUVector3f@3@M@Z 004a45a0 f   Player.obj
 0002:000237f0       ??0Capsule@Zeni_Collision@@QAE@XZ 004a47f0 f i Player.obj
 0002:00023850       ??0Line_Segment@Zeni_Collision@@QAE@XZ 004a4850 f i Player.obj
 0002:00023930       ?set_position@Player@Crate@@QAEXABUPoint3f@Zeni@@@Z 004a4930 f   Player.obj
 0002:00023990       ?adjust_pitch@Player@Crate@@QAEXABM@Z 004a4990 f   Player.obj
 0002:000239f0       ?turn_left_xy@Player@Crate@@QAEXABM@Z 004a49f0 f   Player.obj
 0002:00023a50       ?set_on_ground@Player@Crate@@QAEXAB_N@Z 004a4a50 f   Player.obj
 0002:00023aa0       ?jump@Player@Crate@@QAEXXZ 004a4aa0 f   Player.obj
 0002:00023ae0       ?step@Player@Crate@@QAEXABM@Z 004a4ae0 f   Player.obj
 0002:00023be0       ?set_position@Camera@Zeni@@QAEXABM00@Z 004a4be0 f i Player.obj
 0002:00023c40       ?create_body@Player@Crate@@AAEXXZ 004a4c40 f   Player.obj
 0002:00023cf0       ??0Title_State@Title@@QAE@XZ 004a4cf0 f   Title_State.obj
 0002:000241a0       ?play_BGM@Sound@Zeni@@QAEXXZ 004a51a0 f i Title_State.obj
 0002:00024200       ??_ETitle_State@Title@@UAEPAXI@Z 004a5200 f i Title_State.obj
 0002:00024200       ??_GTitle_State@Title@@UAEPAXI@Z 004a5200 f i Title_State.obj
 0002:00024270       ??1Text_Box@Zeni@@UAE@XZ   004a5270 f i Title_State.obj
 0002:00024340       ??1Widget_Rectangle_Color@Zeni@@UAE@XZ 004a5340 f i Title_State.obj
 0002:00024450       ??1Widget_Rectangle@Zeni@@UAE@XZ 004a5450 f i Title_State.obj
 0002:000244a0       ??1Widget_Positioned@Zeni@@UAE@XZ 004a54a0 f i Title_State.obj
 0002:000244e0       ??_GWidget_Positioned@Zeni@@UAEPAXI@Z 004a54e0 f i Title_State.obj
 0002:000244e0       ??_EWidget_Positioned@Zeni@@UAEPAXI@Z 004a54e0 f i Title_State.obj
 0002:00024550       ??_EWidget_Rectangle_Color@Zeni@@UAEPAXI@Z 004a5550 f i Title_State.obj
 0002:00024550       ??_GWidget_Rectangle_Color@Zeni@@UAEPAXI@Z 004a5550 f i Title_State.obj
 0002:000245c0       ??1Widget_Button@Zeni@@UAE@XZ 004a55c0 f i Title_State.obj
 0002:00024670       ??1Widget@Zeni@@UAE@XZ     004a5670 f i Title_State.obj
 0002:000246b0       ?on_key@Widget@Zeni@@UAEXABUSDL_keysym@@AB_N@Z 004a56b0 f i Title_State.obj
 0002:000246f0       ??_GWidget@Zeni@@UAEPAXI@Z 004a56f0 f i Title_State.obj
 0002:000246f0       ??_EWidget@Zeni@@UAEPAXI@Z 004a56f0 f i Title_State.obj
 0002:00024760       ??1Widget_Text@Zeni@@QAE@XZ 004a5760 f i Title_State.obj
 0002:00024820       ??1Title_State@Title@@UAE@XZ 004a5820 f i Title_State.obj
 0002:000248d0       ?render@Title_State@Title@@UAEXXZ 004a58d0 f   Title_State.obj
 0002:00025f30       ??0Quit_Event@Zeni@@QAE@XZ 004a6f30 f i Title_State.obj
 0002:00026020       ??1Quit_Event@Zeni@@QAE@XZ 004a7020 f i Title_State.obj
 0002:00026070       ??0Quit_Event@Zeni@@QAE@ABU01@@Z 004a7070 f i Title_State.obj
 0002:000260d0       ?on_key@Title_State@Title@@UAEXABUSDL_KeyboardEvent@@@Z 004a70d0 f   Title_State.obj
 0002:00026440       ?get_text@Text_Box@Zeni@@QBEABV?$basic_string@DU?$char_traits@D@std@@V?$allocator@D@2@@std@@XZ 004a7440 f i Title_State.obj
 0002:000264a0       ?get_text@Widget_Text@Zeni@@QBEABV?$basic_string@DU?$char_traits@D@std@@V?$allocator@D@2@@std@@XZ 004a74a0 f i Title_State.obj
 0002:000264e0       ?get_num_lines@Text_Box@Zeni@@QBEHXZ 004a74e0 f i Title_State.obj
 0002:00026540       ?set_text@Text_Box@Zeni@@QAEXABV?$basic_string@DU?$char_traits@D@std@@V?$allocator@D@2@@std@@@Z 004a7540 f i Title_State.obj
 0002:000265c0       ?set_text@Widget_Text@Zeni@@QAEXABV?$basic_string@DU?$char_traits@D@std@@V?$allocator@D@2@@std@@@Z 004a75c0 f i Title_State.obj
 0002:00026630       ??1?$vector@ULine@Text_Box@Zeni@@V?$allocator@ULine@Text_Box@Zeni@@@std@@@std@@QAE@XZ 004a7630 f i Title_State.obj
 0002:000266d0       ?size@?$vector@ULine@Text_Box@Zeni@@V?$allocator@ULine@Text_Box@Zeni@@@std@@@std@@QBEIXZ 004a76d0 f i Title_State.obj
 0002:00026720       ??1?$_Vector_val@ULine@Text_Box@Zeni@@V?$allocator@ULine@Text_Box@Zeni@@@std@@@std@@QAE@XZ 004a7720 f i Title_State.obj
 0002:00026770       ?_Tidy@?$vector@ULine@Text_Box@Zeni@@V?$allocator@ULine@Text_Box@Zeni@@@std@@@std@@IAEXXZ 004a7770 f i Title_State.obj
 0002:00026850       ??1?$_Container_base_aux_alloc_empty@V?$allocator@ULine@Text_Box@Zeni@@@std@@@std@@IAE@XZ 004a7850 f i Title_State.obj
 0002:000268b0       ?_Destroy@?$vector@ULine@Text_Box@Zeni@@V?$allocator@ULine@Text_Box@Zeni@@@std@@@std@@IAEXPAULine@Text_Box@Zeni@@0@Z 004a78b0 f i Title_State.obj
 0002:00026920       ?deallocate@?$allocator@ULine@Text_Box@Zeni@@@std@@QAEXPAULine@Text_Box@Zeni@@I@Z 004a7920 f i Title_State.obj
 0002:00026980       ??$_Destroy_range@V?$allocator@ULine@Text_Box@Zeni@@@std@@@std@@YAXPAULine@Text_Box@Zeni@@0AAV?$allocator@ULine@Text_Box@Zeni@@@0@@Z 004a7980 f i Title_State.obj
 0002:00026a00       ??$_Ptr_cat@PAULine@Text_Box@Zeni@@PAU123@@std@@YA?AU_Nonscalar_ptr_iterator_tag@0@AAPAULine@Text_Box@Zeni@@0@Z 004a7a00 f i Title_State.obj
 0002:00026a70       ??$_Destroy_range@V?$allocator@ULine@Text_Box@Zeni@@@std@@@std@@YAXPAULine@Text_Box@Zeni@@0AAV?$allocator@ULine@Text_Box@Zeni@@@0@U_Nonscalar_ptr_iterator_tag@0@@Z 004a7a70 f i Title_State.obj
 0002:00026ae0       ?destroy@?$allocator@ULine@Text_Box@Zeni@@@std@@QAEXPAULine@Text_Box@Zeni@@@Z 004a7ae0 f i Title_State.obj
 0002:00026b40       ??$_Destroy@ULine@Text_Box@Zeni@@@std@@YAXPAULine@Text_Box@Zeni@@@Z 004a7b40 f i Title_State.obj
 0002:00026b90       ??_GLine@Text_Box@Zeni@@QAEPAXI@Z 004a7b90 f i Title_State.obj
 0002:00026c00       ??1Line@Text_Box@Zeni@@QAE@XZ 004a7c00 f i Title_State.obj
 0002:00026cb0       ??1Word@Text_Box@Zeni@@QAE@XZ 004a7cb0 f i Title_State.obj
 0002:00026d60       ??1?$vector@HV?$allocator@H@std@@@std@@QAE@XZ 004a7d60 f i Title_State.obj
 0002:00026e00       ??1?$_Vector_val@HV?$allocator@H@std@@@std@@QAE@XZ 004a7e00 f i Title_State.obj
 0002:00026e50       ?_Tidy@?$vector@HV?$allocator@H@std@@@std@@IAEXXZ 004a7e50 f i Title_State.obj
 0002:00026f30       ??1?$_Container_base_aux_alloc_empty@V?$allocator@H@std@@@std@@IAE@XZ 004a7f30 f i Title_State.obj
 0002:00026f90       ?deallocate@?$allocator@H@std@@QAEXPAHI@Z 004a7f90 f i Title_State.obj
 0002:00026ff0       ?_Destroy@?$vector@HV?$allocator@H@std@@@std@@IAEXPAH0@Z 004a7ff0 f i Title_State.obj
 0002:00027060       ??$_Destroy_range@V?$allocator@H@std@@@std@@YAXPAH0AAV?$allocator@H@0@@Z 004a8060 f i Title_State.obj
 0002:000270e0       ??$_Ptr_cat@PAHPAH@std@@YA?AU_Scalar_ptr_iterator_tag@0@AAPAH0@Z 004a80e0 f i Title_State.obj
 0002:00027150       ??$_Destroy_range@V?$allocator@H@std@@@std@@YAXPAH0AAV?$allocator@H@0@U_Scalar_ptr_iterator_tag@0@@Z 004a8150 f i Title_State.obj
 0002:0002717e       _SDL_GetTicks              004a817e f   SDL_d:SDL_d.dll
 0002:00027184       _SDL_ShowCursor            004a8184 f   SDL_d:SDL_d.dll
 0002:0002718a       _SDL_WM_GrabInput          004a818a f   SDL_d:SDL_d.dll
 0002:00027190       _glDepthMask@4             004a8190 f   opengl32:OPENGL32.dll
 0002:00027196       _glDisable@4               004a8196 f   opengl32:OPENGL32.dll
 0002:0002719c       _glDepthFunc@4             004a819c f   opengl32:OPENGL32.dll
 0002:000271a2       _glEnable@4                004a81a2 f   opengl32:OPENGL32.dll
 0002:000271a8       _glLoadMatrixf@4           004a81a8 f   opengl32:OPENGL32.dll
 0002:000271ae       _glMatrixMode@4            004a81ae f   opengl32:OPENGL32.dll
 0002:000271b4       _glViewport@16             004a81b4 f   opengl32:OPENGL32.dll
 0002:000271ba       _alSourcePlay              004a81ba f   OpenAL32:OpenAL32.dll
 0002:000271c0       _alGetSourcei              004a81c0 f   OpenAL32:OpenAL32.dll
 0002:000271c6       _alSourcefv                004a81c6 f   OpenAL32:OpenAL32.dll
 0002:000271cc       _alSourcei                 004a81cc f   OpenAL32:OpenAL32.dll
 0002:000271d2       _alSourcef                 004a81d2 f   OpenAL32:OpenAL32.dll
 0002:000271d8       _alGetSourcef              004a81d8 f   OpenAL32:OpenAL32.dll
 0002:000271e0       ??0Camera@Zeni@@QAE@ABUPoint3f@1@ABUVector3f@1@1ABM22@Z 004a81e0 f   Zenilib:zenilib.obj
 0002:000272a0       ?adjust_yaw@Camera@Zeni@@QAEXABM@Z 004a82a0 f   Zenilib:zenilib.obj
 0002:000273e0       ??GVector3f@Zeni@@QBE?AU01@ABU01@@Z 004a83e0 f i Zenilib:zenilib.obj
 0002:00027490       ?adjust_pitch@Camera@Zeni@@QAEXABM@Z 004a8490 f   Zenilib:zenilib.obj
 0002:00027660       ?get_left@Camera@Zeni@@QBE?AUVector3f@2@XZ 004a8660 f i Zenilib:zenilib.obj
 0002:000276d0       ?adjust_roll@Camera@Zeni@@QAEXABM@Z 004a86d0 f   Zenilib:zenilib.obj
 0002:00027810       ?move_forward_xy@Camera@Zeni@@QAEXABM@Z 004a8810 f   Zenilib:zenilib.obj
 0002:000278f0       ??YZeni@@YAAAUPoint3f@0@AAU10@ABUVector3f@0@@Z 004a88f0 f i Zenilib:zenilib.obj
 0002:00027970       ?move_left_xy@Camera@Zeni@@QAEXABM@Z 004a8970 f   Zenilib:zenilib.obj
 0002:00027a70       ?turn_left_xy@Camera@Zeni@@QAEXABM@Z 004a8a70 f   Zenilib:zenilib.obj
 0002:00027c60       ??0Sphere@Zeni_Collision@@QAE@ABUPoint3f@Zeni@@ABM@Z 004a8c60 f   Zenilib:zenilib.obj
 0002:00027cd0       ?shortest_distance@Sphere@Zeni_Collision@@QBEMABV12@@Z 004a8cd0 f   Zenilib:zenilib.obj
 0002:00027d80       ??GZeni@@YA?AUVector3f@0@ABUPoint3f@0@0@Z 004a8d80 f i Zenilib:zenilib.obj
 0002:00027e30       ?magnitude@Vector3f@Zeni@@QBEMXZ 004a8e30 f i Zenilib:zenilib.obj
 0002:00027ef0       ?pow@@YAMMH@Z              004a8ef0 f i Zenilib:zenilib.obj
 0002:00027f50       ?unpoof@Zeni_Collision@@YAMABM0@Z 004a8f50 f i Zenilib:zenilib.obj
 0002:00027fd0       ?shortest_distance@Sphere@Zeni_Collision@@QBEMABUPoint3f@Zeni@@@Z 004a8fd0 f   Zenilib:zenilib.obj
 0002:00028060       ??0Plane@Zeni_Collision@@QAE@ABUPoint3f@Zeni@@ABUVector3f@3@@Z 004a9060 f   Zenilib:zenilib.obj
 0002:000280e0       ?shortest_distance@Plane@Zeni_Collision@@QBEMABV12@@Z 004a90e0 f   Zenilib:zenilib.obj
 0002:000281c0       ?shortest_distance@Plane@Zeni_Collision@@QBEMABUPoint3f@Zeni@@@Z 004a91c0 f   Zenilib:zenilib.obj
 0002:00028250       ?shortest_distance@Plane@Zeni_Collision@@QBEMABVSphere@2@@Z 004a9250 f   Zenilib:zenilib.obj
 0002:000282e0       ?get_center@Sphere@Zeni_Collision@@QBEABUPoint3f@Zeni@@XZ 004a92e0 f i Zenilib:zenilib.obj
 0002:00028320       ?get_radius@Sphere@Zeni_Collision@@QBEABMXZ 004a9320 f i Zenilib:zenilib.obj
 0002:00028360       ??0Line@Zeni_Collision@@QAE@ABUPoint3f@Zeni@@0@Z 004a9360 f   Zenilib:zenilib.obj
 0002:00028430       ??0Line@Zeni_Collision@@QAE@ABUPoint3f@Zeni@@ABUVector3f@3@@Z 004a9430 f   Zenilib:zenilib.obj
 0002:000284f0       ?shortest_distance@Line@Zeni_Collision@@QBEMABUPoint3f@Zeni@@@Z 004a94f0 f   Zenilib:zenilib.obj
 0002:00028560       ?shortest_distance@Line@Zeni_Collision@@QBEMABVSphere@2@@Z 004a9560 f   Zenilib:zenilib.obj
 0002:000285f0       ?shortest_distance@Line@Zeni_Collision@@QBEMABVPlane@2@@Z 004a95f0 f   Zenilib:zenilib.obj
 0002:00028660       ?shortest_distance@Line@Zeni_Collision@@QBEMABV12@@Z 004a9660 f   Zenilib:zenilib.obj
 0002:000286d0       ?shortest_distance@Line@Zeni_Collision@@QBEMABVLine_Segment@2@@Z 004a96d0 f   Zenilib:zenilib.obj
 0002:00028740       ?shortest_distance@Line@Zeni_Collision@@QBEMABVParallelepiped@2@@Z 004a9740 f   Zenilib:zenilib.obj
 0002:000287b0       ??0Ray@Zeni_Collision@@QAE@ABUPoint3f@Zeni@@0@Z 004a97b0 f   Zenilib:zenilib.obj
 0002:00028880       ??0Ray@Zeni_Collision@@QAE@ABUPoint3f@Zeni@@ABUVector3f@3@@Z 004a9880 f   Zenilib:zenilib.obj
 0002:00028940       ?nearest_point@Ray@Zeni_Collision@@QBE?AU?$pair@MM@std@@ABUPoint3f@Zeni@@@Z 004a9940 f   Zenilib:zenilib.obj
 0002:000289b0       ?nearest_point@Ray@Zeni_Collision@@QBE?AU?$pair@MM@std@@ABVSphere@2@@Z 004a99b0 f   Zenilib:zenilib.obj
 0002:00028a40       ?unpoof@Zeni_Collision@@YA?AU?$pair@MM@std@@ABU23@ABM@Z 004a9a40 f i Zenilib:zenilib.obj
 0002:00028af0       ?nearest_point@Ray@Zeni_Collision@@QBE?AU?$pair@MM@std@@ABVPlane@2@@Z 004a9af0 f   Zenilib:zenilib.obj
 0002:00028b60       ?nearest_point@Ray@Zeni_Collision@@QBE?AU?$pair@MM@std@@ABVLine@2@@Z 004a9b60 f   Zenilib:zenilib.obj
 0002:00028bd0       ?nearest_point@Ray@Zeni_Collision@@QBE?AU?$pair@MM@std@@ABV12@@Z 004a9bd0 f   Zenilib:zenilib.obj
 0002:00028c40       ?nearest_point@Ray@Zeni_Collision@@QBE?AU?$pair@MM@std@@ABVLine_Segment@2@@Z 004a9c40 f   Zenilib:zenilib.obj
 0002:00028cb0       ?nearest_point@Ray@Zeni_Collision@@QBE?AU?$pair@MM@std@@ABVParallelepiped@2@@Z 004a9cb0 f   Zenilib:zenilib.obj
 0002:00028d20       ??0Line_Segment@Zeni_Collision@@QAE@ABUPoint3f@Zeni@@0@Z 004a9d20 f   Zenilib:zenilib.obj
 0002:00028df0       ?nearest_point@Line_Segment@Zeni_Collision@@QBE?AU?$pair@MM@std@@ABUPoint3f@Zeni@@@Z 004a9df0 f   Zenilib:zenilib.obj
 0002:00028e60       ?nearest_point@Line_Segment@Zeni_Collision@@QBE?AU?$pair@MM@std@@ABVSphere@2@@Z 004a9e60 f   Zenilib:zenilib.obj
 0002:00028ef0       ?nearest_point@Line_Segment@Zeni_Collision@@QBE?AU?$pair@MM@std@@ABVPlane@2@@Z 004a9ef0 f   Zenilib:zenilib.obj
 0002:00028f60       ?nearest_point@Line_Segment@Zeni_Collision@@QBE?AU?$pair@MM@std@@ABVLine@2@@Z 004a9f60 f   Zenilib:zenilib.obj
 0002:00028fd0       ?nearest_point@Line_Segment@Zeni_Collision@@QBE?AU?$pair@MM@std@@ABVRay@2@@Z 004a9fd0 f   Zenilib:zenilib.obj
 0002:00029040       ?nearest_point@Line_Segment@Zeni_Collision@@QBE?AU?$pair@MM@std@@ABV12@@Z 004aa040 f   Zenilib:zenilib.obj
 0002:000290b0       ?nearest_point@Line_Segment@Zeni_Collision@@QBE?AU?$pair@MM@std@@ABVParallelepiped@2@@Z 004aa0b0 f   Zenilib:zenilib.obj
 0002:00029120       ??0Infinite_Cylinder@Zeni_Collision@@QAE@ABUPoint3f@Zeni@@0ABM@Z 004aa120 f   Zenilib:zenilib.obj
 0002:00029190       ??0Infinite_Cylinder@Zeni_Collision@@QAE@ABUPoint3f@Zeni@@ABUVector3f@3@ABM@Z 004aa190 f   Zenilib:zenilib.obj
 0002:00029200       ?shortest_distance@Infinite_Cylinder@Zeni_Collision@@QBEMABUPoint3f@Zeni@@@Z 004aa200 f   Zenilib:zenilib.obj
 0002:00029280       ?shortest_distance@Infinite_Cylinder@Zeni_Collision@@QBEMABVSphere@2@@Z 004aa280 f   Zenilib:zenilib.obj
 0002:00029300       ?shortest_distance@Infinite_Cylinder@Zeni_Collision@@QBEMABVPlane@2@@Z 004aa300 f   Zenilib:zenilib.obj
 0002:00029380       ?shortest_distance@Infinite_Cylinder@Zeni_Collision@@QBEMABV12@@Z 004aa380 f   Zenilib:zenilib.obj
 0002:00029410       ?shortest_distance@Infinite_Cylinder@Zeni_Collision@@QBEMABVLine@2@@Z 004aa410 f   Zenilib:zenilib.obj
 0002:00029490       ?shortest_distance@Infinite_Cylinder@Zeni_Collision@@QBEMABVRay@2@@Z 004aa490 f   Zenilib:zenilib.obj
 0002:00029510       ?shortest_distance@Line@Zeni_Collision@@QBEMABVRay@2@@Z 004aa510 f i Zenilib:zenilib.obj
 0002:00029570       ?shortest_distance@Ray@Zeni_Collision@@QBEMABVLine@2@@Z 004aa570 f i Zenilib:zenilib.obj
 0002:000295e0       ?shortest_distance@Infinite_Cylinder@Zeni_Collision@@QBEMABVLine_Segment@2@@Z 004aa5e0 f   Zenilib:zenilib.obj
 0002:00029660       ??0Capsule@Zeni_Collision@@QAE@ABUPoint3f@Zeni@@0ABM@Z 004aa660 f   Zenilib:zenilib.obj
 0002:000296d0       ?nearest_point@Capsule@Zeni_Collision@@QBE?AU?$pair@MM@std@@ABUPoint3f@Zeni@@@Z 004aa6d0 f   Zenilib:zenilib.obj
 0002:00029750       ?nearest_point@Capsule@Zeni_Collision@@QBE?AU?$pair@MM@std@@ABVSphere@2@@Z 004aa750 f   Zenilib:zenilib.obj
 0002:000297d0       ?nearest_point@Capsule@Zeni_Collision@@QBE?AU?$pair@MM@std@@ABVPlane@2@@Z 004aa7d0 f   Zenilib:zenilib.obj
 0002:00029850       ?nearest_point@Capsule@Zeni_Collision@@QBE?AU?$pair@MM@std@@ABVLine@2@@Z 004aa850 f   Zenilib:zenilib.obj
 0002:000298d0       ?nearest_point@Capsule@Zeni_Collision@@QBE?AU?$pair@MM@std@@ABVRay@2@@Z 004aa8d0 f   Zenilib:zenilib.obj
 0002:00029950       ?nearest_point@Capsule@Zeni_Collision@@QBE?AU?$pair@MM@std@@ABVLine_Segment@2@@Z 004aa950 f   Zenilib:zenilib.obj
 0002:000299d0       ?nearest_point@Capsule@Zeni_Collision@@QBE?AU?$pair@MM@std@@ABVInfinite_Cylinder@2@@Z 004aa9d0 f   Zenilib:zenilib.obj
 0002:00029a70       ?get_radius@Infinite_Cylinder@Zeni_Collision@@QBEABMXZ 004aaa70 f i Zenilib:zenilib.obj
 0002:00029ab0       ?nearest_point@Capsule@Zeni_Collision@@QBE?AU?$pair@MM@std@@ABV12@@Z 004aaab0 f   Zenilib:zenilib.obj
 0002:00029b50       ?nearest_point@Capsule@Zeni_Collision@@QBE?AU?$pair@MM@std@@ABVParallelepiped@2@@Z 004aab50 f   Zenilib:zenilib.obj
 0002:00029bd0       ??0Parallelepiped@Zeni_Collision@@QAE@ABUPoint3f@Zeni@@ABUVector3f@3@11@Z 004aabd0 f   Zenilib:zenilib.obj
 0002:0002a0e0       ??HVector3f@Zeni@@QBE?AU01@ABU01@@Z 004ab0e0 f i Zenilib:zenilib.obj
 0002:0002a190       ?absolute_float_unclamp@Zeni_Collision@@YAXAAMABM@Z 004ab190 f i Zenilib:zenilib.obj
 0002:0002a210       ?shortest_distance@Parallelepiped@Zeni_Collision@@QBEMABV12@@Z 004ab210 f   Zenilib:zenilib.obj
 0002:0002ac00       ??AVector3f@Zeni@@QBE?BMABH@Z 004abc00 f i Zenilib:zenilib.obj
 0002:0002aca0       ?shortest_distance@Parallelepiped@Zeni_Collision@@QBEMABUPoint3f@Zeni@@@Z 004abca0 f   Zenilib:zenilib.obj
 0002:0002aec0       ?shortest_distance@Parallelepiped@Zeni_Collision@@QBEMABVPlane@2@@Z 004abec0 f   Zenilib:zenilib.obj
 0002:0002b270       ?get_point@Plane@Zeni_Collision@@QBEABUPoint3f@Zeni@@XZ 004ac270 f i Zenilib:zenilib.obj
 0002:0002b2b0       ?get_normal@Plane@Zeni_Collision@@QBEABUVector3f@Zeni@@XZ 004ac2b0 f i Zenilib:zenilib.obj
 0002:0002b2f0       ?shortest_distance@Parallelepiped@Zeni_Collision@@QBEMABVSphere@2@@Z 004ac2f0 f   Zenilib:zenilib.obj
 0002:0002b380       ?shortest_distance@Parallelepiped@Zeni_Collision@@QBEMABVInfinite_Cylinder@2@@Z 004ac380 f   Zenilib:zenilib.obj
 0002:0002b400       ?shortest_distance@Parallelepiped@Zeni_Collision@@QBEMABVLine@2@@Z 004ac400 f i Zenilib:zenilib.obj
 0002:0002b460       ??0Color@Zeni@@QAE@XZ      004ac460 f   Zenilib:zenilib.obj
 0002:0002b4c0       ??0Color@Zeni@@QAE@ABM000@Z 004ac4c0 f   Zenilib:zenilib.obj
 0002:0002b530       ??0Color@Zeni@@QAE@ABK@Z   004ac530 f   Zenilib:zenilib.obj
 0002:0002b630       ?interpolate_to@Color@Zeni@@QBE?AV12@ABMABV12@@Z 004ac630 f   Zenilib:zenilib.obj
 0002:0002b740       ??MColor@Zeni@@QBE_NABV01@@Z 004ac740 f   Zenilib:zenilib.obj
 0002:0002b840       ??8Color@Zeni@@QBE_NABV01@@Z 004ac840 f   Zenilib:zenilib.obj
 0002:0002b900       ??0Colors@Zeni@@AAE@XZ     004ac900 f   Zenilib:zenilib.obj
 0002:0002b9e0       ??1?$hash_map@V?$basic_string@DU?$char_traits@D@std@@V?$allocator@D@2@@std@@KV?$hash_compare@V?$basic_string@DU?$char_traits@D@std@@V?$allocator@D@2@@std@@U?$less@V?$basic_string@DU?$char_traits@D@std@@V?$allocator@D@2@@std@@@2@@stdext@@V?$allocator@U?$pair@$$CBV?$basic_string@DU?$char_traits@D@std@@V?$allocator@D@2@@std@@K@std@@@2@@stdext@@QAE@XZ 004ac9e0 f i Zenilib:zenilib.obj
 0002:0002ba30       ??1?$hash_map@KVColor@Zeni@@V?$hash_compare@KU?$less@K@std@@@stdext@@V?$allocator@U?$pair@$$CBKVColor@Zeni@@@std@@@std@@@stdext@@QAE@XZ 004aca30 f i Zenilib:zenilib.obj
 0002:0002ba80       ?get_reference@Colors@Zeni@@SAAAV12@XZ 004aca80 f   Zenilib:zenilib.obj
 0002:0002bb50       ?reload@Colors@Zeni@@QAEXABV?$basic_string@DU?$char_traits@D@std@@V?$allocator@D@2@@std@@@Z 004acb50 f   Zenilib:zenilib.obj
 0002:0002bbe0       ?get_color_id@Colors@Zeni@@QBEIABV?$basic_string@DU?$char_traits@D@std@@V?$allocator@D@2@@std@@@Z 004acbe0 f   Zenilib:zenilib.obj
 0002:0002bdf0       ??0Color_Not_Found@Zeni@@QAE@ABV?$basic_string@DU?$char_traits@D@std@@V?$allocator@D@2@@std@@@Z 004acdf0 f i Zenilib:zenilib.obj
 0002:0002bf60       ??1?$_Const_iterator@$00@?$list@U?$pair@$$CBV?$basic_string@DU?$char_traits@D@std@@V?$allocator@D@2@@std@@K@std@@V?$allocator@U?$pair@$$CBV?$basic_string@DU?$char_traits@D@std@@V?$allocator@D@2@@std@@K@std@@@2@@std@@QAE@XZ 004acf60 f i Zenilib:zenilib.obj
 0002:0002bfb0       ??1Color_Not_Found@Zeni@@QAE@XZ 004acfb0 f i Zenilib:zenilib.obj
 0002:0002c000       ??0Color_Not_Found@Zeni@@QAE@ABU01@@Z 004ad000 f i Zenilib:zenilib.obj
 0002:0002c060       ??1?$_Bidit@U?$pair@$$CBV?$basic_string@DU?$char_traits@D@std@@V?$allocator@D@2@@std@@K@std@@HPBU12@ABU12@@std@@QAE@XZ 004ad060 f i Zenilib:zenilib.obj
 0002:0002c0b0       ??1?$_Iterator_with_base@Ubidirectional_iterator_tag@std@@U?$pair@$$CBV?$basic_string@DU?$char_traits@D@std@@V?$allocator@D@2@@std@@K@2@HPBU32@ABU32@V_Iterator_base@2@@std@@QAE@XZ 004ad0b0 f i Zenilib:zenilib.obj
 0002:0002c100       ?get_color@Colors@Zeni@@QBE?AVColor@2@ABV?$basic_string@DU?$char_traits@D@std@@V?$allocator@D@2@@std@@@Z 004ad100 f   Zenilib:zenilib.obj
 0002:0002c180       ?get_color@Colors@Zeni@@QBE?AVColor@2@ABI@Z 004ad180 f   Zenilib:zenilib.obj
 0002:0002c3d0       ??1?$_Const_iterator@$00@?$list@U?$pair@$$CBKVColor@Zeni@@@std@@V?$allocator@U?$pair@$$CBKVColor@Zeni@@@std@@@2@@std@@QAE@XZ 004ad3d0 f i Zenilib:zenilib.obj
 0002:0002c420       ??1?$_Bidit@U?$pair@$$CBKVColor@Zeni@@@std@@HPBU12@ABU12@@std@@QAE@XZ 004ad420 f i Zenilib:zenilib.obj
 0002:0002c470       ??1?$_Iterator_with_base@Ubidirectional_iterator_tag@std@@U?$pair@$$CBKVColor@Zeni@@@2@HPBU32@ABU32@V_Iterator_base@2@@std@@QAE@XZ 004ad470 f i Zenilib:zenilib.obj
 0002:0002c4c0       ?set_color@Colors@Zeni@@QAEIABV?$basic_string@DU?$char_traits@D@std@@V?$allocator@D@2@@std@@ABVColor@2@@Z 004ad4c0 f   Zenilib:zenilib.obj
 0002:0002c580       ?assign@Resource@Zeni@@QAEKXZ 004ad580 f i Zenilib:zenilib.obj
 0002:0002c6d0       ??0Resource_Init_Failure@Zeni@@QAE@XZ 004ad6d0 f i Zenilib:zenilib.obj
 0002:0002c7c0       ??1Resource_Init_Failure@Zeni@@QAE@XZ 004ad7c0 f i Zenilib:zenilib.obj
 0002:0002c810       ??0Resource_Init_Failure@Zeni@@QAE@ABU01@@Z 004ad810 f i Zenilib:zenilib.obj
 0002:0002c870       ?clear_color@Colors@Zeni@@QAEXABV?$basic_string@DU?$char_traits@D@std@@V?$allocator@D@2@@std@@@Z 004ad870 f   Zenilib:zenilib.obj
 0002:0002ca50       ??1?$_Iterator@$00@?$list@U?$pair@$$CBV?$basic_string@DU?$char_traits@D@std@@V?$allocator@D@2@@std@@K@std@@V?$allocator@U?$pair@$$CBV?$basic_string@DU?$char_traits@D@std@@V?$allocator@D@2@@std@@K@std@@@2@@std@@QAE@XZ 004ada50 f i Zenilib:zenilib.obj
 0002:0002caa0       ??0?$_Const_iterator@$00@?$list@U?$pair@$$CBV?$basic_string@DU?$char_traits@D@std@@V?$allocator@D@2@@std@@K@std@@V?$allocator@U?$pair@$$CBV?$basic_string@DU?$char_traits@D@std@@V?$allocator@D@2@@std@@K@std@@@2@@std@@QAE@ABV012@@Z 004adaa0 f i Zenilib:zenilib.obj
 0002:0002cb10       ??0?$_Bidit@U?$pair@$$CBV?$basic_string@DU?$char_traits@D@std@@V?$allocator@D@2@@std@@K@std@@HPBU12@ABU12@@std@@QAE@ABU01@@Z 004adb10 f i Zenilib:zenilib.obj
 0002:0002cb70       ??0?$_Iterator_with_base@Ubidirectional_iterator_tag@std@@U?$pair@$$CBV?$basic_string@DU?$char_traits@D@std@@V?$allocator@D@2@@std@@K@2@HPBU32@ABU32@V_Iterator_base@2@@std@@QAE@ABU01@@Z 004adb70 f i Zenilib:zenilib.obj
 0002:0002cbd0       ?init@Colors@Zeni@@AAEXXZ  004adbd0 f   Zenilib:zenilib.obj
 0002:0002d0b0       ?hex@std@@YAAAVios_base@1@AAV21@@Z 004ae0b0 f i Zenilib:zenilib.obj
 0002:0002d120       ??0Colors_Init_Failure@Zeni@@QAE@XZ 004ae120 f i Zenilib:zenilib.obj
 0002:0002d210       ??1Colors_Init_Failure@Zeni@@QAE@XZ 004ae210 f i Zenilib:zenilib.obj
 0002:0002d260       ??0Colors_Init_Failure@Zeni@@QAE@ABU01@@Z 004ae260 f i Zenilib:zenilib.obj
 0002:0002d2c0       ?interpolate_to@Point2i@Zeni@@QBE?AU12@ABMABU12@@Z 004ae2c0 f   Zenilib:zenilib.obj
 0002:0002d390       ?interpolate_to@Point2f@Zeni@@QBE?AU12@ABMABU12@@Z 004ae390 f   Zenilib:zenilib.obj
 0002:0002d450       ?interpolate_to@Point3i@Zeni@@QBE?AU12@ABMABU12@@Z 004ae450 f   Zenilib:zenilib.obj
 0002:0002d550       ??0Point3i@Zeni@@QAE@ABH00@Z 004ae550 f i Zenilib:zenilib.obj
 0002:0002d5c0       ?interpolate_to@Point3f@Zeni@@QBE?AU12@ABMABU12@@Z 004ae5c0 f   Zenilib:zenilib.obj
 0002:0002d6b0       ??0Core@Zeni@@AAE@XZ       004ae6b0 f   Zenilib:zenilib.obj
 0002:0002d9d0       ??0Core_Init_Failure@Zeni@@QAE@XZ 004ae9d0 f i Zenilib:zenilib.obj
 0002:0002dac0       ??1Core_Init_Failure@Zeni@@QAE@XZ 004aeac0 f i Zenilib:zenilib.obj
 0002:0002db10       ??0Core_Init_Failure@Zeni@@QAE@ABU01@@Z 004aeb10 f i Zenilib:zenilib.obj
 0002:0002db70       ??1Core@Zeni@@AAE@XZ       004aeb70 f   Zenilib:zenilib.obj
 0002:0002dce0       ?get_reference@Core@Zeni@@SAAAV12@XZ 004aece0 f   Zenilib:zenilib.obj
 0002:0002ddb0       ?render_image@Zeni@@YAXABV?$basic_string@DU?$char_traits@D@std@@V?$allocator@D@2@@std@@ABUPoint2f@1@1AB_NABVColor@1@@Z 004aedb0 f   Zenilib:zenilib.obj
 0002:0002e260       ?set_ambient@Material@Zeni@@QAEXABVColor@2@@Z 004af260 f i Zenilib:zenilib.obj
 0002:0002e2c0       ?set_diffuse@Material@Zeni@@QAEXABVColor@2@@Z 004af2c0 f i Zenilib:zenilib.obj
 0002:0002e320       ?render_image@Zeni@@YAXABV?$basic_string@DU?$char_traits@D@std@@V?$allocator@D@2@@std@@ABUPoint2f@1@1ABM21AB_NABVColor@1@@Z 004af320 f   Zenilib:zenilib.obj
 0002:0002eb00       ??0Point2f@Zeni@@QAE@ABUPoint3f@1@@Z 004afb00 f i Zenilib:zenilib.obj
 0002:0002eb60       ??0Point3f@Zeni@@QAE@ABUPoint2f@1@@Z 004afb60 f i Zenilib:zenilib.obj
 0002:0002ebc0       ?is_sprite@Zeni@@YA_NABV?$basic_string@DU?$char_traits@D@std@@V?$allocator@D@2@@std@@@Z 004afbc0 f   Zenilib:zenilib.obj
 0002:0002ec40       ?sprite_num_frames@Zeni@@YAHABV?$basic_string@DU?$char_traits@D@std@@V?$allocator@D@2@@std@@@Z 004afc40 f   Zenilib:zenilib.obj
 0002:0002ecc0       ?set_sprite_frame@Zeni@@YAXABV?$basic_string@DU?$char_traits@D@std@@V?$allocator@D@2@@std@@ABH@Z 004afcc0 f   Zenilib:zenilib.obj
 0002:0002ed40       ?increment_sprite_frame@Zeni@@YAXABV?$basic_string@DU?$char_traits@D@std@@V?$allocator@D@2@@std@@@Z 004afd40 f   Zenilib:zenilib.obj
 0002:0002ee80       ??0Sprite_Function_Misapplied@Zeni@@QAE@XZ 004afe80 f i Zenilib:zenilib.obj
 0002:0002ef70       ??1Sprite_Function_Misapplied@Zeni@@QAE@XZ 004aff70 f i Zenilib:zenilib.obj
 0002:0002efc0       ??0Sprite_Function_Misapplied@Zeni@@QAE@ABU01@@Z 004affc0 f i Zenilib:zenilib.obj
 0002:0002f020       ?decrement_sprite_frame@Zeni@@YAXABV?$basic_string@DU?$char_traits@D@std@@V?$allocator@D@2@@std@@@Z 004b0020 f   Zenilib:zenilib.obj
 0002:0002f150       ??0Fog@Zeni@@QAE@ABVColor@1@ABMABW4FOG_TYPE@1@11@Z 004b0150 f   Zenilib:zenilib.obj
 0002:0002f1f0       ?set@Fog@Zeni@@QBEXAAVVideo_GL@2@@Z 004b01f0 f   Zenilib:zenilib.obj
 0002:0002f360       ?set@Fog@Zeni@@QBEXAAVVideo_DX9@2@@Z 004b0360 f   Zenilib:zenilib.obj
 0002:0002f560       ?get_argb@Color@Zeni@@QBEIXZ 004b0560 f i Zenilib:zenilib.obj
 0002:0002f600       ?r_ub@Color@Zeni@@QBEEXZ   004b0600 f i Zenilib:zenilib.obj
 0002:0002f680       ?g_ub@Color@Zeni@@QBEEXZ   004b0680 f i Zenilib:zenilib.obj
 0002:0002f700       ?b_ub@Color@Zeni@@QBEEXZ   004b0700 f i Zenilib:zenilib.obj
 0002:0002f780       ?a_ub@Color@Zeni@@QBEEXZ   004b0780 f i Zenilib:zenilib.obj
 0002:0002f800       ?get_d3d_device@Video_DX9@Zeni@@QAEAAPAUIDirect3DDevice9@@XZ 004b0800 f i Zenilib:zenilib.obj
 0002:0002f840       ??0Font@Zeni@@QAE@XZ       004b0840 f   Zenilib:zenilib.obj
 0002:0002f8f0       ??_EFont@Zeni@@UAEPAXI@Z   004b08f0 f i Zenilib:zenilib.obj
 0002:0002f8f0       ??_GFont@Zeni@@UAEPAXI@Z   004b08f0 f i Zenilib:zenilib.obj
 0002:0002f960       ??1Font@Zeni@@UAE@XZ       004b0960 f i Zenilib:zenilib.obj
 0002:0002f9d0       ??0Font@Zeni@@QAE@AB_N0ABHABV?$basic_string@DU?$char_traits@D@std@@V?$allocator@D@2@@std@@@Z 004b09d0 f   Zenilib:zenilib.obj
 0002:0002fa70       ??0Glyph@Font_GL@Zeni@@QAE@XZ 004b0a70 f   Zenilib:zenilib.obj
 0002:0002fb00       ??0Glyph@Font_GL@Zeni@@QAE@PAU_TTF_Font@@ABDPAUSDL_Surface@@2ABUSDL_Rect@@ABH4@Z 004b0b00 f   Zenilib:zenilib.obj
 0002:0002fd80       ?render@Glyph@Font_GL@Zeni@@QBEXABH0@Z 004b0d80 f   Zenilib:zenilib.obj
 0002:00030190       ??0Render_Wrapper@Zeni@@QAE@XZ 004b1190 f i Zenilib:zenilib.obj
 0002:000301e0       ?prerender@Render_Wrapper@Zeni@@UBEXXZ 004b11e0 f i Zenilib:zenilib.obj
 0002:00030220       ?postrender@Render_Wrapper@Zeni@@UBEXXZ 004b1220 f i Zenilib:zenilib.obj
 0002:00030260       ??_ERender_Wrapper@Zeni@@UAEPAXI@Z 004b1260 f i Zenilib:zenilib.obj
 0002:00030260       ??_GRender_Wrapper@Zeni@@UAEPAXI@Z 004b1260 f i Zenilib:zenilib.obj
 0002:000302d0       ??1Render_Wrapper@Zeni@@UAE@XZ 004b12d0 f i Zenilib:zenilib.obj
 0002:00030310       ??0Font_GL@Zeni@@QAE@XZ    004b1310 f   Zenilib:zenilib.obj
 0002:000303a0       ??_GFont_GL@Zeni@@UAEPAXI@Z 004b13a0 f i Zenilib:zenilib.obj
 0002:000303a0       ??_EFont_GL@Zeni@@UAEPAXI@Z 004b13a0 f i Zenilib:zenilib.obj
 0002:00030410       ??0Font_GL@Zeni@@QAE@ABV?$basic_string@DU?$char_traits@D@std@@V?$allocator@D@2@@std@@AB_N1ABH@Z 004b1410 f   Zenilib:zenilib.obj
 0002:00030dc0       ?ceil@@YAMM@Z              004b1dc0 f i Zenilib:zenilib.obj
 0002:00030e20       _ceilf                     004b1e20 f i Zenilib:zenilib.obj
 0002:00030e90       ?log@@YAMM@Z               004b1e90 f i Zenilib:zenilib.obj
 0002:00030ef0       _logf                      004b1ef0 f i Zenilib:zenilib.obj
 0002:00030f60       ?pow@@YAMMM@Z              004b1f60 f i Zenilib:zenilib.obj
 0002:00030fc0       _powf                      004b1fc0 f i Zenilib:zenilib.obj
 0002:00031030       ??0Font_Init_Failure@Zeni@@QAE@XZ 004b2030 f i Zenilib:zenilib.obj
 0002:00031120       ??1Font_Init_Failure@Zeni@@QAE@XZ 004b2120 f i Zenilib:zenilib.obj
 0002:00031170       ??0Font_Init_Failure@Zeni@@QAE@ABU01@@Z 004b2170 f i Zenilib:zenilib.obj
 0002:000311d0       ??1Font_GL@Zeni@@UAE@XZ    004b21d0 f   Zenilib:zenilib.obj
 0002:00031280       ?get_text_width@Font_GL@Zeni@@UBEHABV?$basic_string@DU?$char_traits@D@std@@V?$allocator@D@2@@std@@@Z 004b2280 f   Zenilib:zenilib.obj
 0002:00031400       ?get_glyph_width@Glyph@Font_GL@Zeni@@QBEHXZ 004b2400 f i Zenilib:zenilib.obj
 0002:00031440       ?render_text@Font_GL@Zeni@@UBEXABV?$basic_string@DU?$char_traits@D@std@@V?$allocator@D@2@@std@@ABH1ABVColor@2@ABW4JUSTIFY@2@@Z 004b2440 f   Zenilib:zenilib.obj
 0002:00031840       ?apply_texture@Texture@Zeni@@QBEXXZ 004b2840 f i Zenilib:zenilib.obj
 0002:000318f0       ?apply_texture_impl@Sprite@Zeni@@QBEXXZ 004b28f0 f i Zenilib:zenilib.obj
 0002:00031ba0       ??0Frame_Out_of_Range@Zeni@@QAE@XZ 004b2ba0 f i Zenilib:zenilib.obj
 0002:00031c90       ??0Sprite_Containing_Sprite@Zeni@@QAE@XZ 004b2c90 f i Zenilib:zenilib.obj
 0002:00031d80       ??1Sprite_Containing_Sprite@Zeni@@QAE@XZ 004b2d80 f i Zenilib:zenilib.obj
 0002:00031dd0       ??1Frame_Out_of_Range@Zeni@@QAE@XZ 004b2dd0 f i Zenilib:zenilib.obj
 0002:00031e20       ??0Sprite_Containing_Sprite@Zeni@@QAE@ABU01@@Z 004b2e20 f i Zenilib:zenilib.obj
 0002:00031e80       ??0Frame_Out_of_Range@Zeni@@QAE@ABU01@@Z 004b2e80 f i Zenilib:zenilib.obj
 0002:00031ee0       ?apply_texture_impl@Texture_GL@Zeni@@QBEXXZ 004b2ee0 f i Zenilib:zenilib.obj
 0002:00031fa0       ?apply_texture_impl@Texture_DX9@Zeni@@QBEXXZ 004b2fa0 f i Zenilib:zenilib.obj
 0002:000321e0       ?get_lighting@Video@Zeni@@SAAB_NXZ 004b31e0 f i Zenilib:zenilib.obj
 0002:00032220       ?get_color@Video@Zeni@@QBEABVColor@2@XZ 004b3220 f i Zenilib:zenilib.obj
 0002:00032260       ?set_color@Video@Zeni@@QAEXABVColor@2@@Z 004b3260 f i Zenilib:zenilib.obj
 0002:00032350       ?set_color_impl@Video_DX9@Zeni@@QAEXABVColor@2@@Z 004b3350 f i Zenilib:zenilib.obj
 0002:000323e0       ?set_color_impl@Video_GL@Zeni@@QAEXABVColor@2@@Z 004b33e0 f i Zenilib:zenilib.obj
 0002:00032480       ?r@Color@Zeni@@QBEABMXZ    004b3480 f i Zenilib:zenilib.obj
 0002:000324c0       ?g@Color@Zeni@@QBEABMXZ    004b34c0 f i Zenilib:zenilib.obj
 0002:00032500       ?b@Color@Zeni@@QBEABMXZ    004b3500 f i Zenilib:zenilib.obj
 0002:00032540       ?a@Color@Zeni@@QBEABMXZ    004b3540 f i Zenilib:zenilib.obj
 0002:00032580       ??0Font_DX9@Zeni@@QAE@XZ   004b3580 f   Zenilib:zenilib.obj
 0002:000325f0       ??_EFont_DX9@Zeni@@UAEPAXI@Z 004b35f0 f i Zenilib:zenilib.obj
 0002:000325f0       ??_GFont_DX9@Zeni@@UAEPAXI@Z 004b35f0 f i Zenilib:zenilib.obj
 0002:00032660       ??0Font_DX9@Zeni@@QAE@ABV?$basic_string@DU?$char_traits@D@std@@V?$allocator@D@2@@std@@AB_N1ABH@Z 004b3660 f   Zenilib:zenilib.obj
 0002:00032820       ?is_bold@Font@Zeni@@QBE_NXZ 004b3820 f i Zenilib:zenilib.obj
 0002:00032860       ?get_font_name@Font@Zeni@@QBEABV?$basic_string@DU?$char_traits@D@std@@V?$allocator@D@2@@std@@XZ 004b3860 f i Zenilib:zenilib.obj
 0002:000328a0       ?is_italic@Font@Zeni@@QBE_NXZ 004b38a0 f i Zenilib:zenilib.obj
 0002:000328e0       ?get_text_height@Font@Zeni@@QBEHXZ 004b38e0 f i Zenilib:zenilib.obj
 0002:00032920       ??1Font_DX9@Zeni@@UAE@XZ   004b3920 f   Zenilib:zenilib.obj
 0002:00032a20       ?get_text_width@Font_DX9@Zeni@@UBEHABV?$basic_string@DU?$char_traits@D@std@@V?$allocator@D@2@@std@@@Z 004b3a20 f   Zenilib:zenilib.obj
 0002:00032b90       ?render_text@Font_DX9@Zeni@@UBEXABV?$basic_string@DU?$char_traits@D@std@@V?$allocator@D@2@@std@@ABH1ABVColor@2@ABW4JUSTIFY@2@@Z 004b3b90 f   Zenilib:zenilib.obj
 0002:00033090       ??0Fonts@Zeni@@AAE@XZ      004b4090 f   Zenilib:zenilib.obj
 0002:00033170       ??1?$hash_map@KPAVFont@Zeni@@V?$hash_compare@KU?$less@K@std@@@stdext@@V?$allocator@U?$pair@$$CBKPAVFont@Zeni@@@std@@@std@@@stdext@@QAE@XZ 004b4170 f i Zenilib:zenilib.obj
 0002:000331c0       ??1Fonts@Zeni@@AAE@XZ      004b41c0 f   Zenilib:zenilib.obj
 0002:000332a0       ?get_reference@Fonts@Zeni@@SAAAV12@XZ 004b42a0 f   Zenilib:zenilib.obj
 0002:00033370       ?get_font_id@Fonts@Zeni@@QBEKABV?$basic_string@DU?$char_traits@D@std@@V?$allocator@D@2@@std@@@Z 004b4370 f   Zenilib:zenilib.obj
 0002:00033580       ??0Font_Not_Found@Zeni@@QAE@ABV?$basic_string@DU?$char_traits@D@std@@V?$allocator@D@2@@std@@@Z 004b4580 f i Zenilib:zenilib.obj
 0002:000336f0       ??1Font_Not_Found@Zeni@@QAE@XZ 004b46f0 f i Zenilib:zenilib.obj
 0002:00033740       ??0Font_Not_Found@Zeni@@QAE@ABU01@@Z 004b4740 f i Zenilib:zenilib.obj
 0002:000337a0       ?get_font@Fonts@Zeni@@QBEAAVFont@2@ABV?$basic_string@DU?$char_traits@D@std@@V?$allocator@D@2@@std@@@Z 004b47a0 f   Zenilib:zenilib.obj
 0002:00033810       ?get_font@Fonts@Zeni@@QBEAAVFont@2@ABK@Z 004b4810 f   Zenilib:zenilib.obj
 0002:00033a30       ??1?$_Const_iterator@$00@?$list@U?$pair@$$CBKPAVFont@Zeni@@@std@@V?$allocator@U?$pair@$$CBKPAVFont@Zeni@@@std@@@2@@std@@QAE@XZ 004b4a30 f i Zenilib:zenilib.obj
 0002:00033a80       ??1?$_Bidit@U?$pair@$$CBKPAVFont@Zeni@@@std@@HPBU12@ABU12@@std@@QAE@XZ 004b4a80 f i Zenilib:zenilib.obj
 0002:00033ad0       ??1?$_Iterator_with_base@Ubidirectional_iterator_tag@std@@U?$pair@$$CBKPAVFont@Zeni@@@2@HPBU32@ABU32@V_Iterator_base@2@@std@@QAE@XZ 004b4ad0 f i Zenilib:zenilib.obj
 0002:00033b20       ?set_font@Fonts@Zeni@@QAEKABV?$basic_string@DU?$char_traits@D@std@@V?$allocator@D@2@@std@@QAVFont@2@@Z 004b4b20 f   Zenilib:zenilib.obj
 0002:00033e10       ??1?$_Iterator@$00@?$list@U?$pair@$$CBKPAVFont@Zeni@@@std@@V?$allocator@U?$pair@$$CBKPAVFont@Zeni@@@std@@@2@@std@@QAE@XZ 004b4e10 f i Zenilib:zenilib.obj
 0002:00033e60       ??0?$_Const_iterator@$00@?$list@U?$pair@$$CBKPAVFont@Zeni@@@std@@V?$allocator@U?$pair@$$CBKPAVFont@Zeni@@@std@@@2@@std@@QAE@ABV012@@Z 004b4e60 f i Zenilib:zenilib.obj
 0002:00033ed0       ??0?$_Bidit@U?$pair@$$CBKPAVFont@Zeni@@@std@@HPBU12@ABU12@@std@@QAE@ABU01@@Z 004b4ed0 f i Zenilib:zenilib.obj
 0002:00033f30       ??0?$_Iterator_with_base@Ubidirectional_iterator_tag@std@@U?$pair@$$CBKPAVFont@Zeni@@@2@HPBU32@ABU32@V_Iterator_base@2@@std@@QAE@ABU01@@Z 004b4f30 f i Zenilib:zenilib.obj
 0002:00033f90       ?clear_font@Fonts@Zeni@@QAEXABV?$basic_string@DU?$char_traits@D@std@@V?$allocator@D@2@@std@@@Z 004b4f90 f   Zenilib:zenilib.obj
 0002:00034170       ?reload@Fonts@Zeni@@QAEXABV?$basic_string@DU?$char_traits@D@std@@V?$allocator@D@2@@std@@@Z 004b5170 f   Zenilib:zenilib.obj
 0002:00034210       ?init@Fonts@Zeni@@AAEXXZ   004b5210 f   Zenilib:zenilib.obj
 0002:000348b0       ??0Fonts_Init_Failure@Zeni@@QAE@XZ 004b58b0 f i Zenilib:zenilib.obj
 0002:000349a0       ?create_Font@Video@Zeni@@QAEPAVFont@2@ABV?$basic_string@DU?$char_traits@D@std@@V?$allocator@D@2@@std@@AB_N1ABH@Z 004b59a0 f i Zenilib:zenilib.obj
 0002:00034a80       ?create_Font_impl@Video_DX9@Zeni@@QAEPAVFont@2@ABV?$basic_string@DU?$char_traits@D@std@@V?$allocator@D@2@@std@@AB_N1ABH@Z 004b5a80 f i Zenilib:zenilib.obj
 0002:00034b80       ?create_Font_impl@Video_GL@Zeni@@QAEPAVFont@2@ABV?$basic_string@DU?$char_traits@D@std@@V?$allocator@D@2@@std@@AB_N1ABH@Z 004b5b80 f i Zenilib:zenilib.obj
 0002:00034c80       ??1Fonts_Init_Failure@Zeni@@QAE@XZ 004b5c80 f i Zenilib:zenilib.obj
 0002:00034cd0       ??0Fonts_Init_Failure@Zeni@@QAE@ABU01@@Z 004b5cd0 f i Zenilib:zenilib.obj
 0002:00034d30       ?uninit@Fonts@Zeni@@AAEXXZ 004b5d30 f   Zenilib:zenilib.obj
 0002:00034f20       ?lose_resources@Fonts@Zeni@@QAEXXZ 004b5f20 f   Zenilib:zenilib.obj
 0002:00034f70       ??0Game@Zeni@@AAE@QBV?$vector@V?$basic_string@DU?$char_traits@D@std@@V?$allocator@D@2@@std@@V?$allocator@V?$basic_string@DU?$char_traits@D@std@@V?$allocator@D@2@@std@@@2@@std@@@Z 004b5f70 f   Zenilib:zenilib.obj
 0002:00035110       ?get_time@Timer@Zeni@@QAE?AVTime@2@XZ 004b6110 f i Zenilib:zenilib.obj
 0002:00035210       ?update@Timer@Zeni@@AAEXXZ 004b6210 f i Zenilib:zenilib.obj
 0002:00035270       ??1?$stack@VGamestate@Zeni@@V?$deque@VGamestate@Zeni@@V?$allocator@VGamestate@Zeni@@@std@@@std@@@std@@QAE@XZ 004b6270 f i Zenilib:zenilib.obj
 0002:000352c0       ?get_reference@Game@Zeni@@SAAAV12@QBV?$vector@V?$basic_string@DU?$char_traits@D@std@@V?$allocator@D@2@@std@@V?$allocator@V?$basic_string@DU?$char_traits@D@std@@V?$allocator@D@2@@std@@@2@@std@@@Z 004b62c0 f   Zenilib:zenilib.obj
 0002:00035390       ?run@Game@Zeni@@QAEXXZ     004b6390 f   Zenilib:zenilib.obj
 0002:00035470       ?on_event@Game@Zeni@@QAEXABTSDL_Event@@@Z 004b6470 f i Zenilib:zenilib.obj
 0002:000355a0       ?on_event@Gamestate@Zeni@@QAEXABTSDL_Event@@@Z 004b65a0 f i Zenilib:zenilib.obj
 0002:00035610       ?perform_logic@Game@Zeni@@QAEXXZ 004b6610 f i Zenilib:zenilib.obj
 0002:00035740       ?perform_logic@Gamestate@Zeni@@QAEXXZ 004b6740 f i Zenilib:zenilib.obj
 0002:000357b0       ?calculate_fps@Game@Zeni@@AAEXXZ 004b67b0 f   Zenilib:zenilib.obj
 0002:00035860       ?get_ticks_passed@Time@Zeni@@QBEHXZ 004b6860 f i Zenilib:zenilib.obj
 0002:000358c0       ?get_ticks@Timer@Zeni@@QAEHXZ 004b68c0 f i Zenilib:zenilib.obj
 0002:000359c0       ?on_event@Gamestate_Base@Zeni@@UAEXABTSDL_Event@@@Z 004b69c0 f   Zenilib:zenilib.obj
 0002:00035ca0       ?on_key@Gamestate_Base@Zeni@@MAEXABUSDL_KeyboardEvent@@@Z 004b6ca0 f   Zenilib:zenilib.obj
 0002:00035d80       ?on_mouse_motion@Gamestate_Base@Zeni@@MAEXABUSDL_MouseMotionEvent@@@Z 004b6d80 f   Zenilib:zenilib.obj
 0002:00035dc0       ?on_mouse_button@Gamestate_Base@Zeni@@MAEXABUSDL_MouseButtonEvent@@@Z 004b6dc0 f   Zenilib:zenilib.obj
 0002:00035e00       ?on_joy_axis@Gamestate_Base@Zeni@@MAEXABUSDL_JoyAxisEvent@@@Z 004b6e00 f   Zenilib:zenilib.obj
 0002:00035e40       ?on_joy_ball@Gamestate_Base@Zeni@@MAEXABUSDL_JoyBallEvent@@@Z 004b6e40 f   Zenilib:zenilib.obj
 0002:00035e80       ?on_joy_hat@Gamestate_Base@Zeni@@MAEXABUSDL_JoyHatEvent@@@Z 004b6e80 f   Zenilib:zenilib.obj
 0002:00035ec0       ?on_joy_button@Gamestate_Base@Zeni@@MAEXABUSDL_JoyButtonEvent@@@Z 004b6ec0 f   Zenilib:zenilib.obj
 0002:00035f00       ?on_quit@Gamestate_Base@Zeni@@MAEXABUSDL_QuitEvent@@@Z 004b6f00 f   Zenilib:zenilib.obj
 0002:00035f70       ?on_system_wm_event@Gamestate_Base@Zeni@@MAEXABUSDL_SysWMEvent@@@Z 004b6f70 f   Zenilib:zenilib.obj
 0002:00035fb0       ?on_active@Gamestate_Base@Zeni@@MAEXABUSDL_ActiveEvent@@@Z 004b6fb0 f   Zenilib:zenilib.obj
 0002:00035ff0       ?on_video_resize@Gamestate_Base@Zeni@@MAEXABUSDL_ResizeEvent@@@Z 004b6ff0 f   Zenilib:zenilib.obj
 0002:00036030       ?on_video_expose@Gamestate_Base@Zeni@@MAEXABUSDL_ExposeEvent@@@Z 004b7030 f   Zenilib:zenilib.obj
 0002:00036070       ?on_user_event@Gamestate_Base@Zeni@@MAEXABUSDL_UserEvent@@@Z 004b7070 f   Zenilib:zenilib.obj
 0002:000360b0       ?to_char@Gamestate_Base@Zeni@@SADABUSDL_keysym@@@Z 004b70b0 f   Zenilib:zenilib.obj
 0002:000369f0       ?to_sym@Gamestate_Base@Zeni@@SA?AW4SDLKey@@ABV?$basic_string@DU?$char_traits@D@std@@V?$allocator@D@2@@std@@@Z 004b79f0 f   Zenilib:zenilib.obj
 0002:00039bd0       ?to_text@Gamestate_Base@Zeni@@SA?AV?$basic_string@DU?$char_traits@D@std@@V?$allocator@D@2@@std@@ABW4SDLKey@@@Z 004babd0 f   Zenilib:zenilib.obj
 0002:0003d650       ??1Gamestate@Zeni@@QAE@XZ  004be650 f   Zenilib:zenilib.obj
 0002:0003d6b0       ??0Zeni_Input_ID@Zeni@@QAE@ABEABH1@Z 004be6b0 f   Zenilib:zenilib.obj
 0002:0003d720       ??MZeni_Input_ID@Zeni@@QBE_NABU01@@Z 004be720 f   Zenilib:zenilib.obj
 0002:0003d7e0       ??0Gamestate_II@Zeni@@QAE@XZ 004be7e0 f   Zenilib:zenilib.obj
 0002:0003d8c0       ??_GGamestate_II@Zeni@@UAEPAXI@Z 004be8c0 f i Zenilib:zenilib.obj
 0002:0003d8c0       ??_EGamestate_II@Zeni@@UAEPAXI@Z 004be8c0 f i Zenilib:zenilib.obj
 0002:0003d930       ??1?$map@UZeni_Input_ID@Zeni@@HU?$less@UZeni_Input_ID@Zeni@@@std@@V?$allocator@U?$pair@$$CBUZeni_Input_ID@Zeni@@H@std@@@4@@std@@QAE@XZ 004be930 f i Zenilib:zenilib.obj
 0002:0003d980       ??1Gamestate_II@Zeni@@UAE@XZ 004be980 f i Zenilib:zenilib.obj
 0002:0003da40       ??1?$map@HUZeni_Input_ID@Zeni@@U?$less@H@std@@V?$allocator@U?$pair@$$CBHUZeni_Input_ID@Zeni@@@std@@@4@@std@@QAE@XZ 004bea40 f i Zenilib:zenilib.obj
 0002:0003da90       ?on_event@Gamestate_II@Zeni@@UAEXABTSDL_Event@@@Z 004bea90 f   Zenilib:zenilib.obj
 0002:0003dfd0       ??1iterator@?$_Tree@V?$_Tmap_traits@UZeni_Input_ID@Zeni@@HU?$less@UZeni_Input_ID@Zeni@@@std@@V?$allocator@U?$pair@$$CBUZeni_Input_ID@Zeni@@H@std@@@4@$0A@@std@@@std@@QAE@XZ 004befd0 f i Zenilib:zenilib.obj
 0002:0003e020       ??1const_iterator@?$_Tree@V?$_Tmap_traits@UZeni_Input_ID@Zeni@@HU?$less@UZeni_Input_ID@Zeni@@@std@@V?$allocator@U?$pair@$$CBUZeni_Input_ID@Zeni@@H@std@@@4@$0A@@std@@@std@@QAE@XZ 004bf020 f i Zenilib:zenilib.obj
 0002:0003e070       ??1?$_Bidit@U?$pair@$$CBUZeni_Input_ID@Zeni@@H@std@@HPBU12@ABU12@@std@@QAE@XZ 004bf070 f i Zenilib:zenilib.obj
 0002:0003e0c0       ??1?$_Iterator_with_base@Ubidirectional_iterator_tag@std@@U?$pair@$$CBUZeni_Input_ID@Zeni@@H@2@HPBU32@ABU32@V_Iterator_base@2@@std@@QAE@XZ 004bf0c0 f i Zenilib:zenilib.obj
 0002:0003e110       ?on_event@Gamestate_II@Zeni@@UAEXABUZeni_Input_ID@2@ABMABH@Z 004bf110 f   Zenilib:zenilib.obj
 0002:0003e150       ?get_action@Gamestate_II@Zeni@@UAEHABUZeni_Input_ID@2@@Z 004bf150 f   Zenilib:zenilib.obj
 0002:0003e330       ??0const_iterator@?$_Tree@V?$_Tmap_traits@UZeni_Input_ID@Zeni@@HU?$less@UZeni_Input_ID@Zeni@@@std@@V?$allocator@U?$pair@$$CBUZeni_Input_ID@Zeni@@H@std@@@4@$0A@@std@@@std@@QAE@ABV012@@Z 004bf330 f i Zenilib:zenilib.obj
 0002:0003e3a0       ??0?$_Bidit@U?$pair@$$CBUZeni_Input_ID@Zeni@@H@std@@HPBU12@ABU12@@std@@QAE@ABU01@@Z 004bf3a0 f i Zenilib:zenilib.obj
 0002:0003e400       ??0?$_Iterator_with_base@Ubidirectional_iterator_tag@std@@U?$pair@$$CBUZeni_Input_ID@Zeni@@H@2@HPBU32@ABU32@V_Iterator_base@2@@std@@QAE@ABU01@@Z 004bf400 f i Zenilib:zenilib.obj
 0002:0003e460       ?get_event@Gamestate_II@Zeni@@UAE?AUZeni_Input_ID@2@ABH@Z 004bf460 f   Zenilib:zenilib.obj
 0002:0003e680       ??1iterator@?$_Tree@V?$_Tmap_traits@HUZeni_Input_ID@Zeni@@U?$less@H@std@@V?$allocator@U?$pair@$$CBHUZeni_Input_ID@Zeni@@@std@@@4@$0A@@std@@@std@@QAE@XZ 004bf680 f i Zenilib:zenilib.obj
 0002:0003e6d0       ??0const_iterator@?$_Tree@V?$_Tmap_traits@HUZeni_Input_ID@Zeni@@U?$less@H@std@@V?$allocator@U?$pair@$$CBHUZeni_Input_ID@Zeni@@@std@@@4@$0A@@std@@@std@@QAE@ABV012@@Z 004bf6d0 f i Zenilib:zenilib.obj
 0002:0003e740       ??1const_iterator@?$_Tree@V?$_Tmap_traits@HUZeni_Input_ID@Zeni@@U?$less@H@std@@V?$allocator@U?$pair@$$CBHUZeni_Input_ID@Zeni@@@std@@@4@$0A@@std@@@std@@QAE@XZ 004bf740 f i Zenilib:zenilib.obj
 0002:0003e790       ??0?$_Bidit@U?$pair@$$CBHUZeni_Input_ID@Zeni@@@std@@HPBU12@ABU12@@std@@QAE@ABU01@@Z 004bf790 f i Zenilib:zenilib.obj
 0002:0003e7f0       ??1?$_Bidit@U?$pair@$$CBHUZeni_Input_ID@Zeni@@@std@@HPBU12@ABU12@@std@@QAE@XZ 004bf7f0 f i Zenilib:zenilib.obj
 0002:0003e840       ??0?$_Iterator_with_base@Ubidirectional_iterator_tag@std@@U?$pair@$$CBHUZeni_Input_ID@Zeni@@@2@HPBU32@ABU32@V_Iterator_base@2@@std@@QAE@ABU01@@Z 004bf840 f i Zenilib:zenilib.obj
 0002:0003e8a0       ??1?$_Iterator_with_base@Ubidirectional_iterator_tag@std@@U?$pair@$$CBHUZeni_Input_ID@Zeni@@@2@HPBU32@ABU32@V_Iterator_base@2@@std@@QAE@XZ 004bf8a0 f i Zenilib:zenilib.obj
 0002:0003e8f0       ?set_action@Gamestate_II@Zeni@@UAEXABUZeni_Input_ID@2@ABH@Z 004bf8f0 f   Zenilib:zenilib.obj
 0002:0003e990       ??0Light@Zeni@@QAE@ABVColor@1@00ABUPoint3f@1@ABUVector3f@1@@Z 004bf990 f   Zenilib:zenilib.obj
 0002:0003eb10       ?set@Light@Zeni@@QBEXABHAAVVideo_GL@2@@Z 004bfb10 f   Zenilib:zenilib.obj
 0002:0003edd0       ?set@Light@Zeni@@QBEXABKAAVVideo_DX9@2@@Z 004bfdd0 f   Zenilib:zenilib.obj
 0002:0003eeb0       _SDL_main                  004bfeb0 f   Zenilib:zenilib.obj
 0002:0003f880       ?get_bilinear_filtering@Textures@Zeni@@SA_NXZ 004c0880 f i Zenilib:zenilib.obj
 0002:0003f8c0       ?get_mipmapping@Textures@Zeni@@SA_NXZ 004c08c0 f i Zenilib:zenilib.obj
 0002:0003f900       ?get_anisotropic_filtering@Textures@Zeni@@SAHXZ 004c0900 f i Zenilib:zenilib.obj
 0002:0003f940       ?get_video_mode@Video@Zeni@@SAABW4VIDEO_MODE@Video_Base@2@XZ 004c0940 f i Zenilib:zenilib.obj
 0002:0003f980       ?is_fullscreen@Video@Zeni@@SAAB_NXZ 004c0980 f i Zenilib:zenilib.obj
 0002:0003f9c0       ?get_vertical_sync@Video@Zeni@@SAAB_NXZ 004c09c0 f i Zenilib:zenilib.obj
 0002:0003fa00       ?get_multisampling@Video@Zeni@@SAABHXZ 004c0a00 f i Zenilib:zenilib.obj
 0002:0003fa40       ?set_vertical_sync@Video@Zeni@@QAEXAB_N@Z 004c0a40 f i Zenilib:zenilib.obj
 0002:0003fb10       ?set_vertical_sync_impl@Video_DX9@Zeni@@QAEXAB_N@Z 004c0b10 f i Zenilib:zenilib.obj
 0002:0003fb80       ?set_vertical_sync_impl@Video_GL@Zeni@@QAEXAB_N@Z 004c0b80 f i Zenilib:zenilib.obj
 0002:0003fc50       ?uninit@Video@Zeni@@IAEXXZ 004c0c50 f i Zenilib:zenilib.obj
 0002:0003fd30       ?uninit_impl@Video_DX9@Zeni@@IAEXXZ 004c0d30 f i Zenilib:zenilib.obj
 0002:0003fdd0       ?uninit_impl@Video_GL@Zeni@@IAEXXZ 004c0dd0 f i Zenilib:zenilib.obj
 0002:0003fe10       ??0Corrupt_INI@@QAE@XZ     004c0e10 f i Zenilib:zenilib.obj
 0002:00040930       ??1Corrupt_INI@@QAE@XZ     004c1930 f i Zenilib:zenilib.obj
 0002:00040980       ??0Corrupt_INI@@QAE@ABU0@@Z 004c1980 f i Zenilib:zenilib.obj
 0002:000409e0       ??0Material@Zeni@@QAE@ABVColor@1@000ABMABV?$basic_string@DU?$char_traits@D@std@@V?$allocator@D@2@@std@@@Z 004c19e0 f   Zenilib:zenilib.obj
 0002:00040b60       ??0Material@Zeni@@QAE@ABV?$basic_string@DU?$char_traits@D@std@@V?$allocator@D@2@@std@@ABVColor@1@@Z 004c1b60 f   Zenilib:zenilib.obj
 0002:00040d80       ?get_shininess@Material@Zeni@@QBEMXZ 004c1d80 f   Zenilib:zenilib.obj
 0002:00040e10       ?set_shininess@Material@Zeni@@QAEXABM@Z 004c1e10 f   Zenilib:zenilib.obj
 0002:00040eb0       ?set_texture@Material@Zeni@@QAEXABV?$basic_string@DU?$char_traits@D@std@@V?$allocator@D@2@@std@@@Z 004c1eb0 f   Zenilib:zenilib.obj
 0002:00040f60       ?set@Material@Zeni@@QBEXAAVVideo_GL@2@ABH@Z 004c1f60 f   Zenilib:zenilib.obj
 0002:000411e0       ?get_backface_culling@Video@Zeni@@SAAB_NXZ 004c21e0 f i Zenilib:zenilib.obj
 0002:00041220       ?apply_texture@Video@Zeni@@QAEXABK@Z 004c2220 f i Zenilib:zenilib.obj
 0002:000412e0       ?apply_texture_impl@Video_DX9@Zeni@@QAEXABK@Z 004c22e0 f i Zenilib:zenilib.obj
 0002:00041360       ?apply_texture_impl@Video_GL@Zeni@@QAEXABK@Z 004c2360 f i Zenilib:zenilib.obj
 0002:00041400       ?unset@Material@Zeni@@QBEXAAVVideo_GL@2@ABH@Z 004c2400 f   Zenilib:zenilib.obj
 0002:00041490       ?unapply_texture@Video@Zeni@@QAEXXZ 004c2490 f i Zenilib:zenilib.obj
 0002:00041550       ?unapply_texture_impl@Video_DX9@Zeni@@QAEXXZ 004c2550 f i Zenilib:zenilib.obj
 0002:00041690       ?unapply_texture_impl@Video_GL@Zeni@@QAEXXZ 004c2690 f i Zenilib:zenilib.obj
 0002:00041710       ?set@Material@Zeni@@QBEXAAVVideo_DX9@2@ABH@Z 004c2710 f   Zenilib:zenilib.obj
 0002:00041810       ?apply_texture@Video@Zeni@@QAEXABV?$basic_string@DU?$char_traits@D@std@@V?$allocator@D@2@@std@@@Z 004c2810 f i Zenilib:zenilib.obj
 0002:00041890       ?unset@Material@Zeni@@QBEXAAVVideo_DX9@2@ABH@Z 004c2890 f   Zenilib:zenilib.obj
 0002:00041920       ??MMaterial@Zeni@@QBE_NABV01@@Z 004c2920 f   Zenilib:zenilib.obj
 0002:00041b10       ??8Material@Zeni@@QBE_NABV01@@Z 004c2b10 f   Zenilib:zenilib.obj
 0002:00041c40       ??0Matrix4f@Zeni@@QAE@XZ   004c2c40 f   Zenilib:zenilib.obj
 0002:00041ca0       ??0Matrix4f@Zeni@@QAE@ABM000000000000000@Z 004c2ca0 f   Zenilib:zenilib.obj
 0002:00041dc0       ??0Matrix4f@Zeni@@QAE@ABUVector3f@1@00AB_N@Z 004c2dc0 f   Zenilib:zenilib.obj
 0002:00041f30       ??0Matrix4f@Zeni@@QAE@ABV01@@Z 004c2f30 f   Zenilib:zenilib.obj
 0002:00041f80       ?invert@Matrix4f@Zeni@@QAEAAV12@XZ 004c2f80 f   Zenilib:zenilib.obj
 0002:00041ff0       ?inverted@Matrix4f@Zeni@@QBE?AV12@XZ 004c2ff0 f   Zenilib:zenilib.obj
 0002:00042840       ?transpose@Matrix4f@Zeni@@QAEAAV12@XZ 004c3840 f   Zenilib:zenilib.obj
 0002:00042910       ?transposed@Matrix4f@Zeni@@QBE?AV12@XZ 004c3910 f   Zenilib:zenilib.obj
 0002:00042a20       ?determinant@Matrix4f@Zeni@@QBEMXZ 004c3a20 f   Zenilib:zenilib.obj
 0002:00042d60       ??DMatrix4f@Zeni@@QBE?AUVector3f@1@ABU21@@Z 004c3d60 f   Zenilib:zenilib.obj
 0002:00042ee0       ??0Model_Extents@Zeni@@QAE@XZ 004c3ee0 f   Zenilib:zenilib.obj
 0002:00043020       ??0Model_Visitor@Zeni@@QAE@XZ 004c4020 f i Zenilib:zenilib.obj
 0002:00043070       ??1Model_Visitor@Zeni@@UAE@XZ 004c4070 f i Zenilib:zenilib.obj
 0002:000430b0       ??_GModel_Visitor@Zeni@@UAEPAXI@Z 004c40b0 f i Zenilib:zenilib.obj
 0002:000430b0       ??_EModel_Visitor@Zeni@@UAEPAXI@Z 004c40b0 f i Zenilib:zenilib.obj
 0002:00043120       ??_GModel_Extents@Zeni@@UAEPAXI@Z 004c4120 f i Zenilib:zenilib.obj
 0002:00043120       ??_EModel_Extents@Zeni@@UAEPAXI@Z 004c4120 f i Zenilib:zenilib.obj
 0002:00043190       ??1Model_Extents@Zeni@@UAE@XZ 004c4190 f i Zenilib:zenilib.obj
 0002:000431e0       ?create_vertex_buffer@Model_Renderer@Zeni@@QAEXPAVVertex_Buffer@2@ABVModel@2@PAULib3dsNode@@PAULib3dsMesh@@@Z 004c41e0 f   Zenilib:zenilib.obj
 0002:00044d20       ?get_texture@Material@Zeni@@QBEABV?$basic_string@DU?$char_traits@D@std@@V?$allocator@D@2@@std@@XZ 004c5d20 f i Zenilib:zenilib.obj
 0002:00044d60       ??1Vertex3f_Color@Zeni@@UAE@XZ 004c5d60 f i Zenilib:zenilib.obj
 0002:00044e10       ??0Model_Render_Failure@Zeni@@QAE@XZ 004c5e10 f i Zenilib:zenilib.obj
 0002:00044f00       ?thun_get_file@Model@Zeni@@QBEABQAULib3dsFile@@XZ 004c5f00 f i Zenilib:zenilib.obj
 0002:00044fb0       ??1Model_Render_Failure@Zeni@@QAE@XZ 004c5fb0 f i Zenilib:zenilib.obj
 0002:00045000       ??4Material@Zeni@@QAEAAV01@ABV01@@Z 004c6000 f i Zenilib:zenilib.obj
 0002:00045130       ??0Model_Render_Failure@Zeni@@QAE@ABU01@@Z 004c6130 f i Zenilib:zenilib.obj
 0002:00045190       ??RModel_Unrenderer@Zeni@@UAEXABVModel@1@PAULib3dsNode@@@Z 004c6190 f   Zenilib:zenilib.obj
 0002:00045290       ?vflip_texels@Zeni@@YAXABVModel@1@PAULib3dsNode@@@Z 004c6290 f   Zenilib:zenilib.obj
 0002:000453f0       ??0Model@Zeni@@QAE@ABV?$basic_string@DU?$char_traits@D@std@@V?$allocator@D@2@@std@@@Z 004c63f0 f   Zenilib:zenilib.obj
 0002:00045620       ??0Runonce_Computation@Zeni@@QAE@AAVTask@1@@Z 004c6620 f i Zenilib:zenilib.obj
 0002:00045720       ??0Loader@Model@Zeni@@QAE@AAV12@@Z 004c6720 f i Zenilib:zenilib.obj
 0002:00045790       ??0Task@Zeni@@QAE@XZ       004c6790 f i Zenilib:zenilib.obj
 0002:000458b0       ??_GTask@Zeni@@UAEPAXI@Z   004c68b0 f i Zenilib:zenilib.obj
 0002:000458b0       ??_ETask@Zeni@@UAEPAXI@Z   004c68b0 f i Zenilib:zenilib.obj
 0002:00045920       ??1Task@Zeni@@UAE@XZ       004c6920 f i Zenilib:zenilib.obj
 0002:00045a10       ??1?$set@PBVTask@Zeni@@U?$less@PBVTask@Zeni@@@std@@V?$allocator@PBVTask@Zeni@@@4@@std@@QAE@XZ 004c6a10 f i Zenilib:zenilib.obj
 0002:00045a60       ??_ELoader@Model@Zeni@@UAEPAXI@Z 004c6a60 f i Zenilib:zenilib.obj
 0002:00045a60       ??_GLoader@Model@Zeni@@UAEPAXI@Z 004c6a60 f i Zenilib:zenilib.obj
 0002:00045ad0       ??1Loader@Model@Zeni@@UAE@XZ 004c6ad0 f i Zenilib:zenilib.obj
 0002:00045b20       ??_GModel@Zeni@@UAEPAXI@Z  004c6b20 f i Zenilib:zenilib.obj
 0002:00045b20       ??_EModel@Zeni@@UAEPAXI@Z  004c6b20 f i Zenilib:zenilib.obj
 0002:00045b90       ??0Renderable@Zeni@@QAE@XZ 004c6b90 f i Zenilib:zenilib.obj
 0002:00045be0       ??0Model@Zeni@@QAE@ABV01@@Z 004c6be0 f   Zenilib:zenilib.obj
 0002:00045dc0       ??0Renderable@Zeni@@QAE@ABV01@@Z 004c6dc0 f i Zenilib:zenilib.obj
 0002:00045e10       ??1Model@Zeni@@UAE@XZ      004c6e10 f   Zenilib:zenilib.obj
 0002:00045fd0       ?finish@Task@Zeni@@QBEXXZ  004c6fd0 f i Zenilib:zenilib.obj
 0002:000460d0       ??1Runonce_Computation@Zeni@@QAE@XZ 004c70d0 f i Zenilib:zenilib.obj
 0002:00046170       ??_GThread@Zeni@@QAEPAXI@Z 004c7170 f i Zenilib:zenilib.obj
 0002:000461e0       ??4Model@Zeni@@QAEAAV01@ABV01@@Z 004c71e0 f   Zenilib:zenilib.obj
 0002:00046820       ?get_position@Model@Zeni@@UBE?AUPoint3f@2@XZ 004c7820 f   Zenilib:zenilib.obj
 0002:000468e0       ?visit_nodes@Model@Zeni@@QBEXAAVModel_Visitor@2@PAULib3dsNode@@@Z 004c78e0 f   Zenilib:zenilib.obj
 0002:000469d0       ?render_to@Model@Zeni@@UBEXAAVVideo_GL@2@@Z 004c79d0 f   Zenilib:zenilib.obj
 0002:00046d60       ??0Model_Unrenderer@Zeni@@QAE@XZ 004c7d60 f i Zenilib:zenilib.obj
 0002:00046dc0       ??0Model_Renderer_GL@Zeni@@QAE@XZ 004c7dc0 f i Zenilib:zenilib.obj
 0002:00046e20       ??1Model_Renderer_GL@Zeni@@UAE@XZ 004c7e20 f i Zenilib:zenilib.obj
 0002:00046e70       ??_GModel_Unrenderer@Zeni@@UAEPAXI@Z 004c7e70 f i Zenilib:zenilib.obj
 0002:00046e70       ??_EModel_Unrenderer@Zeni@@UAEPAXI@Z 004c7e70 f i Zenilib:zenilib.obj
 0002:00046ee0       ??_EModel_Renderer_GL@Zeni@@UAEPAXI@Z 004c7ee0 f i Zenilib:zenilib.obj
 0002:00046ee0       ??_GModel_Renderer_GL@Zeni@@UAEPAXI@Z 004c7ee0 f i Zenilib:zenilib.obj
 0002:00046f50       ??0Model_Renderer@Zeni@@QAE@XZ 004c7f50 f i Zenilib:zenilib.obj
 0002:00046fb0       ??1Model_Renderer@Zeni@@UAE@XZ 004c7fb0 f i Zenilib:zenilib.obj
 0002:00047000       ??1Model_Unrenderer@Zeni@@UAE@XZ 004c8000 f i Zenilib:zenilib.obj
 0002:00047050       ??_EModel_Renderer@Zeni@@UAEPAXI@Z 004c8050 f i Zenilib:zenilib.obj
 0002:00047050       ??_GModel_Renderer@Zeni@@UAEPAXI@Z 004c8050 f i Zenilib:zenilib.obj
 0002:000470c0       ??RModel_Renderer_GL@Zeni@@UAEXABVModel@1@PAULib3dsNode@@@Z 004c80c0 f   Zenilib:zenilib.obj
 0002:000473c0       ?render_to@Model@Zeni@@UBEXAAVVideo_DX9@2@@Z 004c83c0 f   Zenilib:zenilib.obj
 0002:000478a0       ??0D3DXMATRIX@@QAE@XZ      004c88a0 f i Zenilib:zenilib.obj
 0002:000478e0       ?get_matrix_stack@Video_DX9@Zeni@@QAEAAPAUID3DXMatrixStack@@XZ 004c88e0 f i Zenilib:zenilib.obj
 0002:00047920       ??0Model_Renderer_DX9@Zeni@@QAE@XZ 004c8920 f i Zenilib:zenilib.obj
 0002:00047980       ??1Model_Renderer_DX9@Zeni@@UAE@XZ 004c8980 f i Zenilib:zenilib.obj
 0002:000479d0       ??_EModel_Renderer_DX9@Zeni@@UAEPAXI@Z 004c89d0 f i Zenilib:zenilib.obj
 0002:000479d0       ??_GModel_Renderer_DX9@Zeni@@UAEPAXI@Z 004c89d0 f i Zenilib:zenilib.obj
 0002:00047a40       ??RModel_Renderer_DX9@Zeni@@UAEXABVModel@1@PAULib3dsNode@@@Z 004c8a40 f   Zenilib:zenilib.obj
 0002:00047f30       ??RModel_Extents@Zeni@@UAEXABVModel@1@PAULib3dsNode@@@Z 004c8f30 f   Zenilib:zenilib.obj
 0002:00048180       ?function@Loader@Model@Zeni@@UAEHXZ 004c9180 f   Zenilib:zenilib.obj
 0002:000481e0       ?load@Model@Zeni@@AAEXXZ   004c91e0 f   Zenilib:zenilib.obj
 0002:00048340       ??0Model_Init_Failure@Zeni@@QAE@XZ 004c9340 f i Zenilib:zenilib.obj
 0002:00048430       ??1Model_Init_Failure@Zeni@@QAE@XZ 004c9430 f i Zenilib:zenilib.obj
 0002:00048480       ??0Model_Init_Failure@Zeni@@QAE@ABU01@@Z 004c9480 f i Zenilib:zenilib.obj
 0002:000484e0       ??0Mutex@Zeni@@QAE@XZ      004c94e0 f   Zenilib:zenilib.obj
 0002:00048570       ??1Mutex@Zeni@@QAE@XZ      004c9570 f   Zenilib:zenilib.obj
 0002:000485e0       ?lock@Mutex@Zeni@@QAEXXZ   004c95e0 f   Zenilib:zenilib.obj
 0002:00048710       ??0Mutex_Lock_Failure@Zeni@@QAE@XZ 004c9710 f i Zenilib:zenilib.obj
 0002:00048800       ??1Mutex_Lock_Failure@Zeni@@QAE@XZ 004c9800 f i Zenilib:zenilib.obj
 0002:00048850       ??0Mutex_Lock_Failure@Zeni@@QAE@ABU01@@Z 004c9850 f i Zenilib:zenilib.obj
 0002:000488b0       ??0Lock@Mutex@Zeni@@QAE@AAV12@@Z 004c98b0 f   Zenilib:zenilib.obj
 0002:00048920       ??1Lock@Mutex@Zeni@@QAE@XZ 004c9920 f   Zenilib:zenilib.obj
 0002:00048980       ?unlock@Mutex@Zeni@@QAEXXZ 004c9980 f i Zenilib:zenilib.obj
 0002:00048aa0       ??0Mutex_Unlock_Failure@Zeni@@QAE@XZ 004c9aa0 f i Zenilib:zenilib.obj
 0002:00048b90       ??1Mutex_Unlock_Failure@Zeni@@QAE@XZ 004c9b90 f i Zenilib:zenilib.obj
 0002:00048be0       ??0Mutex_Unlock_Failure@Zeni@@QAE@ABU01@@Z 004c9be0 f i Zenilib:zenilib.obj
 0002:00048c40       ??0Recursive_Mutex@Zeni@@QAE@XZ 004c9c40 f   Zenilib:zenilib.obj
 0002:00048ce0       ??1Recursive_Mutex@Zeni@@QAE@XZ 004c9ce0 f   Zenilib:zenilib.obj
 0002:00048d50       ?lock@Recursive_Mutex@Zeni@@QAEXXZ 004c9d50 f   Zenilib:zenilib.obj
 0002:00048ec0       ?unlock@Recursive_Mutex@Zeni@@QAEXXZ 004c9ec0 f   Zenilib:zenilib.obj
 0002:00049060       ??0Lock@Recursive_Mutex@Zeni@@QAE@AAV12@@Z 004ca060 f   Zenilib:zenilib.obj
 0002:000490d0       ??1Lock@Recursive_Mutex@Zeni@@QAE@XZ 004ca0d0 f   Zenilib:zenilib.obj
 0002:00049130       ??0Semaphore@Zeni@@QAE@ABI@Z 004ca130 f   Zenilib:zenilib.obj
 0002:000491b0       ??1Semaphore@Zeni@@QAE@XZ  004ca1b0 f   Zenilib:zenilib.obj
 0002:00049210       ??0Down@Semaphore@Zeni@@QAE@AAV12@@Z 004ca210 f   Zenilib:zenilib.obj
 0002:00049280       ?down@Semaphore@Zeni@@QAEXXZ 004ca280 f i Zenilib:zenilib.obj
 0002:00049300       ??0Semaphore_Down_Failure@Zeni@@QAE@XZ 004ca300 f i Zenilib:zenilib.obj
 0002:000493f0       ??1Semaphore_Down_Failure@Zeni@@QAE@XZ 004ca3f0 f i Zenilib:zenilib.obj
 0002:00049440       ??0Semaphore_Down_Failure@Zeni@@QAE@ABU01@@Z 004ca440 f i Zenilib:zenilib.obj
 0002:000494a0       ??1Down@Semaphore@Zeni@@QAE@XZ 004ca4a0 f   Zenilib:zenilib.obj
 0002:00049500       ?up@Semaphore@Zeni@@QAEXXZ 004ca500 f i Zenilib:zenilib.obj
 0002:00049580       ??0Semaphore_Up_Failure@Zeni@@QAE@XZ 004ca580 f i Zenilib:zenilib.obj
 0002:00049670       ??1Semaphore_Up_Failure@Zeni@@QAE@XZ 004ca670 f i Zenilib:zenilib.obj
 0002:000496c0       ??0Semaphore_Up_Failure@Zeni@@QAE@ABU01@@Z 004ca6c0 f i Zenilib:zenilib.obj
 0002:00049720       ??0Condition_Variable@Zeni@@QAE@XZ 004ca720 f   Zenilib:zenilib.obj
 0002:00049790       ??1Condition_Variable@Zeni@@QAE@XZ 004ca790 f   Zenilib:zenilib.obj
 0002:000497f0       ?wait@Condition_Variable@Zeni@@QAEXAAVLock@Recursive_Mutex@2@@Z 004ca7f0 f   Zenilib:zenilib.obj
 0002:000499b0       ??0CV_Wait_Failure@Zeni@@QAE@XZ 004ca9b0 f i Zenilib:zenilib.obj
 0002:00049aa0       ??1CV_Wait_Failure@Zeni@@QAE@XZ 004caaa0 f i Zenilib:zenilib.obj
 0002:00049af0       ??0CV_Wait_Failure@Zeni@@QAE@ABU01@@Z 004caaf0 f i Zenilib:zenilib.obj
 0002:00049b50       ?wait_timeout@Condition_Variable@Zeni@@QAEXAAVLock@Recursive_Mutex@2@ABI@Z 004cab50 f   Zenilib:zenilib.obj
 0002:00049d10       ??0CV_Wait_Timeout_Failure@Zeni@@QAE@XZ 004cad10 f i Zenilib:zenilib.obj
 0002:00049e00       ??1CV_Wait_Timeout_Failure@Zeni@@QAE@XZ 004cae00 f i Zenilib:zenilib.obj
 0002:00049e50       ??0CV_Wait_Timeout_Failure@Zeni@@QAE@ABU01@@Z 004cae50 f i Zenilib:zenilib.obj
 0002:00049eb0       ??0Net@Zeni@@AAE@XZ        004caeb0 f   Zenilib:zenilib.obj
 0002:00049f30       ??0Net_Init_Failure@Zeni@@QAE@XZ 004caf30 f i Zenilib:zenilib.obj
 0002:0004a020       ??1Net_Init_Failure@Zeni@@QAE@XZ 004cb020 f i Zenilib:zenilib.obj
 0002:0004a070       ??0Net_Init_Failure@Zeni@@QAE@ABU01@@Z 004cb070 f i Zenilib:zenilib.obj
 0002:0004a0d0       ??1Net@Zeni@@AAE@XZ        004cb0d0 f   Zenilib:zenilib.obj
 0002:0004a120       ?get_reference@Net@Zeni@@SAAAV12@XZ 004cb120 f   Zenilib:zenilib.obj
 0002:0004a1f0       ??0TCP_Socket@Zeni@@QAE@UIPaddress@@@Z 004cb1f0 f   Zenilib:zenilib.obj
 0002:0004a330       ??0TCP_Socket_Init_Failure@Zeni@@QAE@XZ 004cb330 f i Zenilib:zenilib.obj
 0002:0004a420       ??1TCP_Socket_Init_Failure@Zeni@@QAE@XZ 004cb420 f i Zenilib:zenilib.obj
 0002:0004a470       ??0TCP_Socket_Init_Failure@Zeni@@QAE@ABU01@@Z 004cb470 f i Zenilib:zenilib.obj
 0002:0004a4d0       ??0TCP_Socket@Zeni@@QAE@PAU_TCPsocket@@@Z 004cb4d0 f   Zenilib:zenilib.obj
 0002:0004a5e0       ??1TCP_Socket@Zeni@@QAE@XZ 004cb5e0 f   Zenilib:zenilib.obj
 0002:0004a670       ?peer_address@TCP_Socket@Zeni@@QBE?AUIPaddress@@XZ 004cb670 f   Zenilib:zenilib.obj
 0002:0004a6e0       ?check_socket@TCP_Socket@Zeni@@QAEHXZ 004cb6e0 f   Zenilib:zenilib.obj
 0002:0004a770       ??0Socket_Closed@Zeni@@QAE@XZ 004cb770 f i Zenilib:zenilib.obj
 0002:0004a860       ??1Socket_Closed@Zeni@@QAE@XZ 004cb860 f i Zenilib:zenilib.obj
 0002:0004a8b0       ??0Socket_Closed@Zeni@@QAE@ABU01@@Z 004cb8b0 f i Zenilib:zenilib.obj
 0002:0004a910       ?send@TCP_Socket@Zeni@@QAEXABQBXABH@Z 004cb910 f   Zenilib:zenilib.obj
 0002:0004a9b0       ?send@TCP_Socket@Zeni@@QAEXABV?$basic_string@DU?$char_traits@D@std@@V?$allocator@D@2@@std@@@Z 004cb9b0 f   Zenilib:zenilib.obj
 0002:0004aa50       ?receive@TCP_Socket@Zeni@@QAEHABQAXABH@Z 004cba50 f   Zenilib:zenilib.obj
 0002:0004ab00       ?receive@TCP_Socket@Zeni@@QAEHAAV?$basic_string@DU?$char_traits@D@std@@V?$allocator@D@2@@std@@ABH@Z 004cbb00 f   Zenilib:zenilib.obj
 0002:0004abc0       ??0TCP_Listener@Zeni@@QAE@ABG@Z 004cbbc0 f   Zenilib:zenilib.obj
 0002:0004ad10       ??1TCP_Listener@Zeni@@QAE@XZ 004cbd10 f   Zenilib:zenilib.obj
 0002:0004ad70       ?accept@TCP_Listener@Zeni@@QAEPAU_TCPsocket@@XZ 004cbd70 f   Zenilib:zenilib.obj
 0002:0004add0       ??0UDP_Socket@Zeni@@QAE@ABG@Z 004cbdd0 f   Zenilib:zenilib.obj
 0002:0004ae90       ??0UDP_Socket_Init_Failure@Zeni@@QAE@XZ 004cbe90 f i Zenilib:zenilib.obj
 0002:0004af80       ??_GUDP_Socket@Zeni@@UAEPAXI@Z 004cbf80 f i Zenilib:zenilib.obj
 0002:0004af80       ??_EUDP_Socket@Zeni@@UAEPAXI@Z 004cbf80 f i Zenilib:zenilib.obj
 0002:0004aff0       ??1UDP_Socket_Init_Failure@Zeni@@QAE@XZ 004cbff0 f i Zenilib:zenilib.obj
 0002:0004b040       ??0UDP_Socket_Init_Failure@Zeni@@QAE@ABU01@@Z 004cc040 f i Zenilib:zenilib.obj
 0002:0004b0a0       ??1UDP_Socket@Zeni@@UAE@XZ 004cc0a0 f   Zenilib:zenilib.obj
 0002:0004b110       ?peer_address@UDP_Socket@Zeni@@QBE?AUIPaddress@@XZ 004cc110 f   Zenilib:zenilib.obj
 0002:0004b180       ?send@UDP_Socket@Zeni@@UAEXABUIPaddress@@ABQBXABH@Z 004cc180 f   Zenilib:zenilib.obj
 0002:0004b290       ?send@UDP_Socket@Zeni@@UAEXABUIPaddress@@ABV?$basic_string@DU?$char_traits@D@std@@V?$allocator@D@2@@std@@@Z 004cc290 f   Zenilib:zenilib.obj
 0002:0004b340       ?receive@UDP_Socket@Zeni@@UAEHAAUIPaddress@@ABQBXABH@Z 004cc340 f   Zenilib:zenilib.obj
 0002:0004b4a0       ?receive@UDP_Socket@Zeni@@UAEHAAUIPaddress@@AAV?$basic_string@DU?$char_traits@D@std@@V?$allocator@D@2@@std@@@Z 004cc4a0 f   Zenilib:zenilib.obj
 0002:0004b5b0       ??0Chunk_Set@Split_UDP_Socket@Zeni@@QAE@ABUIPaddress@@ABVVLUID@2@ABG2AAUChunk@12@@Z 004cc5b0 f   Zenilib:zenilib.obj
 0002:0004b700       ??4Chunk@Split_UDP_Socket@Zeni@@QAEAAU012@AAU012@@Z 004cc700 f i Zenilib:zenilib.obj
 0002:0004b770       ??1VLUID@Zeni@@UAE@XZ      004cc770 f i Zenilib:zenilib.obj
 0002:0004b820       ??1Serializable@Zeni@@UAE@XZ 004cc820 f i Zenilib:zenilib.obj
 0002:0004b860       ?size@Serializable@Zeni@@UBEGXZ 004cc860 f i Zenilib:zenilib.obj
 0002:0004b8b0       ??_GSerializable@Zeni@@UAEPAXI@Z 004cc8b0 f i Zenilib:zenilib.obj
 0002:0004b8b0       ??_ESerializable@Zeni@@UAEPAXI@Z 004cc8b0 f i Zenilib:zenilib.obj
 0002:0004b920       ??0VLUID@Zeni@@QAE@ABV01@@Z 004cc920 f i Zenilib:zenilib.obj
 0002:0004b9f0       ?size@VLUID@Zeni@@UBEGXZ   004cc9f0 f i Zenilib:zenilib.obj
 0002:0004ba40       ??_EVLUID@Zeni@@UAEPAXI@Z  004cca40 f i Zenilib:zenilib.obj
 0002:0004ba40       ??_GVLUID@Zeni@@UAEPAXI@Z  004cca40 f i Zenilib:zenilib.obj
 0002:0004bab0       ??0Serializable@Zeni@@QAE@ABV01@@Z 004ccab0 f i Zenilib:zenilib.obj
 0002:0004bb10       ?add_chunk@Chunk_Set@Split_UDP_Socket@Zeni@@QAE_NABUIPaddress@@ABVVLUID@3@ABG2AAUChunk@23@@Z 004ccb10 f   Zenilib:zenilib.obj
 0002:0004bc10       ??8VLUID@Zeni@@QBE_NABV01@@Z 004ccc10 f i Zenilib:zenilib.obj
 0002:0004bc80       ?complete@Chunk_Set@Split_UDP_Socket@Zeni@@QBE_NXZ 004ccc80 f   Zenilib:zenilib.obj
 0002:0004be20       ??1?$_Vector_const_iterator@UChunk@Split_UDP_Socket@Zeni@@V?$allocator@UChunk@Split_UDP_Socket@Zeni@@@std@@@std@@QAE@XZ 004cce20 f i Zenilib:zenilib.obj
 0002:0004be70       ??1?$_Ranit@UChunk@Split_UDP_Socket@Zeni@@HPBU123@ABU123@@std@@QAE@XZ 004cce70 f i Zenilib:zenilib.obj
 0002:0004bec0       ??1?$_Iterator_with_base@Urandom_access_iterator_tag@std@@UChunk@Split_UDP_Socket@Zeni@@HPBU345@ABU345@V_Iterator_base@2@@std@@QAE@XZ 004ccec0 f i Zenilib:zenilib.obj
 0002:0004bf10       ?receive@Chunk_Set@Split_UDP_Socket@Zeni@@QBE?AUChunk@23@XZ 004ccf10 f   Zenilib:zenilib.obj
 0002:0004c210       ??0Chunk@Split_UDP_Socket@Zeni@@QAE@XZ 004cd210 f i Zenilib:zenilib.obj
 0002:0004c260       ??1Chunk@Split_UDP_Socket@Zeni@@QAE@XZ 004cd260 f i Zenilib:zenilib.obj
 0002:0004c2d0       ??0Chunk@Split_UDP_Socket@Zeni@@QAE@ABU012@@Z 004cd2d0 f i Zenilib:zenilib.obj
 0002:0004c340       ?add_chunk@Chunk_Collector@Split_UDP_Socket@Zeni@@QAEPBVChunk_Set@23@ABUIPaddress@@ABVVLUID@3@ABG2AAUChunk@23@@Z 004cd340 f   Zenilib:zenilib.obj
 0002:0004c640       ??1?$_Iterator@$00@?$list@PAVChunk_Set@Split_UDP_Socket@Zeni@@V?$allocator@PAVChunk_Set@Split_UDP_Socket@Zeni@@@std@@@std@@QAE@XZ 004cd640 f i Zenilib:zenilib.obj
 0002:0004c690       ??1?$_Const_iterator@$00@?$list@PAVChunk_Set@Split_UDP_Socket@Zeni@@V?$allocator@PAVChunk_Set@Split_UDP_Socket@Zeni@@@std@@@std@@QAE@XZ 004cd690 f i Zenilib:zenilib.obj
 0002:0004c6e0       ??1?$_Bidit@PAVChunk_Set@Split_UDP_Socket@Zeni@@HPBQAV123@ABQAV123@@std@@QAE@XZ 004cd6e0 f i Zenilib:zenilib.obj
 0002:0004c730       ??1?$_Iterator_with_base@Ubidirectional_iterator_tag@std@@PAVChunk_Set@Split_UDP_Socket@Zeni@@HPBQAV345@ABQAV345@V_Iterator_base@2@@std@@QAE@XZ 004cd730 f i Zenilib:zenilib.obj
 0002:0004c780       ??0Split_UDP_Socket@Zeni@@QAE@ABG00@Z 004cd780 f   Zenilib:zenilib.obj
 0002:0004c8a0       ??0Chunk_Collector@Split_UDP_Socket@Zeni@@QAE@ABG@Z 004cd8a0 f i Zenilib:zenilib.obj
 0002:0004c940       ??1Chunk_Collector@Split_UDP_Socket@Zeni@@QAE@XZ 004cd940 f i Zenilib:zenilib.obj
 0002:0004cb00       ??0VLUID@Zeni@@QAE@XZ      004cdb00 f i Zenilib:zenilib.obj
 0002:0004cbe0       ??0Serializable@Zeni@@QAE@XZ 004cdbe0 f i Zenilib:zenilib.obj
 0002:0004cc30       ??_GChunk_Set@Split_UDP_Socket@Zeni@@QAEPAXI@Z 004cdc30 f i Zenilib:zenilib.obj
 0002:0004cca0       ??1Chunk_Set@Split_UDP_Socket@Zeni@@QAE@XZ 004cdca0 f i Zenilib:zenilib.obj
 0002:0004cd50       ??_GSplit_UDP_Socket@Zeni@@UAEPAXI@Z 004cdd50 f i Zenilib:zenilib.obj
 0002:0004cd50       ??_ESplit_UDP_Socket@Zeni@@UAEPAXI@Z 004cdd50 f i Zenilib:zenilib.obj
 0002:0004cdc0       ??1Split_UDP_Socket@Zeni@@UAE@XZ 004cddc0 f i Zenilib:zenilib.obj
 0002:0004ce80       ?send@Split_UDP_Socket@Zeni@@UAEXABUIPaddress@@ABQBXABG@Z 004cde80 f   Zenilib:zenilib.obj
 0002:0004d480       ?send@Split_UDP_Socket@Zeni@@UAEXABUIPaddress@@ABV?$basic_string@DU?$char_traits@D@std@@V?$allocator@D@2@@std@@@Z 004ce480 f   Zenilib:zenilib.obj
 0002:0004d540       ?receive@Split_UDP_Socket@Zeni@@UAEHAAUIPaddress@@ABQBXABG@Z 004ce540 f   Zenilib:zenilib.obj
 0002:0004da50       ?receive@Split_UDP_Socket@Zeni@@UAEHAAUIPaddress@@AAV?$basic_string@DU?$char_traits@D@std@@V?$allocator@D@2@@std@@@Z 004cea50 f   Zenilib:zenilib.obj
 0002:0004db70       ??8@YA_NABUIPaddress@@0@Z  004ceb70 f   Zenilib:zenilib.obj
 0002:0004dd10       ??9@YA_NABUIPaddress@@0@Z  004ced10 f   Zenilib:zenilib.obj
 0002:0004de40       ??M@YA_NABUIPaddress@@0@Z  004cee40 f   Zenilib:zenilib.obj
 0002:0004df80       ??N@YA_NABUIPaddress@@0@Z  004cef80 f   Zenilib:zenilib.obj
 0002:0004e0c0       ??O@YA_NABUIPaddress@@0@Z  004cf0c0 f   Zenilib:zenilib.obj
 0002:0004e200       ??P@YA_NABUIPaddress@@0@Z  004cf200 f   Zenilib:zenilib.obj
 0002:0004e340       ?uitoa@Zeni@@YA?AV?$basic_string@DU?$char_traits@D@std@@V?$allocator@D@2@@std@@ABI@Z 004cf340 f   Zenilib:zenilib.obj
 0002:0004e430       ?itoa@Zeni@@YA?AV?$basic_string@DU?$char_traits@D@std@@V?$allocator@D@2@@std@@ABH@Z 004cf430 f   Zenilib:zenilib.obj
 0002:0004e520       ?ultoa@Zeni@@YA?AV?$basic_string@DU?$char_traits@D@std@@V?$allocator@D@2@@std@@ABK@Z 004cf520 f   Zenilib:zenilib.obj
 0002:0004e610       ?ltoa@Zeni@@YA?AV?$basic_string@DU?$char_traits@D@std@@V?$allocator@D@2@@std@@ABJ@Z 004cf610 f   Zenilib:zenilib.obj
 0002:0004e700       ?ftoa@Zeni@@YA?AV?$basic_string@DU?$char_traits@D@std@@V?$allocator@D@2@@std@@ABM@Z 004cf700 f   Zenilib:zenilib.obj
 0002:0004e7f0       ?dtoa@Zeni@@YA?AV?$basic_string@DU?$char_traits@D@std@@V?$allocator@D@2@@std@@ABN@Z 004cf7f0 f   Zenilib:zenilib.obj
 0002:0004e8e0       ?ldtoa@Zeni@@YA?AV?$basic_string@DU?$char_traits@D@std@@V?$allocator@D@2@@std@@ABO@Z 004cf8e0 f   Zenilib:zenilib.obj
 0002:0004e9d0       ?iptoa@Zeni@@YA?AV?$basic_string@DU?$char_traits@D@std@@V?$allocator@D@2@@std@@ABUIPaddress@@@Z 004cf9d0 f   Zenilib:zenilib.obj
 0002:0004f000       ?grab_bytes@Zeni@@YAHAAV?$basic_istream@DU?$char_traits@D@std@@@std@@ABQADABH@Z 004d0000 f   Zenilib:zenilib.obj
 0002:0004f110       ?grab_bytes@Zeni@@YAHAAV?$basic_istream@DU?$char_traits@D@std@@@std@@AAV?$basic_string@DU?$char_traits@D@std@@V?$allocator@D@2@@3@ABH@Z 004d0110 f   Zenilib:zenilib.obj
 0002:0004f1d0       ?serialize@Serializable@Zeni@@UBEAAV?$basic_ostream@DU?$char_traits@D@std@@@std@@AAV34@@Z 004d01d0 f   Zenilib:zenilib.obj
 0002:0004f230       ?unserialize@Serializable@Zeni@@UAEAAV?$basic_istream@DU?$char_traits@D@std@@@std@@AAV34@@Z 004d0230 f   Zenilib:zenilib.obj
 0002:0004f2e0       ?compare@VLUID@Zeni@@QBEDABV12@@Z 004d02e0 f   Zenilib:zenilib.obj
 0002:0004f410       ??EVLUID@Zeni@@QAEAAV01@XZ 004d0410 f   Zenilib:zenilib.obj
 0002:0004f550       ??EVLUID@Zeni@@QAE?AV01@H@Z 004d0550 f   Zenilib:zenilib.obj
 0002:0004f680       ?serialize@VLUID@Zeni@@UBEAAV?$basic_ostream@DU?$char_traits@D@std@@@std@@AAV34@@Z 004d0680 f   Zenilib:zenilib.obj
 0002:0004f720       ?unserialize@VLUID@Zeni@@UAEAAV?$basic_istream@DU?$char_traits@D@std@@@std@@AAV34@@Z 004d0720 f   Zenilib:zenilib.obj
 0002:0004f880       ?serialize@Zeni@@YAAAV?$basic_ostream@DU?$char_traits@D@std@@@std@@AAV23@ABH@Z 004d0880 f   Zenilib:zenilib.obj
 0002:0004f930       ?serialize@Zeni@@YAAAV?$basic_ostream@DU?$char_traits@D@std@@@std@@AAV23@ABI@Z 004d0930 f   Zenilib:zenilib.obj
 0002:0004f9e0       ?serialize@Zeni@@YAAAV?$basic_ostream@DU?$char_traits@D@std@@@std@@AAV23@ABF@Z 004d09e0 f   Zenilib:zenilib.obj
 0002:0004fa90       ?serialize@Zeni@@YAAAV?$basic_ostream@DU?$char_traits@D@std@@@std@@AAV23@ABG@Z 004d0a90 f   Zenilib:zenilib.obj
 0002:0004fb40       ?serialize@Zeni@@YAAAV?$basic_ostream@DU?$char_traits@D@std@@@std@@AAV23@ABC@Z 004d0b40 f   Zenilib:zenilib.obj
 0002:0004fba0       ?serialize@Zeni@@YAAAV?$basic_ostream@DU?$char_traits@D@std@@@std@@AAV23@ABD@Z 004d0ba0 f   Zenilib:zenilib.obj
 0002:0004fc00       ?serialize@Zeni@@YAAAV?$basic_ostream@DU?$char_traits@D@std@@@std@@AAV23@ABE@Z 004d0c00 f   Zenilib:zenilib.obj
 0002:0004fc60       ?serialize@Zeni@@YAAAV?$basic_ostream@DU?$char_traits@D@std@@@std@@AAV23@ABM@Z 004d0c60 f   Zenilib:zenilib.obj
 0002:0004fcc0       ?serialize@Zeni@@YAAAV?$basic_ostream@DU?$char_traits@D@std@@@std@@AAV23@ABN@Z 004d0cc0 f   Zenilib:zenilib.obj
 0002:0004fd20       ?serialize@Zeni@@YAAAV?$basic_ostream@DU?$char_traits@D@std@@@std@@AAV23@AB_N@Z 004d0d20 f   Zenilib:zenilib.obj
 0002:0004fd90       ?serialize@Zeni@@YAAAV?$basic_ostream@DU?$char_traits@D@std@@@std@@AAV23@ABUPoint2i@1@@Z 004d0d90 f   Zenilib:zenilib.obj
 0002:0004fe00       ?serialize@Zeni@@YAAAV?$basic_ostream@DU?$char_traits@D@std@@@std@@AAV23@ABUPoint2f@1@@Z 004d0e00 f   Zenilib:zenilib.obj
 0002:0004fe70       ?serialize@Zeni@@YAAAV?$basic_ostream@DU?$char_traits@D@std@@@std@@AAV23@ABUPoint3i@1@@Z 004d0e70 f   Zenilib:zenilib.obj
 0002:0004fef0       ?serialize@Zeni@@YAAAV?$basic_ostream@DU?$char_traits@D@std@@@std@@AAV23@ABUPoint3f@1@@Z 004d0ef0 f   Zenilib:zenilib.obj
 0002:0004ff70       ?serialize@Zeni@@YAAAV?$basic_ostream@DU?$char_traits@D@std@@@std@@AAV23@ABUVector3f@1@@Z 004d0f70 f   Zenilib:zenilib.obj
 0002:0004fff0       ?serialize@Zeni@@YAAAV?$basic_ostream@DU?$char_traits@D@std@@@std@@AAV23@ABUQuaternion@1@@Z 004d0ff0 f   Zenilib:zenilib.obj
 0002:00050060       ?serialize@Zeni@@YAAAV?$basic_ostream@DU?$char_traits@D@std@@@std@@AAV23@ABUIPaddress@@@Z 004d1060 f   Zenilib:zenilib.obj
 0002:000500d0       ?unserialize@Zeni@@YAAAV?$basic_istream@DU?$char_traits@D@std@@@std@@AAV23@AAH@Z 004d10d0 f   Zenilib:zenilib.obj
 0002:000501c0       ?unserialize@Zeni@@YAAAV?$basic_istream@DU?$char_traits@D@std@@@std@@AAV23@AAI@Z 004d11c0 f   Zenilib:zenilib.obj
 0002:000502b0       ?unserialize@Zeni@@YAAAV?$basic_istream@DU?$char_traits@D@std@@@std@@AAV23@AAF@Z 004d12b0 f   Zenilib:zenilib.obj
 0002:000503a0       ?unserialize@Zeni@@YAAAV?$basic_istream@DU?$char_traits@D@std@@@std@@AAV23@AAG@Z 004d13a0 f   Zenilib:zenilib.obj
 0002:00050490       ?unserialize@Zeni@@YAAAV?$basic_istream@DU?$char_traits@D@std@@@std@@AAV23@AAC@Z 004d1490 f   Zenilib:zenilib.obj
 0002:000504f0       ?unserialize@Zeni@@YAAAV?$basic_istream@DU?$char_traits@D@std@@@std@@AAV23@AAD@Z 004d14f0 f   Zenilib:zenilib.obj
 0002:00050550       ?unserialize@Zeni@@YAAAV?$basic_istream@DU?$char_traits@D@std@@@std@@AAV23@AAE@Z 004d1550 f   Zenilib:zenilib.obj
 0002:000505b0       ?unserialize@Zeni@@YAAAV?$basic_istream@DU?$char_traits@D@std@@@std@@AAV23@AAM@Z 004d15b0 f   Zenilib:zenilib.obj
 0002:00050610       ?unserialize@Zeni@@YAAAV?$basic_istream@DU?$char_traits@D@std@@@std@@AAV23@AAN@Z 004d1610 f   Zenilib:zenilib.obj
 0002:00050670       ?unserialize@Zeni@@YAAAV?$basic_istream@DU?$char_traits@D@std@@@std@@AAV23@AA_N@Z 004d1670 f   Zenilib:zenilib.obj
 0002:00050750       ?unserialize@Zeni@@YAAAV?$basic_istream@DU?$char_traits@D@std@@@std@@AAV23@AAUPoint2i@1@@Z 004d1750 f   Zenilib:zenilib.obj
 0002:000507c0       ?unserialize@Zeni@@YAAAV?$basic_istream@DU?$char_traits@D@std@@@std@@AAV23@AAUPoint2f@1@@Z 004d17c0 f   Zenilib:zenilib.obj
 0002:00050830       ?unserialize@Zeni@@YAAAV?$basic_istream@DU?$char_traits@D@std@@@std@@AAV23@AAUPoint3i@1@@Z 004d1830 f   Zenilib:zenilib.obj
 0002:000508b0       ?unserialize@Zeni@@YAAAV?$basic_istream@DU?$char_traits@D@std@@@std@@AAV23@AAUPoint3f@1@@Z 004d18b0 f   Zenilib:zenilib.obj
 0002:00050930       ?unserialize@Zeni@@YAAAV?$basic_istream@DU?$char_traits@D@std@@@std@@AAV23@AAUVector3f@1@@Z 004d1930 f   Zenilib:zenilib.obj
 0002:000509b0       ?unserialize@Zeni@@YAAAV?$basic_istream@DU?$char_traits@D@std@@@std@@AAV23@AAUQuaternion@1@@Z 004d19b0 f   Zenilib:zenilib.obj
 0002:00050a20       ?unserialize@Zeni@@YAAAV?$basic_istream@DU?$char_traits@D@std@@@std@@AAV23@AAUIPaddress@@@Z 004d1a20 f   Zenilib:zenilib.obj
 0002:00050b20       ??0Quaternion@Zeni@@QAE@ABMABUVector3f@1@@Z 004d1b20 f   Zenilib:zenilib.obj
 0002:00050b90       ??0Quaternion@Zeni@@QAE@ABUVector3f@1@ABM@Z 004d1b90 f   Zenilib:zenilib.obj
 0002:00050c70       ?cos@@YAMM@Z               004d1c70 f i Zenilib:zenilib.obj
 0002:00050cd0       _cosf                      004d1cd0 f i Zenilib:zenilib.obj
 0002:00050d40       ?sin@@YAMM@Z               004d1d40 f i Zenilib:zenilib.obj
 0002:00050da0       _sinf                      004d1da0 f i Zenilib:zenilib.obj
 0002:00050e10       ??0Quaternion@Zeni@@QAE@ABM00@Z 004d1e10 f   Zenilib:zenilib.obj
 0002:00050fe0       ??0Quaternion@Zeni@@QAE@ABU01@@Z 004d1fe0 f   Zenilib:zenilib.obj
 0002:00051060       ?get_distance@Renderable@Zeni@@QBEMABV12@@Z 004d2060 f   Zenilib:zenilib.obj
 0002:000510e0       ?get_distance@Renderable@Zeni@@QBEMABUPoint3f@2@@Z 004d20e0 f   Zenilib:zenilib.obj
 0002:00051210       ?get_duplicate@Render_Wrapper@Zeni@@UBEPAV12@XZ 004d2210 f   Zenilib:zenilib.obj
 0002:000512a0       ??0Material_Render_Wrapper@Zeni@@QAE@ABVMaterial@1@@Z 004d22a0 f   Zenilib:zenilib.obj
 0002:00051370       ??_GMaterial_Render_Wrapper@Zeni@@UAEPAXI@Z 004d2370 f i Zenilib:zenilib.obj
 0002:00051370       ??_EMaterial_Render_Wrapper@Zeni@@UAEPAXI@Z 004d2370 f i Zenilib:zenilib.obj
 0002:000513e0       ??0Material@Zeni@@QAE@ABV01@@Z 004d23e0 f i Zenilib:zenilib.obj
 0002:00051510       ??1Material_Render_Wrapper@Zeni@@UAE@XZ 004d2510 f i Zenilib:zenilib.obj
 0002:000515c0       ?prerender@Material_Render_Wrapper@Zeni@@UBEXXZ 004d25c0 f   Zenilib:zenilib.obj
 0002:00051630       ?set_material@Video@Zeni@@QAEXABVMaterial@2@ABH@Z 004d2630 f i Zenilib:zenilib.obj
 0002:00051700       ?set_material_impl@Video_DX9@Zeni@@QAEXABVMaterial@2@ABH@Z 004d2700 f i Zenilib:zenilib.obj
 0002:00051760       ?set_material_impl@Video_GL@Zeni@@QAEXABVMaterial@2@ABH@Z 004d2760 f i Zenilib:zenilib.obj
 0002:000517c0       ?postrender@Material_Render_Wrapper@Zeni@@UBEXXZ 004d27c0 f   Zenilib:zenilib.obj
 0002:00051830       ?unset_material@Video@Zeni@@QAEXABVMaterial@2@ABH@Z 004d2830 f i Zenilib:zenilib.obj
 0002:00051900       ?unset_material_impl@Video_DX9@Zeni@@QAEXABVMaterial@2@ABH@Z 004d2900 f i Zenilib:zenilib.obj
 0002:00051960       ?unset_material_impl@Video_GL@Zeni@@QAEXABVMaterial@2@ABH@Z 004d2960 f i Zenilib:zenilib.obj
 0002:000519c0       ?get_duplicate@Material_Render_Wrapper@Zeni@@UBEPAVRender_Wrapper@2@XZ 004d29c0 f   Zenilib:zenilib.obj
 0002:00051ab0       ?optimize_to_follow@Material_Render_Wrapper@Zeni@@QAEXABV12@@Z 004d2ab0 f   Zenilib:zenilib.obj
 0002:00051c90       ?get_ambient@Material@Zeni@@QBEABVColor@2@XZ 004d2c90 f i Zenilib:zenilib.obj
 0002:00051cd0       ?get_diffuse@Material@Zeni@@QBEABVColor@2@XZ 004d2cd0 f i Zenilib:zenilib.obj
 0002:00051d10       ?get_specular@Material@Zeni@@QBEABVColor@2@XZ 004d2d10 f i Zenilib:zenilib.obj
 0002:00051d50       ?get_emissive@Material@Zeni@@QBEABVColor@2@XZ 004d2d50 f i Zenilib:zenilib.obj
 0002:00051d90       ?get_power@Material@Zeni@@QBEMXZ 004d2d90 f i Zenilib:zenilib.obj
 0002:00051dd0       ?get_material@Material_Render_Wrapper@Zeni@@QBEABVMaterial@2@XZ 004d2dd0 f i Zenilib:zenilib.obj
 0002:00051e10       ?optimize_to_precede@Material_Render_Wrapper@Zeni@@QAEXABV12@@Z 004d2e10 f   Zenilib:zenilib.obj
 0002:00052000       ?clear_optimization@Material_Render_Wrapper@Zeni@@QAEXXZ 004d3000 f   Zenilib:zenilib.obj
 0002:00052050       ??0Resource@Zeni@@AAE@XZ   004d3050 f   Zenilib:zenilib.obj
 0002:000520b0       ?get_reference@Resource@Zeni@@SAAAV12@XZ 004d30b0 f   Zenilib:zenilib.obj
 0002:00052180       ??0Sound_Buffer@Zeni@@QAE@XZ 004d3180 f   Zenilib:zenilib.obj
 0002:000522b0       ??0Sound_Buffer_Init_Failure@Zeni@@QAE@XZ 004d32b0 f i Zenilib:zenilib.obj
 0002:000523a0       ??1Sound_Buffer_Init_Failure@Zeni@@QAE@XZ 004d33a0 f i Zenilib:zenilib.obj
 0002:000523f0       ??0Sound_Buffer_Init_Failure@Zeni@@QAE@ABU01@@Z 004d33f0 f i Zenilib:zenilib.obj
 0002:00052450       ??0Sound_Buffer@Zeni@@QAE@ABV01@@Z 004d3450 f   Zenilib:zenilib.obj
 0002:000525d0       ??0Sound_Buffer@Zeni@@QAE@ABV?$basic_string@DU?$char_traits@D@std@@V?$allocator@D@2@@std@@@Z 004d35d0 f   Zenilib:zenilib.obj
 0002:00052780       ??1Sound_Buffer@Zeni@@QAE@XZ 004d3780 f   Zenilib:zenilib.obj
 0002:000528a0       ??4Sound_Buffer@Zeni@@QAEAAV01@ABV01@@Z 004d38a0 f   Zenilib:zenilib.obj
 0002:000529e0       ?load_ogg_vorbis@Sound_Buffer@Zeni@@SAIABV?$basic_string@DU?$char_traits@D@std@@V?$allocator@D@2@@std@@@Z 004d39e0 f   Zenilib:zenilib.obj
 0002:00052d70       ??1?$_Vector_iterator@DV?$allocator@D@std@@@std@@QAE@XZ 004d3d70 f i Zenilib:zenilib.obj
 0002:00052dc0       ??0?$_Vector_const_iterator@DV?$allocator@D@std@@@std@@QAE@ABV01@@Z 004d3dc0 f i Zenilib:zenilib.obj
 0002:00052e30       ??1?$_Vector_const_iterator@DV?$allocator@D@std@@@std@@QAE@XZ 004d3e30 f i Zenilib:zenilib.obj
 0002:00052e80       ??0?$_Ranit@DHPBDABD@std@@QAE@ABU01@@Z 004d3e80 f i Zenilib:zenilib.obj
 0002:00052ee0       ??1?$_Ranit@DHPBDABD@std@@QAE@XZ 004d3ee0 f i Zenilib:zenilib.obj
 0002:00052f30       ??0?$_Iterator_with_base@Urandom_access_iterator_tag@std@@DHPBDABDV_Iterator_base@2@@std@@QAE@ABU01@@Z 004d3f30 f i Zenilib:zenilib.obj
 0002:00052f90       ??1?$_Iterator_with_base@Urandom_access_iterator_tag@std@@DHPBDABDV_Iterator_base@2@@std@@QAE@XZ 004d3f90 f i Zenilib:zenilib.obj
 0002:00052fe0       ??0Loader@Sound_Buffer@Zeni@@QAE@ABV?$basic_string@DU?$char_traits@D@std@@V?$allocator@D@2@@std@@@Z 004d3fe0 f   Zenilib:zenilib.obj
 0002:000530b0       ??_ELoader@Sound_Buffer@Zeni@@UAEPAXI@Z 004d40b0 f i Zenilib:zenilib.obj
 0002:000530b0       ??_GLoader@Sound_Buffer@Zeni@@UAEPAXI@Z 004d40b0 f i Zenilib:zenilib.obj
 0002:00053120       ??1Loader@Sound_Buffer@Zeni@@UAE@XZ 004d4120 f i Zenilib:zenilib.obj
 0002:000531d0       ?function@Loader@Sound_Buffer@Zeni@@UAEHXZ 004d41d0 f   Zenilib:zenilib.obj
 0002:00053330       ?finish_loading@Sound_Buffer@Zeni@@ABEXXZ 004d4330 f   Zenilib:zenilib.obj
 0002:00053490       ??0Sound_Source@Zeni@@QAE@XZ 004d4490 f   Zenilib:zenilib.obj
 0002:000535d0       ?get_id@Sound_Buffer@Zeni@@QBEABIXZ 004d45d0 f i Zenilib:zenilib.obj
 0002:00053630       ??0Sound_Source@Zeni@@QAE@ABV01@@Z 004d4630 f   Zenilib:zenilib.obj
 0002:00053780       ??0Sound_Source@Zeni@@QAE@ABVSound_Buffer@1@ABM1ABUPoint3f@1@ABUVector3f@1@AB_N@Z 004d4780 f   Zenilib:zenilib.obj
 0002:00053810       ??0Sound_Source@Zeni@@QAE@ABIABM1ABUPoint3f@1@ABUVector3f@1@AB_N@Z 004d4810 f   Zenilib:zenilib.obj
 0002:00053890       ??1Sound_Source@Zeni@@QAE@XZ 004d4890 f   Zenilib:zenilib.obj
 0002:00053900       ?init@Sound_Source@Zeni@@AAEXABIABM1ABUPoint3f@2@ABUVector3f@2@AB_N@Z 004d4900 f   Zenilib:zenilib.obj
 0002:00053b70       ??0Sound_Source_Init_Failure@Zeni@@QAE@XZ 004d4b70 f i Zenilib:zenilib.obj
 0002:00053c60       ?set_near_clamp@Sound_Source@Zeni@@QAEXABM@Z 004d4c60 f i Zenilib:zenilib.obj
 0002:00053ce0       ?set_far_clamp@Sound_Source@Zeni@@QAEXABM@Z 004d4ce0 f i Zenilib:zenilib.obj
 0002:00053d60       ??1Sound_Source_Init_Failure@Zeni@@QAE@XZ 004d4d60 f i Zenilib:zenilib.obj
 0002:00053db0       ??0Sound_Source_Init_Failure@Zeni@@QAE@ABU01@@Z 004d4db0 f i Zenilib:zenilib.obj
 0002:00053e10       ??4Sound_Source@Zeni@@QAEAAV01@ABV01@@Z 004d4e10 f   Zenilib:zenilib.obj
 0002:00053f20       ??0Sound@Zeni@@AAE@XZ      004d4f20 f   Zenilib:zenilib.obj
 0002:00054210       ??0Sound_Init_Failure@Zeni@@QAE@XZ 004d5210 f i Zenilib:zenilib.obj
 0002:00054300       ??1Sound_Init_Failure@Zeni@@QAE@XZ 004d5300 f i Zenilib:zenilib.obj
 0002:00054350       ??0Sound_Init_Failure@Zeni@@QAE@ABU01@@Z 004d5350 f i Zenilib:zenilib.obj
 0002:000543b0       ??1Sound@Zeni@@AAE@XZ      004d53b0 f   Zenilib:zenilib.obj
 0002:00054510       ??_GSound_Buffer@Zeni@@QAEPAXI@Z 004d5510 f i Zenilib:zenilib.obj
 0002:00054580       ?get_reference@Sound@Zeni@@SAAAV12@XZ 004d5580 f   Zenilib:zenilib.obj
 0002:00054650       ?set_BGM@Sound@Zeni@@QAEXABV?$basic_string@DU?$char_traits@D@std@@V?$allocator@D@2@@std@@@Z 004d5650 f   Zenilib:zenilib.obj
 0002:00054980       ?get_pitch@Sound_Source@Zeni@@QBEMXZ 004d5980 f i Zenilib:zenilib.obj
 0002:00054a40       ?get_gain@Sound_Source@Zeni@@QBEMXZ 004d5a40 f i Zenilib:zenilib.obj
 0002:00054af0       ?get_position@Sound_Source@Zeni@@QBE?AUPoint3f@2@XZ 004d5af0 f i Zenilib:zenilib.obj
 0002:00054bd0       ?get_velocity@Sound_Source@Zeni@@QBE?AUVector3f@2@XZ 004d5bd0 f i Zenilib:zenilib.obj
 0002:00054ca0       ?is_looping@Sound_Source@Zeni@@QBE_NXZ 004d5ca0 f i Zenilib:zenilib.obj
 0002:00054d60       ?stop@Sound_Source@Zeni@@QAEXXZ 004d5d60 f i Zenilib:zenilib.obj
 0002:00054dd0       ?assert_m_bgm@Sound@Zeni@@AAEXXZ 004d5dd0 f   Zenilib:zenilib.obj
 0002:00055080       ??0Sounds@Zeni@@AAE@XZ     004d6080 f   Zenilib:zenilib.obj
 0002:000551b0       ??1?$hash_map@KVSound_Buffer@Zeni@@V?$hash_compare@KU?$less@K@std@@@stdext@@V?$allocator@U?$pair@$$CBKVSound_Buffer@Zeni@@@std@@@std@@@stdext@@QAE@XZ 004d61b0 f i Zenilib:zenilib.obj
 0002:00055200       ??1Sounds@Zeni@@AAE@XZ     004d6200 f   Zenilib:zenilib.obj
 0002:000552d0       ?get_reference@Sounds@Zeni@@SAAAV12@XZ 004d62d0 f   Zenilib:zenilib.obj
 0002:000553a0       ?set_sound@Sounds@Zeni@@QAEKABV?$basic_string@DU?$char_traits@D@std@@V?$allocator@D@2@@std@@0@Z 004d63a0 f   Zenilib:zenilib.obj
 0002:000554f0       ?clear_sound@Sounds@Zeni@@QAEXABV?$basic_string@DU?$char_traits@D@std@@V?$allocator@D@2@@std@@@Z 004d64f0 f   Zenilib:zenilib.obj
 0002:000556d0       ??0Sound_Effect_Not_Found@Zeni@@QAE@ABV?$basic_string@DU?$char_traits@D@std@@V?$allocator@D@2@@std@@@Z 004d66d0 f i Zenilib:zenilib.obj
 0002:00055840       ??1Sound_Effect_Not_Found@Zeni@@QAE@XZ 004d6840 f i Zenilib:zenilib.obj
 0002:00055890       ??0Sound_Effect_Not_Found@Zeni@@QAE@ABU01@@Z 004d6890 f i Zenilib:zenilib.obj
 0002:000558f0       ?get_sound_id@Sounds@Zeni@@QBEKABV?$basic_string@DU?$char_traits@D@std@@V?$allocator@D@2@@std@@@Z 004d68f0 f   Zenilib:zenilib.obj
 0002:00055b00       ?get_sound@Sounds@Zeni@@QBEABVSound_Buffer@2@ABV?$basic_string@DU?$char_traits@D@std@@V?$allocator@D@2@@std@@@Z 004d6b00 f   Zenilib:zenilib.obj
 0002:00055b70       ?get_sound@Sounds@Zeni@@QBEABVSound_Buffer@2@ABK@Z 004d6b70 f   Zenilib:zenilib.obj
 0002:00055d90       ??1?$_Const_iterator@$00@?$list@U?$pair@$$CBKVSound_Buffer@Zeni@@@std@@V?$allocator@U?$pair@$$CBKVSound_Buffer@Zeni@@@std@@@2@@std@@QAE@XZ 004d6d90 f i Zenilib:zenilib.obj
 0002:00055de0       ??1?$_Bidit@U?$pair@$$CBKVSound_Buffer@Zeni@@@std@@HPBU12@ABU12@@std@@QAE@XZ 004d6de0 f i Zenilib:zenilib.obj
 0002:00055e30       ??1?$_Iterator_with_base@Ubidirectional_iterator_tag@std@@U?$pair@$$CBKVSound_Buffer@Zeni@@@2@HPBU32@ABU32@V_Iterator_base@2@@std@@QAE@XZ 004d6e30 f i Zenilib:zenilib.obj
 0002:00055e80       ?reload@Sounds@Zeni@@QAEXABV?$basic_string@DU?$char_traits@D@std@@V?$allocator@D@2@@std@@@Z 004d6e80 f   Zenilib:zenilib.obj
 0002:00055f10       ?init@Sounds@Zeni@@AAEXXZ  004d6f10 f   Zenilib:zenilib.obj
 0002:000563b0       ??0Sounds_Init_Failure@Zeni@@QAE@XZ 004d73b0 f i Zenilib:zenilib.obj
 0002:000564a0       ??1Sounds_Init_Failure@Zeni@@QAE@XZ 004d74a0 f i Zenilib:zenilib.obj
 0002:000564f0       ??0Sounds_Init_Failure@Zeni@@QAE@ABU01@@Z 004d74f0 f i Zenilib:zenilib.obj
 0002:00056550       ??0Sprite@Zeni@@QAE@XZ     004d7550 f   Zenilib:zenilib.obj
 0002:00056630       ??0Texture@Zeni@@QAE@ABW4VTYPE@Texture_Base@1@@Z 004d7630 f i Zenilib:zenilib.obj
 0002:000566a0       ??_GSprite@Zeni@@UAEPAXI@Z 004d76a0 f i Zenilib:zenilib.obj
 0002:000566a0       ??_ESprite@Zeni@@UAEPAXI@Z 004d76a0 f i Zenilib:zenilib.obj
 0002:00056710       ??0Sprite@Zeni@@QAE@ABV01@@Z 004d7710 f   Zenilib:zenilib.obj
 0002:000567e0       ??0Texture@Zeni@@QAE@ABV01@@Z 004d77e0 f i Zenilib:zenilib.obj
 0002:00056860       ??4Sprite@Zeni@@QAEAAV01@ABV01@@Z 004d7860 f   Zenilib:zenilib.obj
 0002:00056980       ?append_frame@Sprite@Zeni@@QAEXABV?$basic_string@DU?$char_traits@D@std@@V?$allocator@D@2@@std@@@Z 004d7980 f   Zenilib:zenilib.obj
 0002:00056aa0       ?find_frame@Sprite@Zeni@@QBEHABV?$basic_string@DU?$char_traits@D@std@@V?$allocator@D@2@@std@@ABH@Z 004d7aa0 f   Zenilib:zenilib.obj
 0002:00056b90       ?insert_frame@Sprite@Zeni@@QAEXABV?$basic_string@DU?$char_traits@D@std@@V?$allocator@D@2@@std@@ABH@Z 004d7b90 f   Zenilib:zenilib.obj
 0002:00056da0       ??4?$pair@V?$basic_string@DU?$char_traits@D@std@@V?$allocator@D@2@@std@@K@std@@QAEAAU01@ABU01@@Z 004d7da0 f i Zenilib:zenilib.obj
 0002:00056e20       ?remove_frame@Sprite@Zeni@@QAEXABH@Z 004d7e20 f   Zenilib:zenilib.obj
 0002:00056f20       ?get_num_frames@Sprite@Zeni@@QBEHXZ 004d7f20 f   Zenilib:zenilib.obj
 0002:00056f80       ?get_current_frame@Sprite@Zeni@@QBEHXZ 004d7f80 f   Zenilib:zenilib.obj
 0002:00056ff0       ?set_current_frame@Sprite@Zeni@@QAEXABH@Z 004d7ff0 f   Zenilib:zenilib.obj
 0002:00057090       ??0Texture_GL@Zeni@@QAE@ABV?$basic_string@DU?$char_traits@D@std@@V?$allocator@D@2@@std@@AB_NAAVVideo_GL@1@@Z 004d8090 f   Zenilib:zenilib.obj
 0002:00057190       ??_GTexture_GL@Zeni@@UAEPAXI@Z 004d8190 f i Zenilib:zenilib.obj
 0002:00057190       ??_ETexture_GL@Zeni@@UAEPAXI@Z 004d8190 f i Zenilib:zenilib.obj
 0002:00057200       ??0Texture_GL@Zeni@@QAE@PAUSDL_Surface@@AB_N@Z 004d8200 f   Zenilib:zenilib.obj
 0002:00057320       ??1Texture_GL@Zeni@@UAE@XZ 004d8320 f   Zenilib:zenilib.obj
 0002:00057410       ?build_from_surface@Texture_GL@Zeni@@CAIPAUSDL_Surface@@AB_N@Z 004d8410 f   Zenilib:zenilib.obj
 0002:00057b30       ??0Invalid_Anisotropy_Setting@Zeni@@QAE@XZ 004d8b30 f i Zenilib:zenilib.obj
 0002:00057c20       ??0Texture_Init_Failure@Zeni@@QAE@XZ 004d8c20 f i Zenilib:zenilib.obj
 0002:00057d10       ?get_maximum_anisotropy@Video@Zeni@@QBEHXZ 004d8d10 f i Zenilib:zenilib.obj
 0002:00057dd0       ?get_maximum_anisotropy_impl@Video_DX9@Zeni@@QBEHXZ 004d8dd0 f i Zenilib:zenilib.obj
 0002:00057e10       ?get_maximum_anisotropy_impl@Video_GL@Zeni@@QBEHXZ 004d8e10 f i Zenilib:zenilib.obj
 0002:00057e50       ??1Texture_Init_Failure@Zeni@@QAE@XZ 004d8e50 f i Zenilib:zenilib.obj
 0002:00057ea0       ??1Invalid_Anisotropy_Setting@Zeni@@QAE@XZ 004d8ea0 f i Zenilib:zenilib.obj
 0002:00057ef0       ??0Texture_Init_Failure@Zeni@@QAE@ABU01@@Z 004d8ef0 f i Zenilib:zenilib.obj
 0002:00057f50       ??0Invalid_Anisotropy_Setting@Zeni@@QAE@ABU01@@Z 004d8f50 f i Zenilib:zenilib.obj
 0002:00057fb0       ?load@Texture_GL@Zeni@@ABEXABV?$basic_string@DU?$char_traits@D@std@@V?$allocator@D@2@@std@@AB_N@Z 004d8fb0 f   Zenilib:zenilib.obj
 0002:00058070       ??0Texture_DX9@Zeni@@QAE@ABV?$basic_string@DU?$char_traits@D@std@@V?$allocator@D@2@@std@@AB_NAAVVideo_DX9@1@@Z 004d9070 f   Zenilib:zenilib.obj
 0002:00058150       ??_GTexture_DX9@Zeni@@UAEPAXI@Z 004d9150 f i Zenilib:zenilib.obj
 0002:00058150       ??_ETexture_DX9@Zeni@@UAEPAXI@Z 004d9150 f i Zenilib:zenilib.obj
 0002:000581c0       ??1Texture_DX9@Zeni@@UAE@XZ 004d91c0 f   Zenilib:zenilib.obj
 0002:00058290       ?load@Texture_DX9@Zeni@@ABEXABV?$basic_string@DU?$char_traits@D@std@@V?$allocator@D@2@@std@@AB_N@Z 004d9290 f   Zenilib:zenilib.obj
 0002:00058690       ??0Textures@Zeni@@AAE@XZ   004d9690 f   Zenilib:zenilib.obj
 0002:00058770       ??1?$hash_map@KPAVTexture@Zeni@@V?$hash_compare@KU?$less@K@std@@@stdext@@V?$allocator@U?$pair@$$CBKPAVTexture@Zeni@@@std@@@std@@@stdext@@QAE@XZ 004d9770 f i Zenilib:zenilib.obj
 0002:000587c0       ??1Textures@Zeni@@AAE@XZ   004d97c0 f   Zenilib:zenilib.obj
 0002:00058890       ?get_reference@Textures@Zeni@@SAAAV12@XZ 004d9890 f   Zenilib:zenilib.obj
 0002:00058960       ?set_texture@Textures@Zeni@@QAEKABV?$basic_string@DU?$char_traits@D@std@@V?$allocator@D@2@@std@@QAVTexture@2@@Z 004d9960 f   Zenilib:zenilib.obj
 0002:00058c90       ??0Null_Texture_Set@Zeni@@QAE@XZ 004d9c90 f i Zenilib:zenilib.obj
 0002:00058d80       ??1?$_Iterator@$00@?$list@U?$pair@$$CBKPAVTexture@Zeni@@@std@@V?$allocator@U?$pair@$$CBKPAVTexture@Zeni@@@std@@@2@@std@@QAE@XZ 004d9d80 f i Zenilib:zenilib.obj
 0002:00058dd0       ??0?$_Const_iterator@$00@?$list@U?$pair@$$CBKPAVTexture@Zeni@@@std@@V?$allocator@U?$pair@$$CBKPAVTexture@Zeni@@@std@@@2@@std@@QAE@ABV012@@Z 004d9dd0 f i Zenilib:zenilib.obj
 0002:00058e40       ??1?$_Const_iterator@$00@?$list@U?$pair@$$CBKPAVTexture@Zeni@@@std@@V?$allocator@U?$pair@$$CBKPAVTexture@Zeni@@@std@@@2@@std@@QAE@XZ 004d9e40 f i Zenilib:zenilib.obj
 0002:00058e90       ??1Null_Texture_Set@Zeni@@QAE@XZ 004d9e90 f i Zenilib:zenilib.obj
 0002:00058ee0       ??0Null_Texture_Set@Zeni@@QAE@ABU01@@Z 004d9ee0 f i Zenilib:zenilib.obj
 0002:00058f40       ??0?$_Bidit@U?$pair@$$CBKPAVTexture@Zeni@@@std@@HPBU12@ABU12@@std@@QAE@ABU01@@Z 004d9f40 f i Zenilib:zenilib.obj
 0002:00058fa0       ??1?$_Bidit@U?$pair@$$CBKPAVTexture@Zeni@@@std@@HPBU12@ABU12@@std@@QAE@XZ 004d9fa0 f i Zenilib:zenilib.obj
 0002:00058ff0       ??0?$_Iterator_with_base@Ubidirectional_iterator_tag@std@@U?$pair@$$CBKPAVTexture@Zeni@@@2@HPBU32@ABU32@V_Iterator_base@2@@std@@QAE@ABU01@@Z 004d9ff0 f i Zenilib:zenilib.obj
 0002:00059050       ??1?$_Iterator_with_base@Ubidirectional_iterator_tag@std@@U?$pair@$$CBKPAVTexture@Zeni@@@2@HPBU32@ABU32@V_Iterator_base@2@@std@@QAE@XZ 004da050 f i Zenilib:zenilib.obj
 0002:000590a0       ?clear_texture@Textures@Zeni@@QAEXABV?$basic_string@DU?$char_traits@D@std@@V?$allocator@D@2@@std@@@Z 004da0a0 f   Zenilib:zenilib.obj
 0002:00059280       ??0Texture_Not_Found@Zeni@@QAE@ABV?$basic_string@DU?$char_traits@D@std@@V?$allocator@D@2@@std@@@Z 004da280 f i Zenilib:zenilib.obj
 0002:000593f0       ??1Texture_Not_Found@Zeni@@QAE@XZ 004da3f0 f i Zenilib:zenilib.obj
 0002:00059440       ??0Texture_Not_Found@Zeni@@QAE@ABU01@@Z 004da440 f i Zenilib:zenilib.obj
 0002:000594a0       ?get_texture_id@Textures@Zeni@@QBEKABV?$basic_string@DU?$char_traits@D@std@@V?$allocator@D@2@@std@@@Z 004da4a0 f   Zenilib:zenilib.obj
 0002:000596b0       ?get_texture@Textures@Zeni@@QBEPAVTexture@2@ABK@Z 004da6b0 f   Zenilib:zenilib.obj
 0002:00059950       ?get_texture@Textures@Zeni@@QBEPAVTexture@2@ABV?$basic_string@DU?$char_traits@D@std@@V?$allocator@D@2@@std@@@Z 004da950 f   Zenilib:zenilib.obj
 0002:000599c0       ?apply_texture@Textures@Zeni@@QAEXABV?$basic_string@DU?$char_traits@D@std@@V?$allocator@D@2@@std@@@Z 004da9c0 f   Zenilib:zenilib.obj
 0002:00059b90       ?apply_texture@Textures@Zeni@@QAEXABK@Z 004dab90 f   Zenilib:zenilib.obj
 0002:00059df0       ?is_sprite@Textures@Zeni@@QAE_NABK@Z 004dadf0 f   Zenilib:zenilib.obj
 0002:0005a070       ?get_num_frames@Textures@Zeni@@QAEHABK@Z 004db070 f   Zenilib:zenilib.obj
 0002:0005a330       ?get_current_frame@Textures@Zeni@@QAEHABK@Z 004db330 f   Zenilib:zenilib.obj
 0002:0005a5e0       ?set_current_frame@Textures@Zeni@@QAEXABKABH@Z 004db5e0 f   Zenilib:zenilib.obj
 0002:0005a890       ?set_texturing_mode@Textures@Zeni@@SAXABHAB_N1@Z 004db890 f   Zenilib:zenilib.obj
 0002:0005a9d0       ?reload@Textures@Zeni@@QAEXABV?$basic_string@DU?$char_traits@D@std@@V?$allocator@D@2@@std@@@Z 004db9d0 f   Zenilib:zenilib.obj
 0002:0005aa60       ?reload@Textures@Zeni@@QAEXXZ 004dba60 f   Zenilib:zenilib.obj
 0002:0005aac0       ?init@Textures@Zeni@@AAEXXZ 004dbac0 f   Zenilib:zenilib.obj
 0002:0005af90       ?load_Texture@Video@Zeni@@QAEPAVTexture@2@ABV?$basic_string@DU?$char_traits@D@std@@V?$allocator@D@2@@std@@AB_N@Z 004dbf90 f i Zenilib:zenilib.obj
 0002:0005b060       ?load_Texture_impl@Video_DX9@Zeni@@QAEPAVTexture@2@ABV?$basic_string@DU?$char_traits@D@std@@V?$allocator@D@2@@std@@AB_N@Z 004dc060 f i Zenilib:zenilib.obj
 0002:0005b160       ?load_Texture_impl@Video_GL@Zeni@@QAEPAVTexture@2@ABV?$basic_string@DU?$char_traits@D@std@@V?$allocator@D@2@@std@@AB_N@Z 004dc160 f i Zenilib:zenilib.obj
 0002:0005b260       ?uninit@Textures@Zeni@@AAEXXZ 004dc260 f   Zenilib:zenilib.obj
 0002:0005b450       ?lose_resources@Textures@Zeni@@QAEXXZ 004dc450 f   Zenilib:zenilib.obj
 0002:0005b790       ?run_task@Zeni@@YAHPAX@Z   004dc790 f   Zenilib:zenilib.obj
 0002:0005b9e0       ?broadcast@Condition_Variable@Zeni@@QAEXXZ 004dc9e0 f i Zenilib:zenilib.obj
 0002:0005ba60       ??0CV_Broadcast_Failure@Zeni@@QAE@XZ 004dca60 f i Zenilib:zenilib.obj
 0002:0005bb50       ??1CV_Broadcast_Failure@Zeni@@QAE@XZ 004dcb50 f i Zenilib:zenilib.obj
 0002:0005bba0       ??0CV_Broadcast_Failure@Zeni@@QAE@ABU01@@Z 004dcba0 f i Zenilib:zenilib.obj
 0002:0005bc00       ?run@Task@Zeni@@QAEHXZ     004dcc00 f i Zenilib:zenilib.obj
 0002:0005be00       ??1iterator@?$_Tree@V?$_Tset_traits@PBVTask@Zeni@@U?$less@PBVTask@Zeni@@@std@@V?$allocator@PBVTask@Zeni@@@4@$0A@@std@@@std@@QAE@XZ 004dce00 f i Zenilib:zenilib.obj
 0002:0005be50       ??0const_iterator@?$_Tree@V?$_Tset_traits@PBVTask@Zeni@@U?$less@PBVTask@Zeni@@@std@@V?$allocator@PBVTask@Zeni@@@4@$0A@@std@@@std@@QAE@ABV012@@Z 004dce50 f i Zenilib:zenilib.obj
 0002:0005bec0       ??1const_iterator@?$_Tree@V?$_Tset_traits@PBVTask@Zeni@@U?$less@PBVTask@Zeni@@@std@@V?$allocator@PBVTask@Zeni@@@4@$0A@@std@@@std@@QAE@XZ 004dcec0 f i Zenilib:zenilib.obj
 0002:0005bf10       ??0?$_Bidit@PBVTask@Zeni@@HPBQBV12@ABQBV12@@std@@QAE@ABU01@@Z 004dcf10 f i Zenilib:zenilib.obj
 0002:0005bf70       ??1?$_Bidit@PBVTask@Zeni@@HPBQBV12@ABQBV12@@std@@QAE@XZ 004dcf70 f i Zenilib:zenilib.obj
 0002:0005bfc0       ??0?$_Iterator_with_base@Ubidirectional_iterator_tag@std@@PBVTask@Zeni@@HPBQBV34@ABQBV34@V_Iterator_base@2@@std@@QAE@ABU01@@Z 004dcfc0 f i Zenilib:zenilib.obj
 0002:0005c020       ??1?$_Iterator_with_base@Ubidirectional_iterator_tag@std@@PBVTask@Zeni@@HPBQBV34@ABQBV34@V_Iterator_base@2@@std@@QAE@XZ 004dd020 f i Zenilib:zenilib.obj
 0002:0005c070       ?run_repeatable_task@Zeni@@YAHPAX@Z 004dd070 f   Zenilib:zenilib.obj
 0002:0005c400       ??0Thread@Zeni@@QAE@P6AHPAX@Z0QAH@Z 004dd400 f   Zenilib:zenilib.obj
 0002:0005c490       ??0Thread@Zeni@@QAE@AAVTask@1@@Z 004dd490 f   Zenilib:zenilib.obj
 0002:0005c520       ??0Thread@Zeni@@QAE@AAVRepeatable_Task@1@@Z 004dd520 f   Zenilib:zenilib.obj
 0002:0005c5b0       ??1Thread@Zeni@@QAE@XZ     004dd5b0 f   Zenilib:zenilib.obj
 0002:0005c610       ?get_id@Thread@Zeni@@QAEIXZ 004dd610 f   Zenilib:zenilib.obj
 0002:0005c670       ??0Time@Zeni@@QAE@ABH@Z    004dd670 f   Zenilib:zenilib.obj
 0002:0005c6c0       ??0Time@Zeni@@QAE@XZ       004dd6c0 f   Zenilib:zenilib.obj
 0002:0005c720       ??0Timer@Zeni@@AAE@XZ      004dd720 f   Zenilib:zenilib.obj
 0002:0005c7c0       ?get_reference@Timer@Zeni@@SAAAV12@XZ 004dd7c0 f   Zenilib:zenilib.obj
 0002:0005c890       ??0Time_HQ@Zeni@@QAE@AB_J@Z 004dd890 f   Zenilib:zenilib.obj
 0002:0005c910       ?get_ticks_per_second@Timer_HQ@Zeni@@QAE_JXZ 004dd910 f i Zenilib:zenilib.obj
 0002:0005c950       ??0Time_HQ@Zeni@@QAE@AB_J0@Z 004dd950 f   Zenilib:zenilib.obj
 0002:0005c9c0       ??0Time_HQ@Zeni@@QAE@XZ    004dd9c0 f   Zenilib:zenilib.obj
 0002:0005ca40       ?get_ticks@Timer_HQ@Zeni@@QAE_JXZ 004dda40 f i Zenilib:zenilib.obj
 0002:0005cb50       ??0Timer_HQ@Zeni@@AAE@XZ   004ddb50 f   Zenilib:zenilib.obj
 0002:0005cc90       ?get_reference@Timer_HQ@Zeni@@SAAAV12@XZ 004ddc90 f   Zenilib:zenilib.obj
 0002:0005cd60       ?normalize@Vector3f@Zeni@@QAEAAU12@XZ 004ddd60 f   Zenilib:zenilib.obj
 0002:0005ce10       ?normalized@Vector3f@Zeni@@QBE?AU12@XZ 004dde10 f   Zenilib:zenilib.obj
 0002:0005cf00       ?theta@Vector3f@Zeni@@QBEMXZ 004ddf00 f   Zenilib:zenilib.obj
 0002:0005d000       ?phi@Vector3f@Zeni@@QBEMXZ 004de000 f   Zenilib:zenilib.obj
 0002:0005d0f0       ?set_spherical@Vector3f@Zeni@@QAEXABM00@Z 004de0f0 f   Zenilib:zenilib.obj
 0002:0005d1c0       ??0Vertex2f@Zeni@@QAE@ABUPoint2f@1@@Z 004de1c0 f   Zenilib:zenilib.obj
 0002:0005d240       ??_GVertex2f@Zeni@@UAEPAXI@Z 004de240 f i Zenilib:zenilib.obj
 0002:0005d240       ??_EVertex2f@Zeni@@UAEPAXI@Z 004de240 f i Zenilib:zenilib.obj
 0002:0005d2b0       ??1Vertex2f@Zeni@@UAE@XZ   004de2b0 f   Zenilib:zenilib.obj
 0002:0005d2f0       ?get_position@Vertex2f@Zeni@@UBE?AUPoint3f@2@XZ 004de2f0 f   Zenilib:zenilib.obj
 0002:0005d350       ?interpolate_to@Vertex2f_Color@Zeni@@QBEPAVVertex2f@2@ABMABV12@@Z 004de350 f   Zenilib:zenilib.obj
 0002:0005d5a0       ??0Vertex2f_Color@Zeni@@QAE@ABUPoint2f@1@ABVColor@1@@Z 004de5a0 f   Zenilib:zenilib.obj
 0002:0005d680       ??_GVertex2f_Color@Zeni@@UAEPAXI@Z 004de680 f i Zenilib:zenilib.obj
 0002:0005d680       ??_EVertex2f_Color@Zeni@@UAEPAXI@Z 004de680 f i Zenilib:zenilib.obj
 0002:0005d6f0       ??1Vertex2f_Color@Zeni@@UAE@XZ 004de6f0 f i Zenilib:zenilib.obj
 0002:0005d7a0       ??0Vertex2f_Color@Zeni@@QAE@ABUPoint2f@1@ABI@Z 004de7a0 f   Zenilib:zenilib.obj
 0002:0005d880       ?get_position@Vertex2f_Color@Zeni@@UBE?AUPoint3f@2@XZ 004de880 f   Zenilib:zenilib.obj
 0002:0005d8e0       ?render_to@Vertex2f_Color@Zeni@@UBEXAAVVideo_GL@2@@Z 004de8e0 f   Zenilib:zenilib.obj
 0002:0005d970       ?subrender_to@Vertex2f_Color@Zeni@@UBEXAAVVideo_GL@2@@Z 004de970 f   Zenilib:zenilib.obj
 0002:0005da80       ?render_to@Vertex2f_Color@Zeni@@UBEXAAVVideo_DX9@2@@Z 004dea80 f   Zenilib:zenilib.obj
 0002:0005db10       ??0Vertex2f_Texture@Zeni@@QAE@ABUPoint2f@1@0@Z 004deb10 f   Zenilib:zenilib.obj
 0002:0005dbf0       ??_GVertex2f_Texture@Zeni@@UAEPAXI@Z 004debf0 f i Zenilib:zenilib.obj
 0002:0005dbf0       ??_EVertex2f_Texture@Zeni@@UAEPAXI@Z 004debf0 f i Zenilib:zenilib.obj
 0002:0005dc60       ?interpolate_to@Vertex2f_Texture@Zeni@@QBEPAVVertex2f@2@ABMABV12@@Z 004dec60 f   Zenilib:zenilib.obj
 0002:0005de50       ?get_position@Vertex2f_Texture@Zeni@@UBE?AUPoint3f@2@XZ 004dee50 f   Zenilib:zenilib.obj
 0002:0005deb0       ?render_to@Vertex2f_Texture@Zeni@@UBEXAAVVideo_GL@2@@Z 004deeb0 f   Zenilib:zenilib.obj
 0002:0005df30       ?subrender_to@Vertex2f_Texture@Zeni@@UBEXAAVVideo_GL@2@@Z 004def30 f   Zenilib:zenilib.obj
 0002:0005e010       ?render_to@Vertex2f_Texture@Zeni@@UBEXAAVVideo_DX9@2@@Z 004df010 f   Zenilib:zenilib.obj
 0002:0005e090       ??0Vertex3f@Zeni@@QAE@ABUPoint3f@1@ABUVector3f@1@@Z 004df090 f   Zenilib:zenilib.obj
 0002:0005e120       ?get_position@Vertex3f@Zeni@@UBE?AUPoint3f@2@XZ 004df120 f i Zenilib:zenilib.obj
 0002:0005e180       ??_EVertex3f@Zeni@@UAEPAXI@Z 004df180 f i Zenilib:zenilib.obj
 0002:0005e180       ??_GVertex3f@Zeni@@UAEPAXI@Z 004df180 f i Zenilib:zenilib.obj
 0002:0005e1f0       ??1Vertex3f@Zeni@@UAE@XZ   004df1f0 f   Zenilib:zenilib.obj
 0002:0005e230       ?interpolate_to@Vertex3f_Color@Zeni@@QBEPAVVertex3f@2@ABMABV12@@Z 004df230 f   Zenilib:zenilib.obj
 0002:0005e490       ?get_normal@Vertex3f@Zeni@@QBEABUVector3f@2@XZ 004df490 f i Zenilib:zenilib.obj
 0002:0005e4d0       ??0Vertex3f_Color@Zeni@@QAE@ABUPoint3f@1@ABUVector3f@1@ABVColor@1@@Z 004df4d0 f   Zenilib:zenilib.obj
 0002:0005e5c0       ??_EVertex3f_Color@Zeni@@UAEPAXI@Z 004df5c0 f i Zenilib:zenilib.obj
 0002:0005e5c0       ??_GVertex3f_Color@Zeni@@UAEPAXI@Z 004df5c0 f i Zenilib:zenilib.obj
 0002:0005e630       ??0Vertex3f_Color@Zeni@@QAE@ABUPoint3f@1@ABUVector3f@1@ABJ@Z 004df630 f   Zenilib:zenilib.obj
 0002:0005e710       ??0Vertex3f_Color@Zeni@@QAE@ABUPoint3f@1@ABVColor@1@@Z 004df710 f   Zenilib:zenilib.obj
 0002:0005e800       ??0Vertex3f_Color@Zeni@@QAE@ABUPoint3f@1@ABI@Z 004df800 f   Zenilib:zenilib.obj
 0002:0005e8f0       ?get_position@Vertex3f_Color@Zeni@@UBE?AUPoint3f@2@XZ 004df8f0 f   Zenilib:zenilib.obj
 0002:0005e950       ?render_to@Vertex3f_Color@Zeni@@UBEXAAVVideo_GL@2@@Z 004df950 f   Zenilib:zenilib.obj
 0002:0005e9e0       ?subrender_to@Vertex3f_Color@Zeni@@UBEXAAVVideo_GL@2@@Z 004df9e0 f   Zenilib:zenilib.obj
 0002:0005eb80       ?render_to@Vertex3f_Color@Zeni@@UBEXAAVVideo_DX9@2@@Z 004dfb80 f   Zenilib:zenilib.obj
 0002:0005ec10       ??0Vertex3f_Texture@Zeni@@QAE@ABUPoint3f@1@ABUVector3f@1@ABUPoint2f@1@@Z 004dfc10 f   Zenilib:zenilib.obj
 0002:0005ecf0       ??_EVertex3f_Texture@Zeni@@UAEPAXI@Z 004dfcf0 f i Zenilib:zenilib.obj
 0002:0005ecf0       ??_GVertex3f_Texture@Zeni@@UAEPAXI@Z 004dfcf0 f i Zenilib:zenilib.obj
 0002:0005ed60       ??0Vertex3f_Texture@Zeni@@QAE@ABUPoint3f@1@ABUPoint2f@1@@Z 004dfd60 f   Zenilib:zenilib.obj
 0002:0005ee50       ?interpolate_to@Vertex3f_Texture@Zeni@@QBEPAVVertex3f@2@ABMABV12@@Z 004dfe50 f   Zenilib:zenilib.obj
 0002:0005f050       ?get_position@Vertex3f_Texture@Zeni@@UBE?AUPoint3f@2@XZ 004e0050 f   Zenilib:zenilib.obj
 0002:0005f0b0       ?render_to@Vertex3f_Texture@Zeni@@UBEXAAVVideo_GL@2@@Z 004e00b0 f   Zenilib:zenilib.obj
 0002:0005f130       ?subrender_to@Vertex3f_Texture@Zeni@@UBEXAAVVideo_GL@2@@Z 004e0130 f   Zenilib:zenilib.obj
 0002:0005f290       ?render_to@Vertex3f_Texture@Zeni@@UBEXAAVVideo_DX9@2@@Z 004e0290 f   Zenilib:zenilib.obj
 0002:0005f310       ??0Vertex_Buffer_Range@Vertex_Buffer@Zeni@@QAE@PAVRender_Wrapper@2@ABH1@Z 004e0310 f   Zenilib:zenilib.obj
 0002:0005f390       ??0Vertex_Buffer@Zeni@@QAE@XZ 004e0390 f   Zenilib:zenilib.obj
 0002:0005f490       ??_EVertex_Buffer@Zeni@@UAEPAXI@Z 004e0490 f i Zenilib:zenilib.obj
 0002:0005f490       ??_GVertex_Buffer@Zeni@@UAEPAXI@Z 004e0490 f i Zenilib:zenilib.obj
 0002:0005f500       ??1Vertex_Buffer@Zeni@@UAE@XZ 004e0500 f   Zenilib:zenilib.obj
 0002:0005f640       ?add_triangle@Vertex_Buffer@Zeni@@QAEXPAV?$Triangle@VVertex2f_Color@Zeni@@@2@@Z 004e0640 f   Zenilib:zenilib.obj
 0002:0005fa70       ?get_color@Vertex2f_Color@Zeni@@QBEABIXZ 004e0a70 f i Zenilib:zenilib.obj
 0002:0005fab0       ??0VBuf_Init_Failure@Zeni@@QAE@XZ 004e0ab0 f i Zenilib:zenilib.obj
 0002:0005fba0       ??1VBuf_Init_Failure@Zeni@@QAE@XZ 004e0ba0 f i Zenilib:zenilib.obj
 0002:0005fbf0       ??0VBuf_Init_Failure@Zeni@@QAE@ABU01@@Z 004e0bf0 f i Zenilib:zenilib.obj
 0002:0005fc50       ?add_triangle@Vertex_Buffer@Zeni@@QAEXPAV?$Triangle@VVertex2f_Texture@Zeni@@@2@@Z 004e0c50 f   Zenilib:zenilib.obj
 0002:00060090       ?get_texture_coordinate@Vertex2f_Texture@Zeni@@QBE?AUPoint2f@2@XZ 004e1090 f i Zenilib:zenilib.obj
 0002:000600e0       ?add_quadrilateral@Vertex_Buffer@Zeni@@QAEXPAV?$Quadrilateral@VVertex2f_Color@Zeni@@@2@@Z 004e10e0 f   Zenilib:zenilib.obj
 0002:000605d0       ?add_quadrilateral@Vertex_Buffer@Zeni@@QAEXPAV?$Quadrilateral@VVertex2f_Texture@Zeni@@@2@@Z 004e15d0 f   Zenilib:zenilib.obj
 0002:00060af0       ?add_triangle@Vertex_Buffer@Zeni@@QAEXPAV?$Triangle@VVertex3f_Color@Zeni@@@2@@Z 004e1af0 f   Zenilib:zenilib.obj
 0002:00060c20       ?add_triangle@Vertex_Buffer@Zeni@@QAEXPAV?$Triangle@VVertex3f_Texture@Zeni@@@2@@Z 004e1c20 f   Zenilib:zenilib.obj
 0002:00060d30       ?add_quadrilateral@Vertex_Buffer@Zeni@@QAEXPAV?$Quadrilateral@VVertex3f_Color@Zeni@@@2@@Z 004e1d30 f   Zenilib:zenilib.obj
 0002:00060f70       ?add_quadrilateral@Vertex_Buffer@Zeni@@QAEXPAV?$Quadrilateral@VVertex3f_Texture@Zeni@@@2@@Z 004e1f70 f   Zenilib:zenilib.obj
 0002:000611b0       ?debug_render@Vertex_Buffer@Zeni@@QAEXXZ 004e21b0 f   Zenilib:zenilib.obj
 0002:000612f0       ?sort_triangles@Vertex_Buffer@Zeni@@IAEXXZ 004e22f0 f   Zenilib:zenilib.obj
 0002:00061500       ??1?$_Vector_iterator@PAV?$Triangle@VVertex3f_Color@Zeni@@@Zeni@@V?$allocator@PAV?$Triangle@VVertex3f_Color@Zeni@@@Zeni@@@std@@@std@@QAE@XZ 004e2500 f i Zenilib:zenilib.obj
 0002:00061550       ??1?$_Vector_iterator@PAV?$Triangle@VVertex3f_Texture@Zeni@@@Zeni@@V?$allocator@PAV?$Triangle@VVertex3f_Texture@Zeni@@@Zeni@@@std@@@std@@QAE@XZ 004e2550 f i Zenilib:zenilib.obj
 0002:000615a0       ??1?$_Vector_const_iterator@PAV?$Triangle@VVertex3f_Color@Zeni@@@Zeni@@V?$allocator@PAV?$Triangle@VVertex3f_Color@Zeni@@@Zeni@@@std@@@std@@QAE@XZ 004e25a0 f i Zenilib:zenilib.obj
 0002:000615f0       ??1?$_Vector_const_iterator@PAV?$Triangle@VVertex3f_Texture@Zeni@@@Zeni@@V?$allocator@PAV?$Triangle@VVertex3f_Texture@Zeni@@@Zeni@@@std@@@std@@QAE@XZ 004e25f0 f i Zenilib:zenilib.obj
 0002:00061640       ??1?$_Ranit@PAV?$Triangle@VVertex3f_Color@Zeni@@@Zeni@@HPBQAV12@ABQAV12@@std@@QAE@XZ 004e2640 f i Zenilib:zenilib.obj
 0002:00061690       ??1?$_Ranit@PAV?$Triangle@VVertex3f_Texture@Zeni@@@Zeni@@HPBQAV12@ABQAV12@@std@@QAE@XZ 004e2690 f i Zenilib:zenilib.obj
 0002:000616e0       ??1?$_Iterator_with_base@Urandom_access_iterator_tag@std@@PAV?$Triangle@VVertex3f_Color@Zeni@@@Zeni@@HPBQAV34@ABQAV34@V_Iterator_base@2@@std@@QAE@XZ 004e26e0 f i Zenilib:zenilib.obj
 0002:00061730       ??1?$_Iterator_with_base@Urandom_access_iterator_tag@std@@PAV?$Triangle@VVertex3f_Texture@Zeni@@@Zeni@@HPBQAV34@ABQAV34@V_Iterator_base@2@@std@@QAE@XZ 004e2730 f i Zenilib:zenilib.obj
 0002:00061780       ?set_descriptors@Vertex_Buffer@Zeni@@IAEXXZ 004e2780 f   Zenilib:zenilib.obj
 0002:000618b0       ??0Vertex_Buffer_GL@Zeni@@QAE@XZ 004e28b0 f   Zenilib:zenilib.obj
 0002:00061940       ??_EVertex_Buffer_GL@Zeni@@UAEPAXI@Z 004e2940 f i Zenilib:zenilib.obj
 0002:00061940       ??_GVertex_Buffer_GL@Zeni@@UAEPAXI@Z 004e2940 f i Zenilib:zenilib.obj
 0002:000619b0       ??1Vertex_Buffer_GL@Zeni@@UAE@XZ 004e29b0 f   Zenilib:zenilib.obj
 0002:00061ab0       ?prerender@Vertex_Buffer_GL@Zeni@@EAEXXZ 004e2ab0 f   Zenilib:zenilib.obj
 0002:000625e0       ?get_address@Vertex3f@Zeni@@QBEPAXXZ 004e35e0 f i Zenilib:zenilib.obj
 0002:00062620       ??0VBuf_Render_Failure@Zeni@@QAE@XZ 004e3620 f i Zenilib:zenilib.obj
 0002:00062710       ?num_vertices_c@Vertex_Buffer@Zeni@@IBEHXZ 004e3710 f i Zenilib:zenilib.obj
 0002:00062770       ?num_vertices_cm@Vertex_Buffer@Zeni@@IBEHXZ 004e3770 f i Zenilib:zenilib.obj
 0002:000627d0       ?num_vertices_t@Vertex_Buffer@Zeni@@IBEHXZ 004e37d0 f i Zenilib:zenilib.obj
 0002:00062830       ?vertex_size@Vertex_Buffer_GL@Zeni@@ABEHXZ 004e3830 f i Zenilib:zenilib.obj
 0002:00062870       ?normal_size@Vertex_Buffer_GL@Zeni@@ABEHXZ 004e3870 f i Zenilib:zenilib.obj
 0002:000628b0       ?color_size@Vertex_Buffer_GL@Zeni@@ABEHXZ 004e38b0 f i Zenilib:zenilib.obj
 0002:000628f0       ?texel_size@Vertex_Buffer_GL@Zeni@@ABEHXZ 004e38f0 f i Zenilib:zenilib.obj
 0002:00062930       ?get_pglDeleteBuffersARB@Video_GL@Zeni@@QBEP6GXHPBI@ZXZ 004e3930 f i Zenilib:zenilib.obj
 0002:00062970       ?pglBindBufferARB@Video_GL@Zeni@@QBEXII@Z 004e3970 f i Zenilib:zenilib.obj
 0002:000629e0       ?pglGenBuffersARB@Video_GL@Zeni@@QBEXHQAI@Z 004e39e0 f i Zenilib:zenilib.obj
 0002:00062a50       ?pglBufferDataARB@Video_GL@Zeni@@QBEXIHQBXI@Z 004e3a50 f i Zenilib:zenilib.obj
 0002:00062ad0       ??1VBuf_Render_Failure@Zeni@@QAE@XZ 004e3ad0 f i Zenilib:zenilib.obj
 0002:00062b20       ??0VBuf_Render_Failure@Zeni@@QAE@ABU01@@Z 004e3b20 f i Zenilib:zenilib.obj
 0002:00062b80       ?render@Vertex_Buffer_GL@Zeni@@UAEXXZ 004e3b80 f   Zenilib:zenilib.obj
 0002:00063020       ??0Vertex_Buffer_DX9@Zeni@@QAE@XZ 004e4020 f   Zenilib:zenilib.obj
 0002:000630a0       ??_GVertex_Buffer_DX9@Zeni@@UAEPAXI@Z 004e40a0 f i Zenilib:zenilib.obj
 0002:000630a0       ??_EVertex_Buffer_DX9@Zeni@@UAEPAXI@Z 004e40a0 f i Zenilib:zenilib.obj
 0002:00063110       ??1Vertex_Buffer_DX9@Zeni@@UAE@XZ 004e4110 f   Zenilib:zenilib.obj
 0002:00063220       ?prerender@Vertex_Buffer_DX9@Zeni@@EAEXXZ 004e4220 f   Zenilib:zenilib.obj
 0002:00063810       ?vertex_c_size@Vertex_Buffer_DX9@Zeni@@ABEHXZ 004e4810 f i Zenilib:zenilib.obj
 0002:00063930       ?get_offset@Vertex3f@Zeni@@QBE_KXZ 004e4930 f i Zenilib:zenilib.obj
 0002:00063990       ?vertex_t_size@Vertex_Buffer_DX9@Zeni@@ABEHXZ 004e4990 f i Zenilib:zenilib.obj
 0002:00063ab0       ?render@Vertex_Buffer_DX9@Zeni@@UAEXXZ 004e4ab0 f   Zenilib:zenilib.obj
 0002:00063e40       ??0Video@Zeni@@IAE@ABW4VIDEO_MODE@Video_Base@1@@Z 004e4e40 f   Zenilib:zenilib.obj
 0002:00064170       ?Scale@Matrix4f@Zeni@@SA?AV12@ABUVector3f@2@@Z 004e5170 f i Zenilib:zenilib.obj
 0002:000642d0       ??1Video@Zeni@@MAE@XZ      004e52d0 f   Zenilib:zenilib.obj
 0002:000643d0       ?get_reference@Video@Zeni@@SAAAV12@XZ 004e53d0 f   Zenilib:zenilib.obj
 0002:000645b0       ??0Video_Init_Failure@Zeni@@QAE@XZ 004e55b0 f i Zenilib:zenilib.obj
 0002:000646a0       ??1Video_Init_Failure@Zeni@@QAE@XZ 004e56a0 f i Zenilib:zenilib.obj
 0002:000646f0       ??0Video_Init_Failure@Zeni@@QAE@ABU01@@Z 004e56f0 f i Zenilib:zenilib.obj
 0002:00064750       ?preinit@Video@Zeni@@SAXABW4VIDEO_MODE@Video_Base@2@ABH1AB_N12@Z 004e5750 f   Zenilib:zenilib.obj
 0002:00064820       ??0Video_Initialized@Zeni@@QAE@XZ 004e5820 f i Zenilib:zenilib.obj
 0002:00064910       ??1Video_Initialized@Zeni@@QAE@XZ 004e5910 f i Zenilib:zenilib.obj
 0002:00064960       ??0Video_Initialized@Zeni@@QAE@ABU01@@Z 004e5960 f i Zenilib:zenilib.obj
 0002:000649c0       ?set_tt@Video@Zeni@@QAEXABV?$basic_string@DU?$char_traits@D@std@@V?$allocator@D@2@@std@@0@Z 004e59c0 f   Zenilib:zenilib.obj
 0002:00064a50       ?set_title@Video@Zeni@@QAEXABV?$basic_string@DU?$char_traits@D@std@@V?$allocator@D@2@@std@@@Z 004e5a50 f   Zenilib:zenilib.obj
 0002:00064ac0       ?set_taskmsg@Video@Zeni@@QAEXABV?$basic_string@DU?$char_traits@D@std@@V?$allocator@D@2@@std@@@Z 004e5ac0 f   Zenilib:zenilib.obj
 0002:00064b30       ?set_icon@Video@Zeni@@QAE?B_NABV?$basic_string@DU?$char_traits@D@std@@V?$allocator@D@2@@std@@@Z 004e5b30 f   Zenilib:zenilib.obj
 0002:00064ba0       ?init@Video@Zeni@@MAEXXZ   004e5ba0 f   Zenilib:zenilib.obj
 0002:00064d50       ?get_opengl_flag@Video@Zeni@@IBEAB_NXZ 004e5d50 f i Zenilib:zenilib.obj
 0002:00064d90       ?set_tt@Video@Zeni@@AAEXXZ 004e5d90 f   Zenilib:zenilib.obj
 0002:00064e30       ?set_icon@Video@Zeni@@AAE_NXZ 004e5e30 f   Zenilib:zenilib.obj
 0002:00064f00       ?regenerate_compound_matrices@Video@Zeni@@AAEXXZ 004e5f00 f   Zenilib:zenilib.obj
 0002:00064fd0       ??0Video_DX9@Zeni@@AAE@XZ  004e5fd0 f   Zenilib:zenilib.obj
 0002:00065140       ??_EVideo_DX9@Zeni@@EAEPAXI@Z 004e6140 f i Zenilib:zenilib.obj
 0002:00065140       ??_GVideo_DX9@Zeni@@EAEPAXI@Z 004e6140 f i Zenilib:zenilib.obj
 0002:000651b0       ??1Video_DX9@Zeni@@EAE@XZ  004e61b0 f   Zenilib:zenilib.obj
 0002:00065260       ?render_all@Video_DX9@Zeni@@UAEXXZ 004e6260 f   Zenilib:zenilib.obj
 0002:000656b0       ?render@Game@Zeni@@QAEXXZ  004e66b0 f i Zenilib:zenilib.obj
 0002:000657e0       ?render@Gamestate@Zeni@@QAEXXZ 004e67e0 f i Zenilib:zenilib.obj
 0002:00065850       ??0Video_Device_Failure@Zeni@@QAE@XZ 004e6850 f i Zenilib:zenilib.obj
 0002:00065940       ?get_clear_color@Video@Zeni@@QBEABVColor@2@XZ 004e6940 f i Zenilib:zenilib.obj
 0002:00065980       ??1Video_Device_Failure@Zeni@@QAE@XZ 004e6980 f i Zenilib:zenilib.obj
 0002:000659d0       ??0Video_Device_Failure@Zeni@@QAE@ABU01@@Z 004e69d0 f i Zenilib:zenilib.obj
 0002:00065a30       ?init@Video_DX9@Zeni@@MAEXXZ 004e6a30 f   Zenilib:zenilib.obj
 0002:00065f60       ?set_opengl_flag@Video@Zeni@@IAEXAB_N@Z 004e6f60 f i Zenilib:zenilib.obj
 0002:00065fb0       ?init_device@Video_DX9@Zeni@@IAE_NXZ 004e6fb0 f   Zenilib:zenilib.obj
 0002:000663e0       ?init_context@Video_DX9@Zeni@@IAEXXZ 004e73e0 f   Zenilib:zenilib.obj
 0002:000666d0       ?set_backface_culling@Video@Zeni@@QAEXAB_N@Z 004e76d0 f i Zenilib:zenilib.obj
 0002:000667a0       ?set_backface_culling_impl@Video_DX9@Zeni@@QAEXAB_N@Z 004e77a0 f i Zenilib:zenilib.obj
 0002:00066860       ?set_backface_culling_impl@Video_GL@Zeni@@QAEXAB_N@Z 004e7860 f i Zenilib:zenilib.obj
 0002:00066940       ?set_clear_color@Video@Zeni@@QAEXABVColor@2@@Z 004e7940 f i Zenilib:zenilib.obj
 0002:00066a30       ?set_clear_color_impl@Video_DX9@Zeni@@QAEXABVColor@2@@Z 004e7a30 f i Zenilib:zenilib.obj
 0002:00066a70       ?set_clear_color_impl@Video_GL@Zeni@@QAEXABVColor@2@@Z 004e7a70 f i Zenilib:zenilib.obj
 0002:00066b10       ?set_lighting@Video@Zeni@@QAEXAB_N@Z 004e7b10 f i Zenilib:zenilib.obj
 0002:00066be0       ?set_lighting_impl@Video_DX9@Zeni@@QAEXAB_N@Z 004e7be0 f i Zenilib:zenilib.obj
 0002:00066cb0       ?set_lighting_impl@Video_GL@Zeni@@QAEXAB_N@Z 004e7cb0 f i Zenilib:zenilib.obj
 0002:00066d40       ?set_ambient_lighting@Video@Zeni@@QAEXABVColor@2@@Z 004e7d40 f i Zenilib:zenilib.obj
 0002:00066e00       ?set_ambient_lighting_impl@Video_DX9@Zeni@@QAEXABVColor@2@@Z 004e7e00 f i Zenilib:zenilib.obj
 0002:00066ec0       ?set_ambient_lighting_impl@Video_GL@Zeni@@QAEXABVColor@2@@Z 004e7ec0 f i Zenilib:zenilib.obj
 0002:00066f30       ?destroy_device@Video_DX9@Zeni@@IAEXXZ 004e7f30 f   Zenilib:zenilib.obj
 0002:00067010       ?set_fvf@Video_DX9@Zeni@@AAEXXZ 004e8010 f   Zenilib:zenilib.obj
 0002:000670f0       ?get_3d@Video_DX9@Zeni@@QBE_NXZ 004e80f0 f   Zenilib:zenilib.obj
 0002:00067130       ?set_3d@Video_DX9@Zeni@@QAEXAB_N@Z 004e8130 f   Zenilib:zenilib.obj
 0002:000671a0       ??0Video_GL@Zeni@@AAE@XZ   004e81a0 f   Zenilib:zenilib.obj
 0002:000672d0       ??_EVideo_GL@Zeni@@EAEPAXI@Z 004e82d0 f i Zenilib:zenilib.obj
 0002:000672d0       ??_GVideo_GL@Zeni@@EAEPAXI@Z 004e82d0 f i Zenilib:zenilib.obj
 0002:00067340       ??1Video_GL@Zeni@@EAE@XZ   004e8340 f   Zenilib:zenilib.obj
 0002:000673f0       ?render_all@Video_GL@Zeni@@UAEXXZ 004e83f0 f   Zenilib:zenilib.obj
 0002:000674c0       ?init@Video_GL@Zeni@@MAEXXZ 004e84c0 f   Zenilib:zenilib.obj
 0002:00067a70       ?strstr@@YAPADPADPBD@Z     004e8a70 f i Zenilib:zenilib.obj
 0002:00067ad0       ?get_normal_interpolation@Video@Zeni@@SAAB_NXZ 004e8ad0 f i Zenilib:zenilib.obj
 0002:00067b10       ?set_normal_interpolation@Video@Zeni@@QAEXAB_N@Z 004e8b10 f i Zenilib:zenilib.obj
 0002:00067be0       ?set_normal_interpolation_impl@Video_DX9@Zeni@@QAEXAB_N@Z 004e8be0 f i Zenilib:zenilib.obj
 0002:00067c20       ?set_normal_interpolation_impl@Video_GL@Zeni@@QAEXAB_N@Z 004e8c20 f i Zenilib:zenilib.obj
 0002:00067cb0       ?get_upper_left@Widget_Rectangle@Zeni@@UBEABUPoint2f@2@XZ 004e8cb0 f   Zenilib:zenilib.obj
 0002:00067cf0       ?get_lower_right@Widget_Rectangle@Zeni@@UBEABUPoint2f@2@XZ 004e8cf0 f   Zenilib:zenilib.obj
 0002:00067d30       ?render@Widget_Rectangle_Color@Zeni@@UBEXXZ 004e8d30 f   Zenilib:zenilib.obj
 0002:00067d90       ?render@Widget_Rectangle_Texture@Zeni@@UBEXXZ 004e8d90 f   Zenilib:zenilib.obj
 0002:00067df0       ?get_upper_left@Widget_Button@Zeni@@UBEABUPoint2f@2@XZ 004e8df0 f   Zenilib:zenilib.obj
 0002:00067e30       ?get_lower_right@Widget_Button@Zeni@@UBEABUPoint2f@2@XZ 004e8e30 f   Zenilib:zenilib.obj
 0002:00067e70       ?on_mouse_button@Widget_Button@Zeni@@UAEXABUPoint2i@2@AB_N@Z 004e8e70 f   Zenilib:zenilib.obj
 0002:00067fd0       ?is_inside@Widget_Button@Zeni@@ABE_NABUPoint2i@2@@Z 004e8fd0 f i Zenilib:zenilib.obj
 0002:00068090       ?on_mouse_motion@Widget_Button@Zeni@@UAEXABUPoint2i@2@@Z 004e9090 f   Zenilib:zenilib.obj
 0002:00068200       ?render@Text_Button@Zeni@@UBEXXZ 004e9200 f   Zenilib:zenilib.obj
 0002:00068290       ?get_center@Widget_Positioned@Zeni@@QBE?AUPoint2f@2@XZ 004e9290 f i Zenilib:zenilib.obj
 0002:00068370       ?render@Widget_Text@Zeni@@QBEXABUPoint2f@2@@Z 004e9370 f i Zenilib:zenilib.obj
 0002:00068480       ?on_accept@Check_Box@Zeni@@UAEXXZ 004e9480 f   Zenilib:zenilib.obj
 0002:000684d0       ?render@Check_Box@Zeni@@UBEXXZ 004e94d0 f   Zenilib:zenilib.obj
 0002:00068970       ?set_color@Vertex2f_Color@Zeni@@QAEXABVColor@2@@Z 004e9970 f i Zenilib:zenilib.obj
 0002:000689d0       ?get_lower_left@Widget_Positioned@Zeni@@QBE?AUPoint2f@2@XZ 004e99d0 f i Zenilib:zenilib.obj
 0002:00068a70       ?get_upper_right@Widget_Positioned@Zeni@@QBE?AUPoint2f@2@XZ 004e9a70 f i Zenilib:zenilib.obj
 0002:00068b10       ?on_accept@Radio_Button@Zeni@@UAEXXZ 004e9b10 f   Zenilib:zenilib.obj
 0002:00068b90       ?is_checked@Check_Box@Zeni@@QBEAB_NXZ 004e9b90 f i Zenilib:zenilib.obj
 0002:00068bd0       ?accept@Radio_Button_Set@Zeni@@QAEXAAVRadio_Button@2@@Z 004e9bd0 f i Zenilib:zenilib.obj
 0002:00068d70       ?set_checked@Check_Box@Zeni@@QAEXAB_N@Z 004e9d70 f i Zenilib:zenilib.obj
 0002:00068dc0       ??1iterator@?$_Tree@V?$_Tset_traits@PAVRadio_Button@Zeni@@U?$less@PAVRadio_Button@Zeni@@@std@@V?$allocator@PAVRadio_Button@Zeni@@@4@$0A@@std@@@std@@QAE@XZ 004e9dc0 f i Zenilib:zenilib.obj
 0002:00068e10       ??1const_iterator@?$_Tree@V?$_Tset_traits@PAVRadio_Button@Zeni@@U?$less@PAVRadio_Button@Zeni@@@std@@V?$allocator@PAVRadio_Button@Zeni@@@4@$0A@@std@@@std@@QAE@XZ 004e9e10 f i Zenilib:zenilib.obj
 0002:00068e60       ??1?$_Bidit@PAVRadio_Button@Zeni@@HPBQAV12@ABQAV12@@std@@QAE@XZ 004e9e60 f i Zenilib:zenilib.obj
 0002:00068eb0       ??1?$_Iterator_with_base@Ubidirectional_iterator_tag@std@@PAVRadio_Button@Zeni@@HPBQAV34@ABQAV34@V_Iterator_base@2@@std@@QAE@XZ 004e9eb0 f i Zenilib:zenilib.obj
 0002:00068f00       ?on_mouse_button@Radio_Button_Set@Zeni@@UAEXABUPoint2i@2@AB_N@Z 004e9f00 f   Zenilib:zenilib.obj
 0002:000690a0       ?on_mouse_motion@Radio_Button_Set@Zeni@@UAEXABUPoint2i@2@@Z 004ea0a0 f   Zenilib:zenilib.obj
 0002:00069240       ?render@Radio_Button_Set@Zeni@@UBEXXZ 004ea240 f   Zenilib:zenilib.obj
 0002:000693e0       ??0Slider@Zeni@@QAE@ABUPoint2f@1@0ABMABVColor@1@21@Z 004ea3e0 f   Zenilib:zenilib.obj
 0002:000697a0       ?get_end_point_a@Line_Segment@Zeni_Collision@@QBEABUPoint3f@Zeni@@XZ 004ea7a0 f i Zenilib:zenilib.obj
 0002:000697e0       ?get_end_point_b@Line_Segment@Zeni_Collision@@QBEABUPoint3f@Zeni@@XZ 004ea7e0 f i Zenilib:zenilib.obj
 0002:00069820       ??0Widget@Zeni@@QAE@XZ     004ea820 f i Zenilib:zenilib.obj
 0002:00069870       ?regenerate_slider_r@Slider@Zeni@@AAEXXZ 004ea870 f i Zenilib:zenilib.obj
 0002:00069ba0       ??GZeni@@YA?AUPoint3f@0@ABU10@ABUVector3f@0@@Z 004eaba0 f i Zenilib:zenilib.obj
 0002:00069c50       ??_ESlider@Zeni@@UAEPAXI@Z 004eac50 f i Zenilib:zenilib.obj
 0002:00069c50       ??_GSlider@Zeni@@UAEPAXI@Z 004eac50 f i Zenilib:zenilib.obj
 0002:00069cc0       ??1Slider@Zeni@@UAE@XZ     004eacc0 f i Zenilib:zenilib.obj
 0002:00069d80       ?on_mouse_button@Slider@Zeni@@UAEXABUPoint2i@2@AB_N@Z 004ead80 f   Zenilib:zenilib.obj
 0002:00069ef0       ?on_mouse_motion@Slider@Zeni@@UAEXABUPoint2i@2@@Z 004eaef0 f   Zenilib:zenilib.obj
 0002:0006a030       ?render@Slider@Zeni@@UBEXXZ 004eb030 f   Zenilib:zenilib.obj
 0002:0006a0b0       ??0Text_Box@Zeni@@QAE@ABUPoint2f@1@0ABVColor@1@ABV?$basic_string@DU?$char_traits@D@std@@V?$allocator@D@2@@std@@21AB_NABW4JUSTIFY@1@ABH@Z 004eb0b0 f   Zenilib:zenilib.obj
 0002:0006a2e0       ??0Point2i@Zeni@@QAE@XZ    004eb2e0 f i Zenilib:zenilib.obj
 0002:0006a330       ?on_hover@Widget_Button@Zeni@@UAEXXZ 004eb330 f i Zenilib:zenilib.obj
 0002:0006a370       ?on_unhover@Widget_Button@Zeni@@UAEXXZ 004eb370 f i Zenilib:zenilib.obj
 0002:0006a3b0       ?on_click@Widget_Button@Zeni@@UAEXXZ 004eb3b0 f i Zenilib:zenilib.obj
 0002:0006a3f0       ?on_stray@Widget_Button@Zeni@@UAEXXZ 004eb3f0 f i Zenilib:zenilib.obj
 0002:0006a430       ?on_unstray@Widget_Button@Zeni@@UAEXXZ 004eb430 f i Zenilib:zenilib.obj
 0002:0006a470       ?on_reject@Widget_Button@Zeni@@UAEXXZ 004eb470 f i Zenilib:zenilib.obj
 0002:0006a4b0       ??0Widget_Text@Zeni@@QAE@ABV?$basic_string@DU?$char_traits@D@std@@V?$allocator@D@2@@std@@0ABVColor@1@@Z 004eb4b0 f i Zenilib:zenilib.obj
 0002:0006a5b0       ??0Widget_Rectangle_Color@Zeni@@QAE@ABUPoint2f@1@0ABVColor@1@@Z 004eb5b0 f i Zenilib:zenilib.obj
 0002:0006a6a0       ??0Widget_Rectangle@Zeni@@QAE@ABUPoint2f@1@0@Z 004eb6a0 f i Zenilib:zenilib.obj
 0002:0006a730       ?render@Widget_Rectangle@Zeni@@UBEXXZ 004eb730 f i Zenilib:zenilib.obj
 0002:0006a770       ??_GWidget_Rectangle@Zeni@@UAEPAXI@Z 004eb770 f i Zenilib:zenilib.obj
 0002:0006a770       ??_EWidget_Rectangle@Zeni@@UAEPAXI@Z 004eb770 f i Zenilib:zenilib.obj
 0002:0006a7e0       ??0Widget_Positioned@Zeni@@QAE@XZ 004eb7e0 f i Zenilib:zenilib.obj
 0002:0006a830       ?generate_quadrilateral@Widget_Rectangle_Color@Zeni@@AAEXXZ 004eb830 f i Zenilib:zenilib.obj
 0002:0006ab60       ??0Widget_Button@Zeni@@QAE@ABUPoint2f@1@0@Z 004ebb60 f i Zenilib:zenilib.obj
 0002:0006ac20       ?on_accept@Widget_Button@Zeni@@UAEXXZ 004ebc20 f i Zenilib:zenilib.obj
 0002:0006ac60       ??_GWidget_Button@Zeni@@UAEPAXI@Z 004ebc60 f i Zenilib:zenilib.obj
 0002:0006ac60       ??_EWidget_Button@Zeni@@UAEPAXI@Z 004ebc60 f i Zenilib:zenilib.obj
 0002:0006acd0       ??_GText_Box@Zeni@@UAEPAXI@Z 004ebcd0 f i Zenilib:zenilib.obj
 0002:0006acd0       ??_EText_Box@Zeni@@UAEPAXI@Z 004ebcd0 f i Zenilib:zenilib.obj
 0002:0006ad40       ?on_key@Text_Box@Zeni@@UAEXABUSDL_keysym@@AB_N@Z 004ebd40 f   Zenilib:zenilib.obj
 0002:0006b960       ?on_mouse_button@Text_Box@Zeni@@UAEXABUPoint2i@2@AB_N@Z 004ec960 f   Zenilib:zenilib.obj
 0002:0006ba60       ?invalidate_edit_pos@Text_Box@Zeni@@AAEXXZ 004eca60 f i Zenilib:zenilib.obj
 0002:0006bad0       ?on_accept@Text_Box@Zeni@@UAEXXZ 004ecad0 f   Zenilib:zenilib.obj
 0002:0006be60       ?render@Text_Box@Zeni@@UBEXXZ 004ece60 f   Zenilib:zenilib.obj
 0002:0006c400       ?get_ticks_since@Time@Zeni@@QBEHABV12@@Z 004ed400 f i Zenilib:zenilib.obj
 0002:0006c450       ?get_color@Widget_Text@Zeni@@QBEABVColor@2@XZ 004ed450 f i Zenilib:zenilib.obj
 0002:0006c490       ?get_font@Text_Box@Zeni@@QBEABVFont@2@XZ 004ed490 f i Zenilib:zenilib.obj
 0002:0006c500       ?get_font_name@Widget_Text@Zeni@@QBEABV?$basic_string@DU?$char_traits@D@std@@V?$allocator@D@2@@std@@XZ 004ed500 f i Zenilib:zenilib.obj
 0002:0006c540       ?format@Text_Box@Zeni@@AAEXXZ 004ed540 f   Zenilib:zenilib.obj
 0002:0006cd60       ??0Word@Text_Box@Zeni@@QAE@ABW4Type@012@@Z 004edd60 f i Zenilib:zenilib.obj
 0002:0006ce50       ??0Line@Text_Box@Zeni@@QAE@XZ 004ede50 f i Zenilib:zenilib.obj
 0002:0006cf50       ??4Word@Text_Box@Zeni@@QAEAAU012@ABU012@@Z 004edf50 f i Zenilib:zenilib.obj
 0002:0006d000       ??1?$_Iterator@$00@?$list@UWord@Text_Box@Zeni@@V?$allocator@UWord@Text_Box@Zeni@@@std@@@std@@QAE@XZ 004ee000 f i Zenilib:zenilib.obj
 0002:0006d050       ??1?$_Vector_iterator@ULine@Text_Box@Zeni@@V?$allocator@ULine@Text_Box@Zeni@@@std@@@std@@QAE@XZ 004ee050 f i Zenilib:zenilib.obj
 0002:0006d0a0       ??1?$_Const_iterator@$00@?$list@UWord@Text_Box@Zeni@@V?$allocator@UWord@Text_Box@Zeni@@@std@@@std@@QAE@XZ 004ee0a0 f i Zenilib:zenilib.obj
 0002:0006d0f0       ??1?$_Vector_const_iterator@ULine@Text_Box@Zeni@@V?$allocator@ULine@Text_Box@Zeni@@@std@@@std@@QAE@XZ 004ee0f0 f i Zenilib:zenilib.obj
 0002:0006d140       ??1?$_Bidit@UWord@Text_Box@Zeni@@HPBU123@ABU123@@std@@QAE@XZ 004ee140 f i Zenilib:zenilib.obj
 0002:0006d190       ??1?$_Ranit@ULine@Text_Box@Zeni@@HPBU123@ABU123@@std@@QAE@XZ 004ee190 f i Zenilib:zenilib.obj
 0002:0006d1e0       ??1?$_Iterator_with_base@Ubidirectional_iterator_tag@std@@UWord@Text_Box@Zeni@@HPBU345@ABU345@V_Iterator_base@2@@std@@QAE@XZ 004ee1e0 f i Zenilib:zenilib.obj
 0002:0006d230       ??1?$_Iterator_with_base@Urandom_access_iterator_tag@std@@ULine@Text_Box@Zeni@@HPBU345@ABU345@V_Iterator_base@2@@std@@QAE@XZ 004ee230 f i Zenilib:zenilib.obj
 0002:0006d280       ?append_word@Text_Box@Zeni@@AAEXABUWord@12@@Z 004ee280 f   Zenilib:zenilib.obj
 0002:0006ddb0       ??1?$reverse_iterator@V?$_Vector_iterator@ULine@Text_Box@Zeni@@V?$allocator@ULine@Text_Box@Zeni@@@std@@@std@@@std@@QAE@XZ 004eedb0 f i Zenilib:zenilib.obj
 0002:0006de00       ??1?$_Revranit@V?$_Vector_iterator@ULine@Text_Box@Zeni@@V?$allocator@ULine@Text_Box@Zeni@@@std@@@std@@U?$iterator@Urandom_access_iterator_tag@std@@ULine@Text_Box@Zeni@@HPAU345@AAU345@@2@@std@@QAE@XZ 004eee00 f i Zenilib:zenilib.obj
 0002:0006de50       ?get_edit_pos@Text_Box@Zeni@@QBEABHXZ 004eee50 f   Zenilib:zenilib.obj
 0002:0006de90       ?get_cursor_pos@Text_Box@Zeni@@QBEHXZ 004eee90 f   Zenilib:zenilib.obj
 0002:0006df50       ?get_max_seek@Text_Box@Zeni@@QBEHXZ 004eef50 f   Zenilib:zenilib.obj
 0002:0006dfc0       ?get_max_cursor_seek@Text_Box@Zeni@@QBEHXZ 004eefc0 f   Zenilib:zenilib.obj
 0002:0006e150       ?seek@Text_Box@Zeni@@QAEXABH@Z 004ef150 f   Zenilib:zenilib.obj
 0002:0006e3c0       ?seek_cursor@Text_Box@Zeni@@QAEXABH@Z 004ef3c0 f   Zenilib:zenilib.obj
 0002:0006e570       ?clean_string@Text_Box@Zeni@@ABE?AV?$basic_string@DU?$char_traits@D@std@@V?$allocator@D@2@@std@@ABV34@@Z 004ef570 f   Zenilib:zenilib.obj
 0002:0006e7f0       ??1?$_String_const_iterator@DU?$char_traits@D@std@@V?$allocator@D@2@@std@@QAE@XZ 004ef7f0 f i Zenilib:zenilib.obj
 0002:0006e840       ??1?$_Ranit_base@DHPBDABDV_Iterator_base@std@@@std@@QAE@XZ 004ef840 f i Zenilib:zenilib.obj
 0002:0006e890       ?untablinebreak@Text_Box@Zeni@@ABE?AV?$basic_string@DU?$char_traits@D@std@@V?$allocator@D@2@@std@@ABV34@@Z 004ef890 f   Zenilib:zenilib.obj
 0002:0006eb50       ?get_text_width@Text_Box@Zeni@@AAEHABVFont@2@ABV?$basic_string@DU?$char_traits@D@std@@V?$allocator@D@2@@std@@@Z 004efb50 f   Zenilib:zenilib.obj
 0002:0006eef0       ?max_line_width@Text_Box@Zeni@@ABEHXZ 004efef0 f   Zenilib:zenilib.obj
 0002:0006ef90       ?on_key@Widget_Input_Repeater@Zeni@@UAEXABUSDL_keysym@@AB_N@Z 004eff90 f   Zenilib:zenilib.obj
 0002:0006f080       ?on_mouse_button@Widget_Input_Repeater@Zeni@@UAEXABUPoint2i@2@AB_N@Z 004f0080 f   Zenilib:zenilib.obj
 0002:0006f100       ?on_mouse_motion@Widget_Input_Repeater@Zeni@@UAEXABUPoint2i@2@@Z 004f0100 f   Zenilib:zenilib.obj
 0002:0006f170       ?render@Widget_Input_Repeater@Zeni@@UBEXXZ 004f0170 f   Zenilib:zenilib.obj
 0002:0006f1b0       ?on_key@Widgets@Zeni@@UAEXABUSDL_keysym@@AB_N@Z 004f01b0 f   Zenilib:zenilib.obj
 0002:0006f350       ??1iterator@?$_Tree@V?$_Tset_traits@PAVWidget@Zeni@@U?$less@PAVWidget@Zeni@@@std@@V?$allocator@PAVWidget@Zeni@@@4@$0A@@std@@@std@@QAE@XZ 004f0350 f i Zenilib:zenilib.obj
 0002:0006f3a0       ??1const_iterator@?$_Tree@V?$_Tset_traits@PAVWidget@Zeni@@U?$less@PAVWidget@Zeni@@@std@@V?$allocator@PAVWidget@Zeni@@@4@$0A@@std@@@std@@QAE@XZ 004f03a0 f i Zenilib:zenilib.obj
 0002:0006f3f0       ??1?$_Bidit@PAVWidget@Zeni@@HPBQAV12@ABQAV12@@std@@QAE@XZ 004f03f0 f i Zenilib:zenilib.obj
 0002:0006f440       ??1?$_Iterator_with_base@Ubidirectional_iterator_tag@std@@PAVWidget@Zeni@@HPBQAV34@ABQAV34@V_Iterator_base@2@@std@@QAE@XZ 004f0440 f i Zenilib:zenilib.obj
 0002:0006f490       ?on_mouse_button@Widgets@Zeni@@UAEXABUPoint2i@2@AB_N@Z 004f0490 f   Zenilib:zenilib.obj
 0002:0006f630       ?on_mouse_motion@Widgets@Zeni@@UAEXABUPoint2i@2@@Z 004f0630 f   Zenilib:zenilib.obj
 0002:0006f7d0       ?render@Widgets@Zeni@@UBEXXZ 004f07d0 f   Zenilib:zenilib.obj
 0002:0006f970       ??0?$vector@PAU_SDL_Joystick@@V?$allocator@PAU_SDL_Joystick@@@std@@@std@@QAE@I@Z 004f0970 f i Zenilib:zenilib.obj
 0002:0006fa40       ??1?$vector@PAU_SDL_Joystick@@V?$allocator@PAU_SDL_Joystick@@@std@@@std@@QAE@XZ 004f0a40 f i Zenilib:zenilib.obj
 0002:0006fae0       ??A?$vector@PAU_SDL_Joystick@@V?$allocator@PAU_SDL_Joystick@@@std@@@std@@QAEAAPAU_SDL_Joystick@@I@Z 004f0ae0 f i Zenilib:zenilib.obj
 0002:0006fc60       ?push_back@?$vector@PAU_SDL_Joystick@@V?$allocator@PAU_SDL_Joystick@@@std@@@std@@QAEXABQAU_SDL_Joystick@@@Z 004f0c60 f i Zenilib:zenilib.obj
 0002:0006fdd0       ?clear@?$vector@PAU_SDL_Joystick@@V?$allocator@PAU_SDL_Joystick@@@std@@@std@@QAEXXZ 004f0dd0 f i Zenilib:zenilib.obj
 0002:0006ff60       ??0?$hash_map@V?$basic_string@DU?$char_traits@D@std@@V?$allocator@D@2@@std@@KV?$hash_compare@V?$basic_string@DU?$char_traits@D@std@@V?$allocator@D@2@@std@@U?$less@V?$basic_string@DU?$char_traits@D@std@@V?$allocator@D@2@@std@@@2@@stdext@@V?$allocator@U?$pair@$$CBV?$basic_string@DU?$char_traits@D@std@@V?$allocator@D@2@@std@@K@std@@@2@@stdext@@QAE@XZ 004f0f60 f i Zenilib:zenilib.obj
 0002:0006ffd0       ??A?$hash_map@V?$basic_string@DU?$char_traits@D@std@@V?$allocator@D@2@@std@@KV?$hash_compare@V?$basic_string@DU?$char_traits@D@std@@V?$allocator@D@2@@std@@U?$less@V?$basic_string@DU?$char_traits@D@std@@V?$allocator@D@2@@std@@@2@@stdext@@V?$allocator@U?$pair@$$CBV?$basic_string@DU?$char_traits@D@std@@V?$allocator@D@2@@std@@K@std@@@2@@stdext@@QAEAAKABV?$basic_string@DU?$char_traits@D@std@@V?$allocator@D@2@@std@@@Z 004f0fd0 f i Zenilib:zenilib.obj
 0002:000701f0       ??1?$_Hash@V?$_Hmap_traits@V?$basic_string@DU?$char_traits@D@std@@V?$allocator@D@2@@std@@KV?$hash_compare@V?$basic_string@DU?$char_traits@D@std@@V?$allocator@D@2@@std@@U?$less@V?$basic_string@DU?$char_traits@D@std@@V?$allocator@D@2@@std@@@2@@stdext@@V?$allocator@U?$pair@$$CBV?$basic_string@DU?$char_traits@D@std@@V?$allocator@D@2@@std@@K@std@@@2@$0A@@stdext@@@stdext@@QAE@XZ 004f11f0 f i Zenilib:zenilib.obj
 0002:000702b0       ?begin@?$_Hash@V?$_Hmap_traits@V?$basic_string@DU?$char_traits@D@std@@V?$allocator@D@2@@std@@KV?$hash_compare@V?$basic_string@DU?$char_traits@D@std@@V?$allocator@D@2@@std@@U?$less@V?$basic_string@DU?$char_traits@D@std@@V?$allocator@D@2@@std@@@2@@stdext@@V?$allocator@U?$pair@$$CBV?$basic_string@DU?$char_traits@D@std@@V?$allocator@D@2@@std@@K@std@@@2@$0A@@stdext@@@stdext@@QAE?AV?$_Iterator@$00@?$list@U?$pair@$$CBV?$basic_string@DU?$char_traits@D@std@@V?$allocator@D@2@@std@@K@std@@V?$allocator@U?$pair@$$CBV?$basic_string@DU?$char_traits@D@std@@V?$allocator@D@2@@std@@K@std@@@2@@std@@XZ 004f12b0 f i Zenilib:zenilib.obj
 0002:00070330       ?end@?$_Hash@V?$_Hmap_traits@V?$basic_string@DU?$char_traits@D@std@@V?$allocator@D@2@@std@@KV?$hash_compare@V?$basic_string@DU?$char_traits@D@std@@V?$allocator@D@2@@std@@U?$less@V?$basic_string@DU?$char_traits@D@std@@V?$allocator@D@2@@std@@@2@@stdext@@V?$allocator@U?$pair@$$CBV?$basic_string@DU?$char_traits@D@std@@V?$allocator@D@2@@std@@K@std@@@2@$0A@@stdext@@@stdext@@QAE?AV?$_Iterator@$00@?$list@U?$pair@$$CBV?$basic_string@DU?$char_traits@D@std@@V?$allocator@D@2@@std@@K@std@@V?$allocator@U?$pair@$$CBV?$basic_string@DU?$char_traits@D@std@@V?$allocator@D@2@@std@@K@std@@@2@@std@@XZ 004f1330 f i Zenilib:zenilib.obj
 0002:000703b0       ?end@?$_Hash@V?$_Hmap_traits@V?$basic_string@DU?$char_traits@D@std@@V?$allocator@D@2@@std@@KV?$hash_compare@V?$basic_string@DU?$char_traits@D@std@@V?$allocator@D@2@@std@@U?$less@V?$basic_string@DU?$char_traits@D@std@@V?$allocator@D@2@@std@@@2@@stdext@@V?$allocator@U?$pair@$$CBV?$basic_string@DU?$char_traits@D@std@@V?$allocator@D@2@@std@@K@std@@@2@$0A@@stdext@@@stdext@@QBE?AV?$_Const_iterator@$00@?$list@U?$pair@$$CBV?$basic_string@DU?$char_traits@D@std@@V?$allocator@D@2@@std@@K@std@@V?$allocator@U?$pair@$$CBV?$basic_string@DU?$char_traits@D@std@@V?$allocator@D@2@@std@@K@std@@@2@@std@@XZ 004f13b0 f i Zenilib:zenilib.obj
 0002:00070430       ?erase@?$_Hash@V?$_Hmap_traits@V?$basic_string@DU?$char_traits@D@std@@V?$allocator@D@2@@std@@KV?$hash_compare@V?$basic_string@DU?$char_traits@D@std@@V?$allocator@D@2@@std@@U?$less@V?$basic_string@DU?$char_traits@D@std@@V?$allocator@D@2@@std@@@2@@stdext@@V?$allocator@U?$pair@$$CBV?$basic_string@DU?$char_traits@D@std@@V?$allocator@D@2@@std@@K@std@@@2@$0A@@stdext@@@stdext@@QAE?AV?$_Iterator@$00@?$list@U?$pair@$$CBV?$basic_string@DU?$char_traits@D@std@@V?$allocator@D@2@@std@@K@std@@V?$allocator@U?$pair@$$CBV?$basic_string@DU?$char_traits@D@std@@V?$allocator@D@2@@std@@K@std@@@2@@std@@V?$_Const_iterator@$00@45@@Z 004f1430 f i Zenilib:zenilib.obj
 0002:000705b0       ?clear@?$_Hash@V?$_Hmap_traits@V?$basic_string@DU?$char_traits@D@std@@V?$allocator@D@2@@std@@KV?$hash_compare@V?$basic_string@DU?$char_traits@D@std@@V?$allocator@D@2@@std@@U?$less@V?$basic_string@DU?$char_traits@D@std@@V?$allocator@D@2@@std@@@2@@stdext@@V?$allocator@U?$pair@$$CBV?$basic_string@DU?$char_traits@D@std@@V?$allocator@D@2@@std@@K@std@@@2@$0A@@stdext@@@stdext@@QAEXXZ 004f15b0 f i Zenilib:zenilib.obj
 0002:00070610       ?find@?$_Hash@V?$_Hmap_traits@V?$basic_string@DU?$char_traits@D@std@@V?$allocator@D@2@@std@@KV?$hash_compare@V?$basic_string@DU?$char_traits@D@std@@V?$allocator@D@2@@std@@U?$less@V?$basic_string@DU?$char_traits@D@std@@V?$allocator@D@2@@std@@@2@@stdext@@V?$allocator@U?$pair@$$CBV?$basic_string@DU?$char_traits@D@std@@V?$allocator@D@2@@std@@K@std@@@2@$0A@@stdext@@@stdext@@QAE?AV?$_Iterator@$00@?$list@U?$pair@$$CBV?$basic_string@DU?$char_traits@D@std@@V?$allocator@D@2@@std@@K@std@@V?$allocator@U?$pair@$$CBV?$basic_string@DU?$char_traits@D@std@@V?$allocator@D@2@@std@@K@std@@@2@@std@@ABV?$basic_string@DU?$char_traits@D@std@@V?$allocator@D@2@@5@@Z 004f1610 f i Zenilib:zenilib.obj
 0002:00070690       ?find@?$_Hash@V?$_Hmap_traits@V?$basic_string@DU?$char_traits@D@std@@V?$allocator@D@2@@std@@KV?$hash_compare@V?$basic_string@DU?$char_traits@D@std@@V?$allocator@D@2@@std@@U?$less@V?$basic_string@DU?$char_traits@D@std@@V?$allocator@D@2@@std@@@2@@stdext@@V?$allocator@U?$pair@$$CBV?$basic_string@DU?$char_traits@D@std@@V?$allocator@D@2@@std@@K@std@@@2@$0A@@stdext@@@stdext@@QBE?AV?$_Const_iterator@$00@?$list@U?$pair@$$CBV?$basic_string@DU?$char_traits@D@std@@V?$allocator@D@2@@std@@K@std@@V?$allocator@U?$pair@$$CBV?$basic_string@DU?$char_traits@D@std@@V?$allocator@D@2@@std@@K@std@@@2@@std@@ABV?$basic_string@DU?$char_traits@D@std@@V?$allocator@D@2@@5@@Z 004f1690 f i Zenilib:zenilib.obj
 0002:00070710       ?swap@?$_Hash@V?$_Hmap_traits@V?$basic_string@DU?$char_traits@D@std@@V?$allocator@D@2@@std@@KV?$hash_compare@V?$basic_string@DU?$char_traits@D@std@@V?$allocator@D@2@@std@@U?$less@V?$basic_string@DU?$char_traits@D@std@@V?$allocator@D@2@@std@@@2@@stdext@@V?$allocator@U?$pair@$$CBV?$basic_string@DU?$char_traits@D@std@@V?$allocator@D@2@@std@@K@std@@@2@$0A@@stdext@@@stdext@@QAEXAAV12@@Z 004f1710 f i Zenilib:zenilib.obj
 0002:00070820       ??0?$hash_map@KVColor@Zeni@@V?$hash_compare@KU?$less@K@std@@@stdext@@V?$allocator@U?$pair@$$CBKVColor@Zeni@@@std@@@std@@@stdext@@QAE@XZ 004f1820 f i Zenilib:zenilib.obj
 0002:00070890       ??A?$hash_map@KVColor@Zeni@@V?$hash_compare@KU?$less@K@std@@@stdext@@V?$allocator@U?$pair@$$CBKVColor@Zeni@@@std@@@std@@@stdext@@QAEAAVColor@Zeni@@ABK@Z 004f1890 f i Zenilib:zenilib.obj
 0002:00070a70       ??1?$_Hash@V?$_Hmap_traits@KVColor@Zeni@@V?$hash_compare@KU?$less@K@std@@@stdext@@V?$allocator@U?$pair@$$CBKVColor@Zeni@@@std@@@std@@$0A@@stdext@@@stdext@@QAE@XZ 004f1a70 f i Zenilib:zenilib.obj
 0002:00070b30       ?end@?$_Hash@V?$_Hmap_traits@KVColor@Zeni@@V?$hash_compare@KU?$less@K@std@@@stdext@@V?$allocator@U?$pair@$$CBKVColor@Zeni@@@std@@@std@@$0A@@stdext@@@stdext@@QBE?AV?$_Const_iterator@$00@?$list@U?$pair@$$CBKVColor@Zeni@@@std@@V?$allocator@U?$pair@$$CBKVColor@Zeni@@@std@@@2@@std@@XZ 004f1b30 f i Zenilib:zenilib.obj
 0002:00070bb0       ?erase@?$_Hash@V?$_Hmap_traits@KVColor@Zeni@@V?$hash_compare@KU?$less@K@std@@@stdext@@V?$allocator@U?$pair@$$CBKVColor@Zeni@@@std@@@std@@$0A@@stdext@@@stdext@@QAEIABK@Z 004f1bb0 f i Zenilib:zenilib.obj
 0002:00070db0       ?clear@?$_Hash@V?$_Hmap_traits@KVColor@Zeni@@V?$hash_compare@KU?$less@K@std@@@stdext@@V?$allocator@U?$pair@$$CBKVColor@Zeni@@@std@@@std@@$0A@@stdext@@@stdext@@QAEXXZ 004f1db0 f i Zenilib:zenilib.obj
 0002:00070e10       ?find@?$_Hash@V?$_Hmap_traits@KVColor@Zeni@@V?$hash_compare@KU?$less@K@std@@@stdext@@V?$allocator@U?$pair@$$CBKVColor@Zeni@@@std@@@std@@$0A@@stdext@@@stdext@@QBE?AV?$_Const_iterator@$00@?$list@U?$pair@$$CBKVColor@Zeni@@@std@@V?$allocator@U?$pair@$$CBKVColor@Zeni@@@std@@@2@@std@@ABK@Z 004f1e10 f i Zenilib:zenilib.obj
 0002:00070e90       ??0?$hash_map@KPAVFont@Zeni@@V?$hash_compare@KU?$less@K@std@@@stdext@@V?$allocator@U?$pair@$$CBKPAVFont@Zeni@@@std@@@std@@@stdext@@QAE@XZ 004f1e90 f i Zenilib:zenilib.obj
 0002:00070f00       ??A?$hash_map@KPAVFont@Zeni@@V?$hash_compare@KU?$less@K@std@@@stdext@@V?$allocator@U?$pair@$$CBKPAVFont@Zeni@@@std@@@std@@@stdext@@QAEAAPAVFont@Zeni@@ABK@Z 004f1f00 f i Zenilib:zenilib.obj
 0002:000710f0       ??1?$_Hash@V?$_Hmap_traits@KPAVFont@Zeni@@V?$hash_compare@KU?$less@K@std@@@stdext@@V?$allocator@U?$pair@$$CBKPAVFont@Zeni@@@std@@@std@@$0A@@stdext@@@stdext@@QAE@XZ 004f20f0 f i Zenilib:zenilib.obj
 0002:000711b0       ?begin@?$_Hash@V?$_Hmap_traits@KPAVFont@Zeni@@V?$hash_compare@KU?$less@K@std@@@stdext@@V?$allocator@U?$pair@$$CBKPAVFont@Zeni@@@std@@@std@@$0A@@stdext@@@stdext@@QAE?AV?$_Iterator@$00@?$list@U?$pair@$$CBKPAVFont@Zeni@@@std@@V?$allocator@U?$pair@$$CBKPAVFont@Zeni@@@std@@@2@@std@@XZ 004f21b0 f i Zenilib:zenilib.obj
 0002:00071230       ?end@?$_Hash@V?$_Hmap_traits@KPAVFont@Zeni@@V?$hash_compare@KU?$less@K@std@@@stdext@@V?$allocator@U?$pair@$$CBKPAVFont@Zeni@@@std@@@std@@$0A@@stdext@@@stdext@@QAE?AV?$_Iterator@$00@?$list@U?$pair@$$CBKPAVFont@Zeni@@@std@@V?$allocator@U?$pair@$$CBKPAVFont@Zeni@@@std@@@2@@std@@XZ 004f2230 f i Zenilib:zenilib.obj
 0002:000712b0       ?end@?$_Hash@V?$_Hmap_traits@KPAVFont@Zeni@@V?$hash_compare@KU?$less@K@std@@@stdext@@V?$allocator@U?$pair@$$CBKPAVFont@Zeni@@@std@@@std@@$0A@@stdext@@@stdext@@QBE?AV?$_Const_iterator@$00@?$list@U?$pair@$$CBKPAVFont@Zeni@@@std@@V?$allocator@U?$pair@$$CBKPAVFont@Zeni@@@std@@@2@@std@@XZ 004f22b0 f i Zenilib:zenilib.obj
 0002:00071330       ?erase@?$_Hash@V?$_Hmap_traits@KPAVFont@Zeni@@V?$hash_compare@KU?$less@K@std@@@stdext@@V?$allocator@U?$pair@$$CBKPAVFont@Zeni@@@std@@@std@@$0A@@stdext@@@stdext@@QAE?AV?$_Iterator@$00@?$list@U?$pair@$$CBKPAVFont@Zeni@@@std@@V?$allocator@U?$pair@$$CBKPAVFont@Zeni@@@std@@@2@@std@@V?$_Const_iterator@$00@45@@Z 004f2330 f i Zenilib:zenilib.obj
 0002:000714b0       ?erase@?$_Hash@V?$_Hmap_traits@KPAVFont@Zeni@@V?$hash_compare@KU?$less@K@std@@@stdext@@V?$allocator@U?$pair@$$CBKPAVFont@Zeni@@@std@@@std@@$0A@@stdext@@@stdext@@QAEIABK@Z 004f24b0 f i Zenilib:zenilib.obj
 0002:000716b0       ?clear@?$_Hash@V?$_Hmap_traits@KPAVFont@Zeni@@V?$hash_compare@KU?$less@K@std@@@stdext@@V?$allocator@U?$pair@$$CBKPAVFont@Zeni@@@std@@@std@@$0A@@stdext@@@stdext@@QAEXXZ 004f26b0 f i Zenilib:zenilib.obj
 0002:00071710       ?find@?$_Hash@V?$_Hmap_traits@KPAVFont@Zeni@@V?$hash_compare@KU?$less@K@std@@@stdext@@V?$allocator@U?$pair@$$CBKPAVFont@Zeni@@@std@@@std@@$0A@@stdext@@@stdext@@QAE?AV?$_Iterator@$00@?$list@U?$pair@$$CBKPAVFont@Zeni@@@std@@V?$allocator@U?$pair@$$CBKPAVFont@Zeni@@@std@@@2@@std@@ABK@Z 004f2710 f i Zenilib:zenilib.obj
 0002:00071790       ?find@?$_Hash@V?$_Hmap_traits@KPAVFont@Zeni@@V?$hash_compare@KU?$less@K@std@@@stdext@@V?$allocator@U?$pair@$$CBKPAVFont@Zeni@@@std@@@std@@$0A@@stdext@@@stdext@@QBE?AV?$_Const_iterator@$00@?$list@U?$pair@$$CBKPAVFont@Zeni@@@std@@V?$allocator@U?$pair@$$CBKPAVFont@Zeni@@@std@@@2@@std@@ABK@Z 004f2790 f i Zenilib:zenilib.obj
 0002:00071810       ??0?$map@UZeni_Input_ID@Zeni@@HU?$less@UZeni_Input_ID@Zeni@@@std@@V?$allocator@U?$pair@$$CBUZeni_Input_ID@Zeni@@H@std@@@4@@std@@QAE@XZ 004f2810 f i Zenilib:zenilib.obj
 0002:00071880       ??A?$map@UZeni_Input_ID@Zeni@@HU?$less@UZeni_Input_ID@Zeni@@@std@@V?$allocator@U?$pair@$$CBUZeni_Input_ID@Zeni@@H@std@@@4@@std@@QAEAAHABUZeni_Input_ID@Zeni@@@Z 004f2880 f i Zenilib:zenilib.obj
 0002:00071b20       ??1?$_Tree@V?$_Tmap_traits@UZeni_Input_ID@Zeni@@HU?$less@UZeni_Input_ID@Zeni@@@std@@V?$allocator@U?$pair@$$CBUZeni_Input_ID@Zeni@@H@std@@@4@$0A@@std@@@std@@QAE@XZ 004f2b20 f i Zenilib:zenilib.obj
 0002:00071bc0       ?end@?$_Tree@V?$_Tmap_traits@UZeni_Input_ID@Zeni@@HU?$less@UZeni_Input_ID@Zeni@@@std@@V?$allocator@U?$pair@$$CBUZeni_Input_ID@Zeni@@H@std@@@4@$0A@@std@@@std@@QAE?AViterator@12@XZ 004f2bc0 f i Zenilib:zenilib.obj
 0002:00071c50       ?find@?$_Tree@V?$_Tmap_traits@UZeni_Input_ID@Zeni@@HU?$less@UZeni_Input_ID@Zeni@@@std@@V?$allocator@U?$pair@$$CBUZeni_Input_ID@Zeni@@H@std@@@4@$0A@@std@@@std@@QAE?AViterator@12@ABUZeni_Input_ID@Zeni@@@Z 004f2c50 f i Zenilib:zenilib.obj
 0002:00071ee0       ??0?$map@HUZeni_Input_ID@Zeni@@U?$less@H@std@@V?$allocator@U?$pair@$$CBHUZeni_Input_ID@Zeni@@@std@@@4@@std@@QAE@XZ 004f2ee0 f i Zenilib:zenilib.obj
 0002:00071f50       ??A?$map@HUZeni_Input_ID@Zeni@@U?$less@H@std@@V?$allocator@U?$pair@$$CBHUZeni_Input_ID@Zeni@@@std@@@4@@std@@QAEAAUZeni_Input_ID@Zeni@@ABH@Z 004f2f50 f i Zenilib:zenilib.obj
 0002:00072230       ??1?$_Tree@V?$_Tmap_traits@HUZeni_Input_ID@Zeni@@U?$less@H@std@@V?$allocator@U?$pair@$$CBHUZeni_Input_ID@Zeni@@@std@@@4@$0A@@std@@@std@@QAE@XZ 004f3230 f i Zenilib:zenilib.obj
 0002:000722d0       ?end@?$_Tree@V?$_Tmap_traits@HUZeni_Input_ID@Zeni@@U?$less@H@std@@V?$allocator@U?$pair@$$CBHUZeni_Input_ID@Zeni@@@std@@@4@$0A@@std@@@std@@QAE?AViterator@12@XZ 004f32d0 f i Zenilib:zenilib.obj
 0002:00072360       ?find@?$_Tree@V?$_Tmap_traits@HUZeni_Input_ID@Zeni@@U?$less@H@std@@V?$allocator@U?$pair@$$CBHUZeni_Input_ID@Zeni@@@std@@@4@$0A@@std@@@std@@QAE?AViterator@12@ABH@Z 004f3360 f i Zenilib:zenilib.obj
 0002:000725f0       ??0?$stack@VGamestate@Zeni@@V?$deque@VGamestate@Zeni@@V?$allocator@VGamestate@Zeni@@@std@@@std@@@std@@QAE@XZ 004f35f0 f i Zenilib:zenilib.obj
 0002:00072650       ??1?$deque@VGamestate@Zeni@@V?$allocator@VGamestate@Zeni@@@std@@@std@@QAE@XZ 004f3650 f i Zenilib:zenilib.obj
 0002:000726f0       ??0?$IV@VVideo_Base@Zeni@@W4VIDEO_MODE@12@@@IAE@ABW4VIDEO_MODE@Video_Base@Zeni@@@Z 004f36f0 f i Zenilib:zenilib.obj
 0002:00072740       ??1?$IV@VVideo_Base@Zeni@@W4VIDEO_MODE@12@@@IAE@XZ 004f3740 f i Zenilib:zenilib.obj
 0002:00072780       ??0?$pair@UPoint2i@Zeni@@U12@@std@@QAE@XZ 004f3780 f i Zenilib:zenilib.obj
 0002:000727e0       ??0?$IV@VTexture_Base@Zeni@@W4VTYPE@12@@@IAE@ABW4VTYPE@Texture_Base@Zeni@@@Z 004f37e0 f i Zenilib:zenilib.obj
 0002:00072830       ?vtype@?$IV@VTexture_Base@Zeni@@W4VTYPE@12@@@QBE?AW4VTYPE@Texture_Base@Zeni@@XZ 004f3830 f i Zenilib:zenilib.obj
 0002:00072870       ??0?$vector@U?$pair@V?$basic_string@DU?$char_traits@D@std@@V?$allocator@D@2@@std@@K@std@@V?$allocator@U?$pair@V?$basic_string@DU?$char_traits@D@std@@V?$allocator@D@2@@std@@K@std@@@2@@std@@QAE@XZ 004f3870 f i Zenilib:zenilib.obj
 0002:00072930       ??0?$vector@U?$pair@V?$basic_string@DU?$char_traits@D@std@@V?$allocator@D@2@@std@@K@std@@V?$allocator@U?$pair@V?$basic_string@DU?$char_traits@D@std@@V?$allocator@D@2@@std@@K@std@@@2@@std@@QAE@ABV01@@Z 004f3930 f i Zenilib:zenilib.obj
 0002:00072ad0       ?size@?$vector@U?$pair@V?$basic_string@DU?$char_traits@D@std@@V?$allocator@D@2@@std@@K@std@@V?$allocator@U?$pair@V?$basic_string@DU?$char_traits@D@std@@V?$allocator@D@2@@std@@K@std@@@2@@std@@QBEIXZ 004f3ad0 f i Zenilib:zenilib.obj
 0002:00072b20       ?empty@?$vector@U?$pair@V?$basic_string@DU?$char_traits@D@std@@V?$allocator@D@2@@std@@K@std@@V?$allocator@U?$pair@V?$basic_string@DU?$char_traits@D@std@@V?$allocator@D@2@@std@@K@std@@@2@@std@@QBE_NXZ 004f3b20 f i Zenilib:zenilib.obj
 0002:00072b80       ??A?$vector@U?$pair@V?$basic_string@DU?$char_traits@D@std@@V?$allocator@D@2@@std@@K@std@@V?$allocator@U?$pair@V?$basic_string@DU?$char_traits@D@std@@V?$allocator@D@2@@std@@K@std@@@2@@std@@QAEAAU?$pair@V?$basic_string@DU?$char_traits@D@std@@V?$allocator@D@2@@std@@K@1@I@Z 004f3b80 f i Zenilib:zenilib.obj
 0002:00072d00       ?push_back@?$vector@U?$pair@V?$basic_string@DU?$char_traits@D@std@@V?$allocator@D@2@@std@@K@std@@V?$allocator@U?$pair@V?$basic_string@DU?$char_traits@D@std@@V?$allocator@D@2@@std@@K@std@@@2@@std@@QAEXABU?$pair@V?$basic_string@DU?$char_traits@D@std@@V?$allocator@D@2@@std@@K@2@@Z 004f3d00 f i Zenilib:zenilib.obj
 0002:00072e70       ?pop_back@?$vector@U?$pair@V?$basic_string@DU?$char_traits@D@std@@V?$allocator@D@2@@std@@K@std@@V?$allocator@U?$pair@V?$basic_string@DU?$char_traits@D@std@@V?$allocator@D@2@@std@@K@std@@@2@@std@@QAEXXZ 004f3e70 f i Zenilib:zenilib.obj
 0002:00072f50       ??0?$hash_map@KPAVTexture@Zeni@@V?$hash_compare@KU?$less@K@std@@@stdext@@V?$allocator@U?$pair@$$CBKPAVTexture@Zeni@@@std@@@std@@@stdext@@QAE@XZ 004f3f50 f i Zenilib:zenilib.obj
 0002:00072fc0       ??A?$hash_map@KPAVTexture@Zeni@@V?$hash_compare@KU?$less@K@std@@@stdext@@V?$allocator@U?$pair@$$CBKPAVTexture@Zeni@@@std@@@std@@@stdext@@QAEAAPAVTexture@Zeni@@ABK@Z 004f3fc0 f i Zenilib:zenilib.obj
 0002:000731b0       ??1?$_Hash@V?$_Hmap_traits@KPAVTexture@Zeni@@V?$hash_compare@KU?$less@K@std@@@stdext@@V?$allocator@U?$pair@$$CBKPAVTexture@Zeni@@@std@@@std@@$0A@@stdext@@@stdext@@QAE@XZ 004f41b0 f i Zenilib:zenilib.obj
 0002:00073270       ?begin@?$_Hash@V?$_Hmap_traits@KPAVTexture@Zeni@@V?$hash_compare@KU?$less@K@std@@@stdext@@V?$allocator@U?$pair@$$CBKPAVTexture@Zeni@@@std@@@std@@$0A@@stdext@@@stdext@@QAE?AV?$_Iterator@$00@?$list@U?$pair@$$CBKPAVTexture@Zeni@@@std@@V?$allocator@U?$pair@$$CBKPAVTexture@Zeni@@@std@@@2@@std@@XZ 004f4270 f i Zenilib:zenilib.obj
 0002:000732f0       ?end@?$_Hash@V?$_Hmap_traits@KPAVTexture@Zeni@@V?$hash_compare@KU?$less@K@std@@@stdext@@V?$allocator@U?$pair@$$CBKPAVTexture@Zeni@@@std@@@std@@$0A@@stdext@@@stdext@@QAE?AV?$_Iterator@$00@?$list@U?$pair@$$CBKPAVTexture@Zeni@@@std@@V?$allocator@U?$pair@$$CBKPAVTexture@Zeni@@@std@@@2@@std@@XZ 004f42f0 f i Zenilib:zenilib.obj
 0002:00073370       ?end@?$_Hash@V?$_Hmap_traits@KPAVTexture@Zeni@@V?$hash_compare@KU?$less@K@std@@@stdext@@V?$allocator@U?$pair@$$CBKPAVTexture@Zeni@@@std@@@std@@$0A@@stdext@@@stdext@@QBE?AV?$_Const_iterator@$00@?$list@U?$pair@$$CBKPAVTexture@Zeni@@@std@@V?$allocator@U?$pair@$$CBKPAVTexture@Zeni@@@std@@@2@@std@@XZ 004f4370 f i Zenilib:zenilib.obj
 0002:000733f0       ?erase@?$_Hash@V?$_Hmap_traits@KPAVTexture@Zeni@@V?$hash_compare@KU?$less@K@std@@@stdext@@V?$allocator@U?$pair@$$CBKPAVTexture@Zeni@@@std@@@std@@$0A@@stdext@@@stdext@@QAE?AV?$_Iterator@$00@?$list@U?$pair@$$CBKPAVTexture@Zeni@@@std@@V?$allocator@U?$pair@$$CBKPAVTexture@Zeni@@@std@@@2@@std@@V?$_Const_iterator@$00@45@@Z 004f43f0 f i Zenilib:zenilib.obj
 0002:00073570       ?erase@?$_Hash@V?$_Hmap_traits@KPAVTexture@Zeni@@V?$hash_compare@KU?$less@K@std@@@stdext@@V?$allocator@U?$pair@$$CBKPAVTexture@Zeni@@@std@@@std@@$0A@@stdext@@@stdext@@QAEIABK@Z 004f4570 f i Zenilib:zenilib.obj
 0002:00073770       ?clear@?$_Hash@V?$_Hmap_traits@KPAVTexture@Zeni@@V?$hash_compare@KU?$less@K@std@@@stdext@@V?$allocator@U?$pair@$$CBKPAVTexture@Zeni@@@std@@@std@@$0A@@stdext@@@stdext@@QAEXXZ 004f4770 f i Zenilib:zenilib.obj
 0002:000737d0       ?find@?$_Hash@V?$_Hmap_traits@KPAVTexture@Zeni@@V?$hash_compare@KU?$less@K@std@@@stdext@@V?$allocator@U?$pair@$$CBKPAVTexture@Zeni@@@std@@@std@@$0A@@stdext@@@stdext@@QAE?AV?$_Iterator@$00@?$list@U?$pair@$$CBKPAVTexture@Zeni@@@std@@V?$allocator@U?$pair@$$CBKPAVTexture@Zeni@@@std@@@2@@std@@ABK@Z 004f47d0 f i Zenilib:zenilib.obj
 0002:00073850       ?find@?$_Hash@V?$_Hmap_traits@KPAVTexture@Zeni@@V?$hash_compare@KU?$less@K@std@@@stdext@@V?$allocator@U?$pair@$$CBKPAVTexture@Zeni@@@std@@@std@@$0A@@stdext@@@stdext@@QBE?AV?$_Const_iterator@$00@?$list@U?$pair@$$CBKPAVTexture@Zeni@@@std@@V?$allocator@U?$pair@$$CBKPAVTexture@Zeni@@@std@@@2@@std@@ABK@Z 004f4850 f i Zenilib:zenilib.obj
 0002:000738d0       ?swap@?$_Hash@V?$_Hmap_traits@KPAVTexture@Zeni@@V?$hash_compare@KU?$less@K@std@@@stdext@@V?$allocator@U?$pair@$$CBKPAVTexture@Zeni@@@std@@@std@@$0A@@stdext@@@stdext@@QAEXAAV12@@Z 004f48d0 f i Zenilib:zenilib.obj
 0002:000739e0       ??0?$auto_ptr@VRender_Wrapper@Zeni@@@std@@QAE@PAVRender_Wrapper@Zeni@@@Z 004f49e0 f i Zenilib:zenilib.obj
 0002:00073a30       ??C?$auto_ptr@VRender_Wrapper@Zeni@@@std@@QBEPAVRender_Wrapper@Zeni@@XZ 004f4a30 f i Zenilib:zenilib.obj
 0002:00073ac0       ??0?$vector@PAV?$Triangle@VVertex3f_Color@Zeni@@@Zeni@@V?$allocator@PAV?$Triangle@VVertex3f_Color@Zeni@@@Zeni@@@std@@@std@@QAE@XZ 004f4ac0 f i Zenilib:zenilib.obj
 0002:00073b80       ??1?$vector@PAV?$Triangle@VVertex3f_Color@Zeni@@@Zeni@@V?$allocator@PAV?$Triangle@VVertex3f_Color@Zeni@@@Zeni@@@std@@@std@@QAE@XZ 004f4b80 f i Zenilib:zenilib.obj
 0002:00073c20       ?begin@?$vector@PAV?$Triangle@VVertex3f_Color@Zeni@@@Zeni@@V?$allocator@PAV?$Triangle@VVertex3f_Color@Zeni@@@Zeni@@@std@@@std@@QAE?AV?$_Vector_iterator@PAV?$Triangle@VVertex3f_Color@Zeni@@@Zeni@@V?$allocator@PAV?$Triangle@VVertex3f_Color@Zeni@@@Zeni@@@std@@@2@XZ 004f4c20 f i Zenilib:zenilib.obj
 0002:00073cb0       ?end@?$vector@PAV?$Triangle@VVertex3f_Color@Zeni@@@Zeni@@V?$allocator@PAV?$Triangle@VVertex3f_Color@Zeni@@@Zeni@@@std@@@std@@QAE?AV?$_Vector_iterator@PAV?$Triangle@VVertex3f_Color@Zeni@@@Zeni@@V?$allocator@PAV?$Triangle@VVertex3f_Color@Zeni@@@Zeni@@@std@@@2@XZ 004f4cb0 f i Zenilib:zenilib.obj
 0002:00073d40       ?size@?$vector@PAV?$Triangle@VVertex3f_Color@Zeni@@@Zeni@@V?$allocator@PAV?$Triangle@VVertex3f_Color@Zeni@@@Zeni@@@std@@@std@@QBEIXZ 004f4d40 f i Zenilib:zenilib.obj
 0002:00073d90       ?empty@?$vector@PAV?$Triangle@VVertex3f_Color@Zeni@@@Zeni@@V?$allocator@PAV?$Triangle@VVertex3f_Color@Zeni@@@Zeni@@@std@@@std@@QBE_NXZ 004f4d90 f i Zenilib:zenilib.obj
 0002:00073df0       ??A?$vector@PAV?$Triangle@VVertex3f_Color@Zeni@@@Zeni@@V?$allocator@PAV?$Triangle@VVertex3f_Color@Zeni@@@Zeni@@@std@@@std@@QAEAAPAV?$Triangle@VVertex3f_Color@Zeni@@@Zeni@@I@Z 004f4df0 f i Zenilib:zenilib.obj
 0002:00073f70       ?push_back@?$vector@PAV?$Triangle@VVertex3f_Color@Zeni@@@Zeni@@V?$allocator@PAV?$Triangle@VVertex3f_Color@Zeni@@@Zeni@@@std@@@std@@QAEXABQAV?$Triangle@VVertex3f_Color@Zeni@@@Zeni@@@Z 004f4f70 f i Zenilib:zenilib.obj
 0002:000740e0       ??0?$vector@PAV?$Triangle@VVertex3f_Texture@Zeni@@@Zeni@@V?$allocator@PAV?$Triangle@VVertex3f_Texture@Zeni@@@Zeni@@@std@@@std@@QAE@XZ 004f50e0 f i Zenilib:zenilib.obj
 0002:000741a0       ??1?$vector@PAV?$Triangle@VVertex3f_Texture@Zeni@@@Zeni@@V?$allocator@PAV?$Triangle@VVertex3f_Texture@Zeni@@@Zeni@@@std@@@std@@QAE@XZ 004f51a0 f i Zenilib:zenilib.obj
 0002:00074240       ?begin@?$vector@PAV?$Triangle@VVertex3f_Texture@Zeni@@@Zeni@@V?$allocator@PAV?$Triangle@VVertex3f_Texture@Zeni@@@Zeni@@@std@@@std@@QAE?AV?$_Vector_iterator@PAV?$Triangle@VVertex3f_Texture@Zeni@@@Zeni@@V?$allocator@PAV?$Triangle@VVertex3f_Texture@Zeni@@@Zeni@@@std@@@2@XZ 004f5240 f i Zenilib:zenilib.obj
 0002:000742d0       ?end@?$vector@PAV?$Triangle@VVertex3f_Texture@Zeni@@@Zeni@@V?$allocator@PAV?$Triangle@VVertex3f_Texture@Zeni@@@Zeni@@@std@@@std@@QAE?AV?$_Vector_iterator@PAV?$Triangle@VVertex3f_Texture@Zeni@@@Zeni@@V?$allocator@PAV?$Triangle@VVertex3f_Texture@Zeni@@@Zeni@@@std@@@2@XZ 004f52d0 f i Zenilib:zenilib.obj
 0002:00074360       ?size@?$vector@PAV?$Triangle@VVertex3f_Texture@Zeni@@@Zeni@@V?$allocator@PAV?$Triangle@VVertex3f_Texture@Zeni@@@Zeni@@@std@@@std@@QBEIXZ 004f5360 f i Zenilib:zenilib.obj
 0002:000743b0       ?empty@?$vector@PAV?$Triangle@VVertex3f_Texture@Zeni@@@Zeni@@V?$allocator@PAV?$Triangle@VVertex3f_Texture@Zeni@@@Zeni@@@std@@@std@@QBE_NXZ 004f53b0 f i Zenilib:zenilib.obj
 0002:00074410       ??A?$vector@PAV?$Triangle@VVertex3f_Texture@Zeni@@@Zeni@@V?$allocator@PAV?$Triangle@VVertex3f_Texture@Zeni@@@Zeni@@@std@@@std@@QAEAAPAV?$Triangle@VVertex3f_Texture@Zeni@@@Zeni@@I@Z 004f5410 f i Zenilib:zenilib.obj
 0002:00074590       ?push_back@?$vector@PAV?$Triangle@VVertex3f_Texture@Zeni@@@Zeni@@V?$allocator@PAV?$Triangle@VVertex3f_Texture@Zeni@@@Zeni@@@std@@@std@@QAEXABQAV?$Triangle@VVertex3f_Texture@Zeni@@@Zeni@@@Z 004f5590 f i Zenilib:zenilib.obj
 0002:00074700       ??0?$vector@PAUVertex_Buffer_Range@Vertex_Buffer@Zeni@@V?$allocator@PAUVertex_Buffer_Range@Vertex_Buffer@Zeni@@@std@@@std@@QAE@XZ 004f5700 f i Zenilib:zenilib.obj
 0002:000747c0       ??1?$vector@PAUVertex_Buffer_Range@Vertex_Buffer@Zeni@@V?$allocator@PAUVertex_Buffer_Range@Vertex_Buffer@Zeni@@@std@@@std@@QAE@XZ 004f57c0 f i Zenilib:zenilib.obj
 0002:00074860       ?size@?$vector@PAUVertex_Buffer_Range@Vertex_Buffer@Zeni@@V?$allocator@PAUVertex_Buffer_Range@Vertex_Buffer@Zeni@@@std@@@std@@QBEIXZ 004f5860 f i Zenilib:zenilib.obj
 0002:000748b0       ?empty@?$vector@PAUVertex_Buffer_Range@Vertex_Buffer@Zeni@@V?$allocator@PAUVertex_Buffer_Range@Vertex_Buffer@Zeni@@@std@@@std@@QBE_NXZ 004f58b0 f i Zenilib:zenilib.obj
 0002:00074910       ??A?$vector@PAUVertex_Buffer_Range@Vertex_Buffer@Zeni@@V?$allocator@PAUVertex_Buffer_Range@Vertex_Buffer@Zeni@@@std@@@std@@QAEAAPAUVertex_Buffer_Range@Vertex_Buffer@Zeni@@I@Z 004f5910 f i Zenilib:zenilib.obj
 0002:00074a90       ??0?$set@PBVTask@Zeni@@U?$less@PBVTask@Zeni@@@std@@V?$allocator@PBVTask@Zeni@@@4@@std@@QAE@XZ 004f5a90 f i Zenilib:zenilib.obj
 0002:00074b00       ??1?$_Tree@V?$_Tset_traits@PBVTask@Zeni@@U?$less@PBVTask@Zeni@@@std@@V?$allocator@PBVTask@Zeni@@@4@$0A@@std@@@std@@QAE@XZ 004f5b00 f i Zenilib:zenilib.obj
 0002:00074ba0       ?begin@?$_Tree@V?$_Tset_traits@PBVTask@Zeni@@U?$less@PBVTask@Zeni@@@std@@V?$allocator@PBVTask@Zeni@@@4@$0A@@std@@@std@@QAE?AViterator@12@XZ 004f5ba0 f i Zenilib:zenilib.obj
 0002:00074c30       ?end@?$_Tree@V?$_Tset_traits@PBVTask@Zeni@@U?$less@PBVTask@Zeni@@@std@@V?$allocator@PBVTask@Zeni@@@4@$0A@@std@@@std@@QAE?AViterator@12@XZ 004f5c30 f i Zenilib:zenilib.obj
 0002:00074cc0       ??Dconst_iterator@?$_Tree@V?$_Tset_traits@PBVTask@Zeni@@U?$less@PBVTask@Zeni@@@std@@V?$allocator@PBVTask@Zeni@@@4@$0A@@std@@@std@@QBEABQBVTask@Zeni@@XZ 004f5cc0 f i Zenilib:zenilib.obj
 0002:00074de0       ??Econst_iterator@?$_Tree@V?$_Tset_traits@PBVTask@Zeni@@U?$less@PBVTask@Zeni@@@std@@V?$allocator@PBVTask@Zeni@@@4@$0A@@std@@@std@@QAEAAV012@XZ 004f5de0 f i Zenilib:zenilib.obj
 0002:00074e40       ??9const_iterator@?$_Tree@V?$_Tset_traits@PBVTask@Zeni@@U?$less@PBVTask@Zeni@@@std@@V?$allocator@PBVTask@Zeni@@@4@$0A@@std@@@std@@QBE_NABV012@@Z 004f5e40 f i Zenilib:zenilib.obj
 0002:00074eb0       ??0?$vector@UChunk@Split_UDP_Socket@Zeni@@V?$allocator@UChunk@Split_UDP_Socket@Zeni@@@std@@@std@@QAE@I@Z 004f5eb0 f i Zenilib:zenilib.obj
 0002:00074fb0       ??1?$vector@UChunk@Split_UDP_Socket@Zeni@@V?$allocator@UChunk@Split_UDP_Socket@Zeni@@@std@@@std@@QAE@XZ 004f5fb0 f i Zenilib:zenilib.obj
 0002:00075050       ?begin@?$vector@UChunk@Split_UDP_Socket@Zeni@@V?$allocator@UChunk@Split_UDP_Socket@Zeni@@@std@@@std@@QBE?AV?$_Vector_const_iterator@UChunk@Split_UDP_Socket@Zeni@@V?$allocator@UChunk@Split_UDP_Socket@Zeni@@@std@@@2@XZ 004f6050 f i Zenilib:zenilib.obj
 0002:000750e0       ?end@?$vector@UChunk@Split_UDP_Socket@Zeni@@V?$allocator@UChunk@Split_UDP_Socket@Zeni@@@std@@@std@@QBE?AV?$_Vector_const_iterator@UChunk@Split_UDP_Socket@Zeni@@V?$allocator@UChunk@Split_UDP_Socket@Zeni@@@std@@@2@XZ 004f60e0 f i Zenilib:zenilib.obj
 0002:00075170       ?size@?$vector@UChunk@Split_UDP_Socket@Zeni@@V?$allocator@UChunk@Split_UDP_Socket@Zeni@@@std@@@std@@QBEIXZ 004f6170 f i Zenilib:zenilib.obj
 0002:000751c0       ??A?$vector@UChunk@Split_UDP_Socket@Zeni@@V?$allocator@UChunk@Split_UDP_Socket@Zeni@@@std@@@std@@QAEAAUChunk@Split_UDP_Socket@Zeni@@I@Z 004f61c0 f i Zenilib:zenilib.obj
 0002:00075340       ??0?$list@PAVChunk_Set@Split_UDP_Socket@Zeni@@V?$allocator@PAVChunk_Set@Split_UDP_Socket@Zeni@@@std@@@std@@QAE@XZ 004f6340 f i Zenilib:zenilib.obj
 0002:00075410       ??1?$list@PAVChunk_Set@Split_UDP_Socket@Zeni@@V?$allocator@PAVChunk_Set@Split_UDP_Socket@Zeni@@@std@@@std@@QAE@XZ 004f6410 f i Zenilib:zenilib.obj
 0002:000754b0       ?begin@?$list@PAVChunk_Set@Split_UDP_Socket@Zeni@@V?$allocator@PAVChunk_Set@Split_UDP_Socket@Zeni@@@std@@@std@@QAE?AV?$_Iterator@$00@12@XZ 004f64b0 f i Zenilib:zenilib.obj
 0002:00075540       ?end@?$list@PAVChunk_Set@Split_UDP_Socket@Zeni@@V?$allocator@PAVChunk_Set@Split_UDP_Socket@Zeni@@@std@@@std@@QAE?AV?$_Iterator@$00@12@XZ 004f6540 f i Zenilib:zenilib.obj
 0002:000755d0       ?size@?$list@PAVChunk_Set@Split_UDP_Socket@Zeni@@V?$allocator@PAVChunk_Set@Split_UDP_Socket@Zeni@@@std@@@std@@QBEIXZ 004f65d0 f i Zenilib:zenilib.obj
 0002:00075610       ?push_front@?$list@PAVChunk_Set@Split_UDP_Socket@Zeni@@V?$allocator@PAVChunk_Set@Split_UDP_Socket@Zeni@@@std@@@std@@QAEXABQAVChunk_Set@Split_UDP_Socket@Zeni@@@Z 004f6610 f i Zenilib:zenilib.obj
 0002:00075710       ?pop_back@?$list@PAVChunk_Set@Split_UDP_Socket@Zeni@@V?$allocator@PAVChunk_Set@Split_UDP_Socket@Zeni@@@std@@@std@@QAEXXZ 004f6710 f i Zenilib:zenilib.obj
 0002:00075830       ??D?$_Iterator@$00@?$list@PAVChunk_Set@Split_UDP_Socket@Zeni@@V?$allocator@PAVChunk_Set@Split_UDP_Socket@Zeni@@@std@@@std@@QBEAAPAVChunk_Set@Split_UDP_Socket@Zeni@@XZ 004f6830 f i Zenilib:zenilib.obj
 0002:00075880       ??E?$_Iterator@$00@?$list@PAVChunk_Set@Split_UDP_Socket@Zeni@@V?$allocator@PAVChunk_Set@Split_UDP_Socket@Zeni@@@std@@@std@@QAEAAV012@XZ 004f6880 f i Zenilib:zenilib.obj
 0002:000758e0       ??9?$_Const_iterator@$00@?$list@PAVChunk_Set@Split_UDP_Socket@Zeni@@V?$allocator@PAVChunk_Set@Split_UDP_Socket@Zeni@@@std@@@std@@QBE_NABV012@@Z 004f68e0 f i Zenilib:zenilib.obj
 0002:00075950       ??0?$hash_map@KVSound_Buffer@Zeni@@V?$hash_compare@KU?$less@K@std@@@stdext@@V?$allocator@U?$pair@$$CBKVSound_Buffer@Zeni@@@std@@@std@@@stdext@@QAE@XZ 004f6950 f i Zenilib:zenilib.obj
 0002:000759c0       ??A?$hash_map@KVSound_Buffer@Zeni@@V?$hash_compare@KU?$less@K@std@@@stdext@@V?$allocator@U?$pair@$$CBKVSound_Buffer@Zeni@@@std@@@std@@@stdext@@QAEAAVSound_Buffer@Zeni@@ABK@Z 004f69c0 f i Zenilib:zenilib.obj
 0002:00075c20       ??1?$_Hash@V?$_Hmap_traits@KVSound_Buffer@Zeni@@V?$hash_compare@KU?$less@K@std@@@stdext@@V?$allocator@U?$pair@$$CBKVSound_Buffer@Zeni@@@std@@@std@@$0A@@stdext@@@stdext@@QAE@XZ 004f6c20 f i Zenilib:zenilib.obj
 0002:00075ce0       ?end@?$_Hash@V?$_Hmap_traits@KVSound_Buffer@Zeni@@V?$hash_compare@KU?$less@K@std@@@stdext@@V?$allocator@U?$pair@$$CBKVSound_Buffer@Zeni@@@std@@@std@@$0A@@stdext@@@stdext@@QBE?AV?$_Const_iterator@$00@?$list@U?$pair@$$CBKVSound_Buffer@Zeni@@@std@@V?$allocator@U?$pair@$$CBKVSound_Buffer@Zeni@@@std@@@2@@std@@XZ 004f6ce0 f i Zenilib:zenilib.obj
 0002:00075d60       ?erase@?$_Hash@V?$_Hmap_traits@KVSound_Buffer@Zeni@@V?$hash_compare@KU?$less@K@std@@@stdext@@V?$allocator@U?$pair@$$CBKVSound_Buffer@Zeni@@@std@@@std@@$0A@@stdext@@@stdext@@QAEIABK@Z 004f6d60 f i Zenilib:zenilib.obj
 0002:00075f60       ?clear@?$_Hash@V?$_Hmap_traits@KVSound_Buffer@Zeni@@V?$hash_compare@KU?$less@K@std@@@stdext@@V?$allocator@U?$pair@$$CBKVSound_Buffer@Zeni@@@std@@@std@@$0A@@stdext@@@stdext@@QAEXXZ 004f6f60 f i Zenilib:zenilib.obj
 0002:00075fc0       ?find@?$_Hash@V?$_Hmap_traits@KVSound_Buffer@Zeni@@V?$hash_compare@KU?$less@K@std@@@stdext@@V?$allocator@U?$pair@$$CBKVSound_Buffer@Zeni@@@std@@@std@@$0A@@stdext@@@stdext@@QBE?AV?$_Const_iterator@$00@?$list@U?$pair@$$CBKVSound_Buffer@Zeni@@@std@@V?$allocator@U?$pair@$$CBKVSound_Buffer@Zeni@@@std@@@2@@std@@ABK@Z 004f6fc0 f i Zenilib:zenilib.obj
 0002:00076040       ?begin@?$_Tree@V?$_Tset_traits@PAVRadio_Button@Zeni@@U?$less@PAVRadio_Button@Zeni@@@std@@V?$allocator@PAVRadio_Button@Zeni@@@4@$0A@@std@@@std@@QAE?AViterator@12@XZ 004f7040 f i Zenilib:zenilib.obj
 0002:000760d0       ?begin@?$_Tree@V?$_Tset_traits@PAVRadio_Button@Zeni@@U?$less@PAVRadio_Button@Zeni@@@std@@V?$allocator@PAVRadio_Button@Zeni@@@4@$0A@@std@@@std@@QBE?AVconst_iterator@12@XZ 004f70d0 f i Zenilib:zenilib.obj
 0002:00076160       ?end@?$_Tree@V?$_Tset_traits@PAVRadio_Button@Zeni@@U?$less@PAVRadio_Button@Zeni@@@std@@V?$allocator@PAVRadio_Button@Zeni@@@4@$0A@@std@@@std@@QAE?AViterator@12@XZ 004f7160 f i Zenilib:zenilib.obj
 0002:000761f0       ?end@?$_Tree@V?$_Tset_traits@PAVRadio_Button@Zeni@@U?$less@PAVRadio_Button@Zeni@@@std@@V?$allocator@PAVRadio_Button@Zeni@@@4@$0A@@std@@@std@@QBE?AVconst_iterator@12@XZ 004f71f0 f i Zenilib:zenilib.obj
 0002:00076280       ??4?$vector@HV?$allocator@H@std@@@std@@QAEAAV01@ABV01@@Z 004f7280 f i Zenilib:zenilib.obj
 0002:000764b0       ?size@?$vector@HV?$allocator@H@std@@@std@@QBEIXZ 004f74b0 f i Zenilib:zenilib.obj
 0002:00076500       ??A?$vector@HV?$allocator@H@std@@@std@@QBEABHI@Z 004f7500 f i Zenilib:zenilib.obj
 0002:00076680       ??A?$vector@HV?$allocator@H@std@@@std@@QAEAAHI@Z 004f7680 f i Zenilib:zenilib.obj
 0002:00076800       ?push_back@?$vector@HV?$allocator@H@std@@@std@@QAEXABH@Z 004f7800 f i Zenilib:zenilib.obj
 0002:00076970       ??0?$vector@ULine@Text_Box@Zeni@@V?$allocator@ULine@Text_Box@Zeni@@@std@@@std@@QAE@XZ 004f7970 f i Zenilib:zenilib.obj
 0002:00076a30       ?begin@?$vector@ULine@Text_Box@Zeni@@V?$allocator@ULine@Text_Box@Zeni@@@std@@@std@@QAE?AV?$_Vector_iterator@ULine@Text_Box@Zeni@@V?$allocator@ULine@Text_Box@Zeni@@@std@@@2@XZ 004f7a30 f i Zenilib:zenilib.obj
 0002:00076ac0       ?begin@?$vector@ULine@Text_Box@Zeni@@V?$allocator@ULine@Text_Box@Zeni@@@std@@@std@@QBE?AV?$_Vector_const_iterator@ULine@Text_Box@Zeni@@V?$allocator@ULine@Text_Box@Zeni@@@std@@@2@XZ 004f7ac0 f i Zenilib:zenilib.obj
 0002:00076b50       ?end@?$vector@ULine@Text_Box@Zeni@@V?$allocator@ULine@Text_Box@Zeni@@@std@@@std@@QAE?AV?$_Vector_iterator@ULine@Text_Box@Zeni@@V?$allocator@ULine@Text_Box@Zeni@@@std@@@2@XZ 004f7b50 f i Zenilib:zenilib.obj
 0002:00076be0       ?end@?$vector@ULine@Text_Box@Zeni@@V?$allocator@ULine@Text_Box@Zeni@@@std@@@std@@QBE?AV?$_Vector_const_iterator@ULine@Text_Box@Zeni@@V?$allocator@ULine@Text_Box@Zeni@@@std@@@2@XZ 004f7be0 f i Zenilib:zenilib.obj
 0002:00076c70       ?rbegin@?$vector@ULine@Text_Box@Zeni@@V?$allocator@ULine@Text_Box@Zeni@@@std@@@std@@QAE?AV?$reverse_iterator@V?$_Vector_iterator@ULine@Text_Box@Zeni@@V?$allocator@ULine@Text_Box@Zeni@@@std@@@std@@@2@XZ 004f7c70 f i Zenilib:zenilib.obj
 0002:00076d90       ??A?$vector@ULine@Text_Box@Zeni@@V?$allocator@ULine@Text_Box@Zeni@@@std@@@std@@QBEABULine@Text_Box@Zeni@@I@Z 004f7d90 f i Zenilib:zenilib.obj
 0002:00076f10       ??A?$vector@ULine@Text_Box@Zeni@@V?$allocator@ULine@Text_Box@Zeni@@@std@@@std@@QAEAAULine@Text_Box@Zeni@@I@Z 004f7f10 f i Zenilib:zenilib.obj
 0002:00077090       ?push_back@?$vector@ULine@Text_Box@Zeni@@V?$allocator@ULine@Text_Box@Zeni@@@std@@@std@@QAEXABULine@Text_Box@Zeni@@@Z 004f8090 f i Zenilib:zenilib.obj
 0002:00077200       ?clear@?$vector@ULine@Text_Box@Zeni@@V?$allocator@ULine@Text_Box@Zeni@@@std@@@std@@QAEXXZ 004f8200 f i Zenilib:zenilib.obj
 0002:00077390       ?begin@?$_Tree@V?$_Tset_traits@PAVWidget@Zeni@@U?$less@PAVWidget@Zeni@@@std@@V?$allocator@PAVWidget@Zeni@@@4@$0A@@std@@@std@@QAE?AViterator@12@XZ 004f8390 f i Zenilib:zenilib.obj
 0002:00077420       ?begin@?$_Tree@V?$_Tset_traits@PAVWidget@Zeni@@U?$less@PAVWidget@Zeni@@@std@@V?$allocator@PAVWidget@Zeni@@@4@$0A@@std@@@std@@QBE?AVconst_iterator@12@XZ 004f8420 f i Zenilib:zenilib.obj
 0002:000774b0       ?end@?$_Tree@V?$_Tset_traits@PAVWidget@Zeni@@U?$less@PAVWidget@Zeni@@@std@@V?$allocator@PAVWidget@Zeni@@@4@$0A@@std@@@std@@QAE?AViterator@12@XZ 004f84b0 f i Zenilib:zenilib.obj
 0002:00077540       ?end@?$_Tree@V?$_Tset_traits@PAVWidget@Zeni@@U?$less@PAVWidget@Zeni@@@std@@V?$allocator@PAVWidget@Zeni@@@4@$0A@@std@@@std@@QBE?AVconst_iterator@12@XZ 004f8540 f i Zenilib:zenilib.obj
 0002:000775d0       ??Diterator@?$_Tree@V?$_Tset_traits@PAVRadio_Button@Zeni@@U?$less@PAVRadio_Button@Zeni@@@std@@V?$allocator@PAVRadio_Button@Zeni@@@4@$0A@@std@@@std@@QBEAAPAVRadio_Button@Zeni@@XZ 004f85d0 f i Zenilib:zenilib.obj
 0002:00077620       ??Eiterator@?$_Tree@V?$_Tset_traits@PAVRadio_Button@Zeni@@U?$less@PAVRadio_Button@Zeni@@@std@@V?$allocator@PAVRadio_Button@Zeni@@@4@$0A@@std@@@std@@QAEAAV012@XZ 004f8620 f i Zenilib:zenilib.obj
 0002:00077680       ??Dconst_iterator@?$_Tree@V?$_Tset_traits@PAVRadio_Button@Zeni@@U?$less@PAVRadio_Button@Zeni@@@std@@V?$allocator@PAVRadio_Button@Zeni@@@4@$0A@@std@@@std@@QBEABQAVRadio_Button@Zeni@@XZ 004f8680 f i Zenilib:zenilib.obj
 0002:000777a0       ??Econst_iterator@?$_Tree@V?$_Tset_traits@PAVRadio_Button@Zeni@@U?$less@PAVRadio_Button@Zeni@@@std@@V?$allocator@PAVRadio_Button@Zeni@@@4@$0A@@std@@@std@@QAEAAV012@XZ 004f87a0 f i Zenilib:zenilib.obj
 0002:00077800       ??9const_iterator@?$_Tree@V?$_Tset_traits@PAVRadio_Button@Zeni@@U?$less@PAVRadio_Button@Zeni@@@std@@V?$allocator@PAVRadio_Button@Zeni@@@4@$0A@@std@@@std@@QBE_NABV012@@Z 004f8800 f i Zenilib:zenilib.obj
 0002:00077870       ??Diterator@?$_Tree@V?$_Tset_traits@PAVWidget@Zeni@@U?$less@PAVWidget@Zeni@@@std@@V?$allocator@PAVWidget@Zeni@@@4@$0A@@std@@@std@@QBEAAPAVWidget@Zeni@@XZ 004f8870 f i Zenilib:zenilib.obj
 0002:000778c0       ??Eiterator@?$_Tree@V?$_Tset_traits@PAVWidget@Zeni@@U?$less@PAVWidget@Zeni@@@std@@V?$allocator@PAVWidget@Zeni@@@4@$0A@@std@@@std@@QAEAAV012@XZ 004f88c0 f i Zenilib:zenilib.obj
 0002:00077920       ??Dconst_iterator@?$_Tree@V?$_Tset_traits@PAVWidget@Zeni@@U?$less@PAVWidget@Zeni@@@std@@V?$allocator@PAVWidget@Zeni@@@4@$0A@@std@@@std@@QBEABQAVWidget@Zeni@@XZ 004f8920 f i Zenilib:zenilib.obj
 0002:00077a40       ??Econst_iterator@?$_Tree@V?$_Tset_traits@PAVWidget@Zeni@@U?$less@PAVWidget@Zeni@@@std@@V?$allocator@PAVWidget@Zeni@@@4@$0A@@std@@@std@@QAEAAV012@XZ 004f8a40 f i Zenilib:zenilib.obj
 0002:00077aa0       ??9const_iterator@?$_Tree@V?$_Tset_traits@PAVWidget@Zeni@@U?$less@PAVWidget@Zeni@@@std@@V?$allocator@PAVWidget@Zeni@@@4@$0A@@std@@@std@@QBE_NABV012@@Z 004f8aa0 f i Zenilib:zenilib.obj
 0002:00077b10       ??C?$_Const_iterator@$00@?$list@U?$pair@$$CBV?$basic_string@DU?$char_traits@D@std@@V?$allocator@D@2@@std@@K@std@@V?$allocator@U?$pair@$$CBV?$basic_string@DU?$char_traits@D@std@@V?$allocator@D@2@@std@@K@std@@@2@@std@@QBEPBU?$pair@$$CBV?$basic_string@DU?$char_traits@D@std@@V?$allocator@D@2@@std@@K@2@XZ 004f8b10 f i Zenilib:zenilib.obj
 0002:00077b60       ??8?$_Const_iterator@$00@?$list@U?$pair@$$CBV?$basic_string@DU?$char_traits@D@std@@V?$allocator@D@2@@std@@K@std@@V?$allocator@U?$pair@$$CBV?$basic_string@DU?$char_traits@D@std@@V?$allocator@D@2@@std@@K@std@@@2@@std@@QBE_NABV012@@Z 004f8b60 f i Zenilib:zenilib.obj
 0002:00077bd0       ??9?$_Const_iterator@$00@?$list@U?$pair@$$CBV?$basic_string@DU?$char_traits@D@std@@V?$allocator@D@2@@std@@K@std@@V?$allocator@U?$pair@$$CBV?$basic_string@DU?$char_traits@D@std@@V?$allocator@D@2@@std@@K@std@@@2@@std@@QBE_NABV012@@Z 004f8bd0 f i Zenilib:zenilib.obj
 0002:00077c40       ??C?$_Const_iterator@$00@?$list@U?$pair@$$CBKVColor@Zeni@@@std@@V?$allocator@U?$pair@$$CBKVColor@Zeni@@@std@@@2@@std@@QBEPBU?$pair@$$CBKVColor@Zeni@@@2@XZ 004f8c40 f i Zenilib:zenilib.obj
 0002:00077c90       ??8?$_Const_iterator@$00@?$list@U?$pair@$$CBKVColor@Zeni@@@std@@V?$allocator@U?$pair@$$CBKVColor@Zeni@@@std@@@2@@std@@QBE_NABV012@@Z 004f8c90 f i Zenilib:zenilib.obj
 0002:00077d00       ??C?$_Iterator@$00@?$list@U?$pair@$$CBV?$basic_string@DU?$char_traits@D@std@@V?$allocator@D@2@@std@@K@std@@V?$allocator@U?$pair@$$CBV?$basic_string@DU?$char_traits@D@std@@V?$allocator@D@2@@std@@K@std@@@2@@std@@QBEPAU?$pair@$$CBV?$basic_string@DU?$char_traits@D@std@@V?$allocator@D@2@@std@@K@2@XZ 004f8d00 f i Zenilib:zenilib.obj
 0002:00077d50       ??E?$_Iterator@$00@?$list@U?$pair@$$CBV?$basic_string@DU?$char_traits@D@std@@V?$allocator@D@2@@std@@K@std@@V?$allocator@U?$pair@$$CBV?$basic_string@DU?$char_traits@D@std@@V?$allocator@D@2@@std@@K@std@@@2@@std@@QAEAAV012@XZ 004f8d50 f i Zenilib:zenilib.obj
 0002:00077db0       ??C?$_Const_iterator@$00@?$list@U?$pair@$$CBKPAVFont@Zeni@@@std@@V?$allocator@U?$pair@$$CBKPAVFont@Zeni@@@std@@@2@@std@@QBEPBU?$pair@$$CBKPAVFont@Zeni@@@2@XZ 004f8db0 f i Zenilib:zenilib.obj
 0002:00077e00       ??8?$_Const_iterator@$00@?$list@U?$pair@$$CBKPAVFont@Zeni@@@std@@V?$allocator@U?$pair@$$CBKPAVFont@Zeni@@@std@@@2@@std@@QBE_NABV012@@Z 004f8e00 f i Zenilib:zenilib.obj
 0002:00077e70       ??9?$_Const_iterator@$00@?$list@U?$pair@$$CBKPAVFont@Zeni@@@std@@V?$allocator@U?$pair@$$CBKPAVFont@Zeni@@@std@@@2@@std@@QBE_NABV012@@Z 004f8e70 f i Zenilib:zenilib.obj
 0002:00077ee0       ??C?$_Iterator@$00@?$list@U?$pair@$$CBKPAVFont@Zeni@@@std@@V?$allocator@U?$pair@$$CBKPAVFont@Zeni@@@std@@@2@@std@@QBEPAU?$pair@$$CBKPAVFont@Zeni@@@2@XZ 004f8ee0 f i Zenilib:zenilib.obj
 0002:00077f30       ??E?$_Iterator@$00@?$list@U?$pair@$$CBKPAVFont@Zeni@@@std@@V?$allocator@U?$pair@$$CBKPAVFont@Zeni@@@std@@@2@@std@@QAEAAV012@XZ 004f8f30 f i Zenilib:zenilib.obj
 0002:00077f90       ??Citerator@?$_Tree@V?$_Tmap_traits@UZeni_Input_ID@Zeni@@HU?$less@UZeni_Input_ID@Zeni@@@std@@V?$allocator@U?$pair@$$CBUZeni_Input_ID@Zeni@@H@std@@@4@$0A@@std@@@std@@QBEPAU?$pair@$$CBUZeni_Input_ID@Zeni@@H@2@XZ 004f8f90 f i Zenilib:zenilib.obj
 0002:00077fe0       ??Cconst_iterator@?$_Tree@V?$_Tmap_traits@UZeni_Input_ID@Zeni@@HU?$less@UZeni_Input_ID@Zeni@@@std@@V?$allocator@U?$pair@$$CBUZeni_Input_ID@Zeni@@H@std@@@4@$0A@@std@@@std@@QBEPBU?$pair@$$CBUZeni_Input_ID@Zeni@@H@2@XZ 004f8fe0 f i Zenilib:zenilib.obj
 0002:00078030       ??9const_iterator@?$_Tree@V?$_Tmap_traits@UZeni_Input_ID@Zeni@@HU?$less@UZeni_Input_ID@Zeni@@@std@@V?$allocator@U?$pair@$$CBUZeni_Input_ID@Zeni@@H@std@@@4@$0A@@std@@@std@@QBE_NABV012@@Z 004f9030 f i Zenilib:zenilib.obj
 0002:000780a0       ??Cconst_iterator@?$_Tree@V?$_Tmap_traits@HUZeni_Input_ID@Zeni@@U?$less@H@std@@V?$allocator@U?$pair@$$CBHUZeni_Input_ID@Zeni@@@std@@@4@$0A@@std@@@std@@QBEPBU?$pair@$$CBHUZeni_Input_ID@Zeni@@@2@XZ 004f90a0 f i Zenilib:zenilib.obj
 0002:000780f0       ??9const_iterator@?$_Tree@V?$_Tmap_traits@HUZeni_Input_ID@Zeni@@U?$less@H@std@@V?$allocator@U?$pair@$$CBHUZeni_Input_ID@Zeni@@@std@@@4@$0A@@std@@@std@@QBE_NABV012@@Z 004f90f0 f i Zenilib:zenilib.obj
 0002:00078160       ??0?$vector@V?$basic_string@DU?$char_traits@D@std@@V?$allocator@D@2@@std@@V?$allocator@V?$basic_string@DU?$char_traits@D@std@@V?$allocator@D@2@@std@@@2@@std@@QAE@I@Z 004f9160 f i Zenilib:zenilib.obj
 0002:00078290       ??A?$vector@V?$basic_string@DU?$char_traits@D@std@@V?$allocator@D@2@@std@@V?$allocator@V?$basic_string@DU?$char_traits@D@std@@V?$allocator@D@2@@std@@@2@@std@@QAEAAV?$basic_string@DU?$char_traits@D@std@@V?$allocator@D@2@@1@I@Z 004f9290 f i Zenilib:zenilib.obj
 0002:00078410       ??C?$_Vector_const_iterator@UChunk@Split_UDP_Socket@Zeni@@V?$allocator@UChunk@Split_UDP_Socket@Zeni@@@std@@@std@@QBEPBUChunk@Split_UDP_Socket@Zeni@@XZ 004f9410 f i Zenilib:zenilib.obj
 0002:00078460       ??E?$_Vector_const_iterator@UChunk@Split_UDP_Socket@Zeni@@V?$allocator@UChunk@Split_UDP_Socket@Zeni@@@std@@@std@@QAEAAV01@XZ 004f9460 f i Zenilib:zenilib.obj
 0002:00078600       ??9?$_Vector_const_iterator@UChunk@Split_UDP_Socket@Zeni@@V?$allocator@UChunk@Split_UDP_Socket@Zeni@@@std@@@std@@QBE_NABV01@@Z 004f9600 f i Zenilib:zenilib.obj
 0002:00078670       ??0?$vector@DV?$allocator@D@std@@@std@@QAE@XZ 004f9670 f i Zenilib:zenilib.obj
 0002:00078740       ??1?$vector@DV?$allocator@D@std@@@std@@QAE@XZ 004f9740 f i Zenilib:zenilib.obj
 0002:000787e0       ?end@?$vector@DV?$allocator@D@std@@@std@@QAE?AV?$_Vector_iterator@DV?$allocator@D@std@@@2@XZ 004f97e0 f i Zenilib:zenilib.obj
 0002:00078870       ?size@?$vector@DV?$allocator@D@std@@@std@@QBEIXZ 004f9870 f i Zenilib:zenilib.obj
 0002:000788c0       ??A?$vector@DV?$allocator@D@std@@@std@@QAEAADI@Z 004f98c0 f i Zenilib:zenilib.obj
 0002:00078a40       ??C?$_Const_iterator@$00@?$list@U?$pair@$$CBKVSound_Buffer@Zeni@@@std@@V?$allocator@U?$pair@$$CBKVSound_Buffer@Zeni@@@std@@@2@@std@@QBEPBU?$pair@$$CBKVSound_Buffer@Zeni@@@2@XZ 004f9a40 f i Zenilib:zenilib.obj
 0002:00078a90       ??8?$_Const_iterator@$00@?$list@U?$pair@$$CBKVSound_Buffer@Zeni@@@std@@V?$allocator@U?$pair@$$CBKVSound_Buffer@Zeni@@@std@@@2@@std@@QBE_NABV012@@Z 004f9a90 f i Zenilib:zenilib.obj
 0002:00078b00       ??C?$_Iterator@$00@?$list@U?$pair@$$CBKPAVTexture@Zeni@@@std@@V?$allocator@U?$pair@$$CBKPAVTexture@Zeni@@@std@@@2@@std@@QBEPAU?$pair@$$CBKPAVTexture@Zeni@@@2@XZ 004f9b00 f i Zenilib:zenilib.obj
 0002:00078b50       ??E?$_Iterator@$00@?$list@U?$pair@$$CBKPAVTexture@Zeni@@@std@@V?$allocator@U?$pair@$$CBKPAVTexture@Zeni@@@std@@@2@@std@@QAEAAV012@XZ 004f9b50 f i Zenilib:zenilib.obj
 0002:00078bb0       ??C?$_Const_iterator@$00@?$list@U?$pair@$$CBKPAVTexture@Zeni@@@std@@V?$allocator@U?$pair@$$CBKPAVTexture@Zeni@@@std@@@2@@std@@QBEPBU?$pair@$$CBKPAVTexture@Zeni@@@2@XZ 004f9bb0 f i Zenilib:zenilib.obj
 0002:00078c00       ??8?$_Const_iterator@$00@?$list@U?$pair@$$CBKPAVTexture@Zeni@@@std@@V?$allocator@U?$pair@$$CBKPAVTexture@Zeni@@@std@@@2@@std@@QBE_NABV012@@Z 004f9c00 f i Zenilib:zenilib.obj
 0002:00078c70       ??9?$_Const_iterator@$00@?$list@U?$pair@$$CBKPAVTexture@Zeni@@@std@@V?$allocator@U?$pair@$$CBKPAVTexture@Zeni@@@std@@@2@@std@@QBE_NABV012@@Z 004f9c70 f i Zenilib:zenilib.obj
 0002:00078ce0       ??0?$auto_ptr@VRenderable@Zeni@@@std@@QAE@PAVRenderable@Zeni@@@Z 004f9ce0 f i Zenilib:zenilib.obj
 0002:00078d30       ??1?$auto_ptr@VRenderable@Zeni@@@std@@QAE@XZ 004f9d30 f i Zenilib:zenilib.obj
 0002:00078df0       ??R?$DESCRIBER@VVertex3f_Color@Zeni@@VRender_Wrapper@2@@Zeni@@QBE_NAAV?$vector@PAV?$Triangle@VVertex3f_Color@Zeni@@@Zeni@@V?$allocator@PAV?$Triangle@VVertex3f_Color@Zeni@@@Zeni@@@std@@@std@@AAV?$vector@PAUVertex_Buffer_Range@Vertex_Buffer@Zeni@@V?$allocator@PAUVertex_Buffer_Range@Vertex_Buffer@Zeni@@@std@@@3@ABH@Z 004f9df0 f i Zenilib:zenilib.obj
 0002:000791a0       ?optimize_to_follow@Render_Wrapper@Zeni@@QAEXABV12@@Z 004fa1a0 f i Zenilib:zenilib.obj
 0002:000791e0       ?optimize_to_precede@Render_Wrapper@Zeni@@QAEXABV12@@Z 004fa1e0 f i Zenilib:zenilib.obj
 0002:00079220       ?clear_optimization@Render_Wrapper@Zeni@@QAEXXZ 004fa220 f i Zenilib:zenilib.obj
 0002:00079260       ??8Render_Wrapper@Zeni@@QBE_NABV01@@Z 004fa260 f i Zenilib:zenilib.obj
 0002:000792a0       ??R?$DESCRIBER@VVertex3f_Color@Zeni@@VMaterial_Render_Wrapper@2@@Zeni@@QBE_NAAV?$vector@PAV?$Triangle@VVertex3f_Color@Zeni@@@Zeni@@V?$allocator@PAV?$Triangle@VVertex3f_Color@Zeni@@@Zeni@@@std@@@std@@AAV?$vector@PAUVertex_Buffer_Range@Vertex_Buffer@Zeni@@V?$allocator@PAUVertex_Buffer_Range@Vertex_Buffer@Zeni@@@std@@@3@ABH@Z 004fa2a0 f i Zenilib:zenilib.obj
 0002:000796a0       ??8Material_Render_Wrapper@Zeni@@QBE_NABV01@@Z 004fa6a0 f i Zenilib:zenilib.obj
 0002:00079700       ??R?$DESCRIBER@VVertex3f_Texture@Zeni@@VMaterial_Render_Wrapper@2@@Zeni@@QBE_NAAV?$vector@PAV?$Triangle@VVertex3f_Texture@Zeni@@@Zeni@@V?$allocator@PAV?$Triangle@VVertex3f_Texture@Zeni@@@Zeni@@@std@@@std@@AAV?$vector@PAUVertex_Buffer_Range@Vertex_Buffer@Zeni@@V?$allocator@PAUVertex_Buffer_Range@Vertex_Buffer@Zeni@@@std@@@3@ABH@Z 004fa700 f i Zenilib:zenilib.obj
 0002:00079b00       ??0?$list@UWord@Text_Box@Zeni@@V?$allocator@UWord@Text_Box@Zeni@@@std@@@std@@QAE@XZ 004fab00 f i Zenilib:zenilib.obj
 0002:00079bd0       ??1?$list@UWord@Text_Box@Zeni@@V?$allocator@UWord@Text_Box@Zeni@@@std@@@std@@QAE@XZ 004fabd0 f i Zenilib:zenilib.obj
 0002:00079c70       ?begin@?$list@UWord@Text_Box@Zeni@@V?$allocator@UWord@Text_Box@Zeni@@@std@@@std@@QAE?AV?$_Iterator@$00@12@XZ 004fac70 f i Zenilib:zenilib.obj
 0002:00079d00       ?end@?$list@UWord@Text_Box@Zeni@@V?$allocator@UWord@Text_Box@Zeni@@@std@@@std@@QAE?AV?$_Iterator@$00@12@XZ 004fad00 f i Zenilib:zenilib.obj
 0002:00079d90       ?push_back@?$list@UWord@Text_Box@Zeni@@V?$allocator@UWord@Text_Box@Zeni@@@std@@@std@@QAEXABUWord@Text_Box@Zeni@@@Z 004fad90 f i Zenilib:zenilib.obj
 0002:00079e90       ??D?$_Iterator@$00@?$list@UWord@Text_Box@Zeni@@V?$allocator@UWord@Text_Box@Zeni@@@std@@@std@@QBEAAUWord@Text_Box@Zeni@@XZ 004fae90 f i Zenilib:zenilib.obj
 0002:00079ee0       ??E?$_Iterator@$00@?$list@UWord@Text_Box@Zeni@@V?$allocator@UWord@Text_Box@Zeni@@@std@@@std@@QAEAAV012@XZ 004faee0 f i Zenilib:zenilib.obj
 0002:00079f40       ??9?$_Const_iterator@$00@?$list@UWord@Text_Box@Zeni@@V?$allocator@UWord@Text_Box@Zeni@@@std@@@std@@QBE_NABV012@@Z 004faf40 f i Zenilib:zenilib.obj
 0002:00079fb0       ??C?$_Vector_iterator@ULine@Text_Box@Zeni@@V?$allocator@ULine@Text_Box@Zeni@@@std@@@std@@QBEPAULine@Text_Box@Zeni@@XZ 004fafb0 f i Zenilib:zenilib.obj
 0002:0007a000       ??E?$_Vector_iterator@ULine@Text_Box@Zeni@@V?$allocator@ULine@Text_Box@Zeni@@@std@@@std@@QAEAAV01@XZ 004fb000 f i Zenilib:zenilib.obj
 0002:0007a060       ??C?$_Vector_const_iterator@ULine@Text_Box@Zeni@@V?$allocator@ULine@Text_Box@Zeni@@@std@@@std@@QBEPBULine@Text_Box@Zeni@@XZ 004fb060 f i Zenilib:zenilib.obj
 0002:0007a0b0       ??E?$_Vector_const_iterator@ULine@Text_Box@Zeni@@V?$allocator@ULine@Text_Box@Zeni@@@std@@@std@@QAEAAV01@XZ 004fb0b0 f i Zenilib:zenilib.obj
 0002:0007a250       ??9?$_Vector_const_iterator@ULine@Text_Box@Zeni@@V?$allocator@ULine@Text_Box@Zeni@@@std@@@std@@QBE_NABV01@@Z 004fb250 f i Zenilib:zenilib.obj
 0002:0007a2c0       ??D?$_Revranit@V?$_Vector_iterator@ULine@Text_Box@Zeni@@V?$allocator@ULine@Text_Box@Zeni@@@std@@@std@@U?$iterator@Urandom_access_iterator_tag@std@@ULine@Text_Box@Zeni@@HPAU345@AAU345@@2@@std@@QBEAAULine@Text_Box@Zeni@@XZ 004fb2c0 f i Zenilib:zenilib.obj
 0002:0007a3c0       ??D?$_String_const_iterator@DU?$char_traits@D@std@@V?$allocator@D@2@@std@@QBEABDXZ 004fb3c0 f i Zenilib:zenilib.obj
 0002:0007a500       ??E?$_String_const_iterator@DU?$char_traits@D@std@@V?$allocator@D@2@@std@@QAEAAV01@XZ 004fb500 f i Zenilib:zenilib.obj
 0002:0007a690       ??9?$_String_const_iterator@DU?$char_traits@D@std@@V?$allocator@D@2@@std@@QBE_NABV01@@Z 004fb690 f i Zenilib:zenilib.obj
 0002:0007a700       ??1?$_Vector_val@PAU_SDL_Joystick@@V?$allocator@PAU_SDL_Joystick@@@std@@@std@@QAE@XZ 004fb700 f i Zenilib:zenilib.obj
 0002:0007a750       ??1?$_Vector_iterator@PAU_SDL_Joystick@@V?$allocator@PAU_SDL_Joystick@@@std@@@std@@QAE@XZ 004fb750 f i Zenilib:zenilib.obj
 0002:0007a7a0       ??0?$_Vector_const_iterator@PAU_SDL_Joystick@@V?$allocator@PAU_SDL_Joystick@@@std@@@std@@QAE@ABV01@@Z 004fb7a0 f i Zenilib:zenilib.obj
 0002:0007a810       ??1?$_Vector_const_iterator@PAU_SDL_Joystick@@V?$allocator@PAU_SDL_Joystick@@@std@@@std@@QAE@XZ 004fb810 f i Zenilib:zenilib.obj
 0002:0007a860       ??1?$pair@$$CBV?$basic_string@DU?$char_traits@D@std@@V?$allocator@D@2@@std@@K@std@@QAE@XZ 004fb860 f i Zenilib:zenilib.obj
 0002:0007a8c0       ??1?$pair@V?$_Iterator@$00@?$list@U?$pair@$$CBV?$basic_string@DU?$char_traits@D@std@@V?$allocator@D@2@@std@@K@std@@V?$allocator@U?$pair@$$CBV?$basic_string@DU?$char_traits@D@std@@V?$allocator@D@2@@std@@K@std@@@2@@std@@_N@std@@QAE@XZ 004fb8c0 f i Zenilib:zenilib.obj
 0002:0007a910       ??4?$_Iterator@$00@?$list@U?$pair@$$CBV?$basic_string@DU?$char_traits@D@std@@V?$allocator@D@2@@std@@K@std@@V?$allocator@U?$pair@$$CBV?$basic_string@DU?$char_traits@D@std@@V?$allocator@D@2@@std@@K@std@@@2@@std@@QAEAAV012@ABV012@@Z 004fb910 f i Zenilib:zenilib.obj
 0002:0007a970       ??1?$_Hmap_traits@V?$basic_string@DU?$char_traits@D@std@@V?$allocator@D@2@@std@@KV?$hash_compare@V?$basic_string@DU?$char_traits@D@std@@V?$allocator@D@2@@std@@U?$less@V?$basic_string@DU?$char_traits@D@std@@V?$allocator@D@2@@std@@@2@@stdext@@V?$allocator@U?$pair@$$CBV?$basic_string@DU?$char_traits@D@std@@V?$allocator@D@2@@std@@K@std@@@2@$0A@@stdext@@QAE@XZ 004fb970 f i Zenilib:zenilib.obj
 0002:0007a9d0       ??1?$_Iterator@$00@?$list@U?$pair@$$CBKVColor@Zeni@@@std@@V?$allocator@U?$pair@$$CBKVColor@Zeni@@@std@@@2@@std@@QAE@XZ 004fb9d0 f i Zenilib:zenilib.obj
 0002:0007aa20       ??1?$pair@V?$_Iterator@$00@?$list@U?$pair@$$CBKVColor@Zeni@@@std@@V?$allocator@U?$pair@$$CBKVColor@Zeni@@@std@@@2@@std@@_N@std@@QAE@XZ 004fba20 f i Zenilib:zenilib.obj
 0002:0007aa70       ??4?$_Iterator@$00@?$list@U?$pair@$$CBKVColor@Zeni@@@std@@V?$allocator@U?$pair@$$CBKVColor@Zeni@@@std@@@2@@std@@QAEAAV012@ABV012@@Z 004fba70 f i Zenilib:zenilib.obj
 0002:0007aad0       ??1?$_Hmap_traits@KVColor@Zeni@@V?$hash_compare@KU?$less@K@std@@@stdext@@V?$allocator@U?$pair@$$CBKVColor@Zeni@@@std@@@std@@$0A@@stdext@@QAE@XZ 004fbad0 f i Zenilib:zenilib.obj
 0002:0007ab30       ??1?$pair@V?$_Iterator@$00@?$list@U?$pair@$$CBKVColor@Zeni@@@std@@V?$allocator@U?$pair@$$CBKVColor@Zeni@@@std@@@2@@std@@V123@@std@@QAE@XZ 004fbb30 f i Zenilib:zenilib.obj
 0002:0007abe0       ??0?$_Iterator@$00@?$list@U?$pair@$$CBKVColor@Zeni@@@std@@V?$allocator@U?$pair@$$CBKVColor@Zeni@@@std@@@2@@std@@QAE@ABV012@@Z 004fbbe0 f i Zenilib:zenilib.obj
 0002:0007ac40       ??0?$_Const_iterator@$00@?$list@U?$pair@$$CBKVColor@Zeni@@@std@@V?$allocator@U?$pair@$$CBKVColor@Zeni@@@std@@@2@@std@@QAE@ABV012@@Z 004fbc40 f i Zenilib:zenilib.obj
 0002:0007acb0       ??1?$pair@V?$_Iterator@$00@?$list@U?$pair@$$CBKPAVFont@Zeni@@@std@@V?$allocator@U?$pair@$$CBKPAVFont@Zeni@@@std@@@2@@std@@_N@std@@QAE@XZ 004fbcb0 f i Zenilib:zenilib.obj
 0002:0007ad00       ??4?$_Iterator@$00@?$list@U?$pair@$$CBKPAVFont@Zeni@@@std@@V?$allocator@U?$pair@$$CBKPAVFont@Zeni@@@std@@@2@@std@@QAEAAV012@ABV012@@Z 004fbd00 f i Zenilib:zenilib.obj
 0002:0007ad60       ??1?$_Hmap_traits@KPAVFont@Zeni@@V?$hash_compare@KU?$less@K@std@@@stdext@@V?$allocator@U?$pair@$$CBKPAVFont@Zeni@@@std@@@std@@$0A@@stdext@@QAE@XZ 004fbd60 f i Zenilib:zenilib.obj
 0002:0007adc0       ??1?$pair@V?$_Iterator@$00@?$list@U?$pair@$$CBKPAVFont@Zeni@@@std@@V?$allocator@U?$pair@$$CBKPAVFont@Zeni@@@std@@@2@@std@@V123@@std@@QAE@XZ 004fbdc0 f i Zenilib:zenilib.obj
 0002:0007ae70       ??0?$_Iterator@$00@?$list@U?$pair@$$CBKPAVFont@Zeni@@@std@@V?$allocator@U?$pair@$$CBKPAVFont@Zeni@@@std@@@2@@std@@QAE@ABV012@@Z 004fbe70 f i Zenilib:zenilib.obj
 0002:0007aed0       ??4iterator@?$_Tree@V?$_Tmap_traits@UZeni_Input_ID@Zeni@@HU?$less@UZeni_Input_ID@Zeni@@@std@@V?$allocator@U?$pair@$$CBUZeni_Input_ID@Zeni@@H@std@@@4@$0A@@std@@@std@@QAEAAV012@ABV012@@Z 004fbed0 f i Zenilib:zenilib.obj
 0002:0007af30       ??1?$_Tree_val@V?$_Tmap_traits@UZeni_Input_ID@Zeni@@HU?$less@UZeni_Input_ID@Zeni@@@std@@V?$allocator@U?$pair@$$CBUZeni_Input_ID@Zeni@@H@std@@@4@$0A@@std@@@std@@QAE@XZ 004fbf30 f i Zenilib:zenilib.obj
 0002:0007af80       ??0iterator@?$_Tree@V?$_Tmap_traits@UZeni_Input_ID@Zeni@@HU?$less@UZeni_Input_ID@Zeni@@@std@@V?$allocator@U?$pair@$$CBUZeni_Input_ID@Zeni@@H@std@@@4@$0A@@std@@@std@@QAE@ABV012@@Z 004fbf80 f i Zenilib:zenilib.obj
 0002:0007afe0       ??4iterator@?$_Tree@V?$_Tmap_traits@HUZeni_Input_ID@Zeni@@U?$less@H@std@@V?$allocator@U?$pair@$$CBHUZeni_Input_ID@Zeni@@@std@@@4@$0A@@std@@@std@@QAEAAV012@ABV012@@Z 004fbfe0 f i Zenilib:zenilib.obj
 0002:0007b040       ??1?$_Tree_val@V?$_Tmap_traits@HUZeni_Input_ID@Zeni@@U?$less@H@std@@V?$allocator@U?$pair@$$CBHUZeni_Input_ID@Zeni@@@std@@@4@$0A@@std@@@std@@QAE@XZ 004fc040 f i Zenilib:zenilib.obj
 0002:0007b090       ??0iterator@?$_Tree@V?$_Tmap_traits@HUZeni_Input_ID@Zeni@@U?$less@H@std@@V?$allocator@U?$pair@$$CBHUZeni_Input_ID@Zeni@@@std@@@4@$0A@@std@@@std@@QAE@ABV012@@Z 004fc090 f i Zenilib:zenilib.obj
 0002:0007b0f0       ??1?$_Deque_val@VGamestate@Zeni@@V?$allocator@VGamestate@Zeni@@@std@@@std@@QAE@XZ 004fc0f0 f i Zenilib:zenilib.obj
 0002:0007b140       ??1?$_Vector_const_iterator@U?$pair@V?$basic_string@DU?$char_traits@D@std@@V?$allocator@D@2@@std@@K@std@@V?$allocator@U?$pair@V?$basic_string@DU?$char_traits@D@std@@V?$allocator@D@2@@std@@K@std@@@2@@std@@QAE@XZ 004fc140 f i Zenilib:zenilib.obj
 0002:0007b190       ??1?$_Vector_iterator@U?$pair@V?$basic_string@DU?$char_traits@D@std@@V?$allocator@D@2@@std@@K@std@@V?$allocator@U?$pair@V?$basic_string@DU?$char_traits@D@std@@V?$allocator@D@2@@std@@K@std@@@2@@std@@QAE@XZ 004fc190 f i Zenilib:zenilib.obj
 0002:0007b1e0       ??0?$_Vector_const_iterator@U?$pair@V?$basic_string@DU?$char_traits@D@std@@V?$allocator@D@2@@std@@K@std@@V?$allocator@U?$pair@V?$basic_string@DU?$char_traits@D@std@@V?$allocator@D@2@@std@@K@std@@@2@@std@@QAE@ABV01@@Z 004fc1e0 f i Zenilib:zenilib.obj
 0002:0007b250       ??1?$pair@V?$_Iterator@$00@?$list@U?$pair@$$CBKPAVTexture@Zeni@@@std@@V?$allocator@U?$pair@$$CBKPAVTexture@Zeni@@@std@@@2@@std@@_N@std@@QAE@XZ 004fc250 f i Zenilib:zenilib.obj
 0002:0007b2a0       ??4?$_Iterator@$00@?$list@U?$pair@$$CBKPAVTexture@Zeni@@@std@@V?$allocator@U?$pair@$$CBKPAVTexture@Zeni@@@std@@@2@@std@@QAEAAV012@ABV012@@Z 004fc2a0 f i Zenilib:zenilib.obj
 0002:0007b300       ??1?$_Hmap_traits@KPAVTexture@Zeni@@V?$hash_compare@KU?$less@K@std@@@stdext@@V?$allocator@U?$pair@$$CBKPAVTexture@Zeni@@@std@@@std@@$0A@@stdext@@QAE@XZ 004fc300 f i Zenilib:zenilib.obj
 0002:0007b360       ??1?$pair@V?$_Iterator@$00@?$list@U?$pair@$$CBKPAVTexture@Zeni@@@std@@V?$allocator@U?$pair@$$CBKPAVTexture@Zeni@@@std@@@2@@std@@V123@@std@@QAE@XZ 004fc360 f i Zenilib:zenilib.obj
 0002:0007b410       ??0?$_Iterator@$00@?$list@U?$pair@$$CBKPAVTexture@Zeni@@@std@@V?$allocator@U?$pair@$$CBKPAVTexture@Zeni@@@std@@@2@@std@@QAE@ABV012@@Z 004fc410 f i Zenilib:zenilib.obj
 0002:0007b470       ??1?$_Vector_val@PAV?$Triangle@VVertex3f_Color@Zeni@@@Zeni@@V?$allocator@PAV?$Triangle@VVertex3f_Color@Zeni@@@Zeni@@@std@@@std@@QAE@XZ 004fc470 f i Zenilib:zenilib.obj
 0002:0007b4c0       ??0?$_Vector_const_iterator@PAV?$Triangle@VVertex3f_Color@Zeni@@@Zeni@@V?$allocator@PAV?$Triangle@VVertex3f_Color@Zeni@@@Zeni@@@std@@@std@@QAE@ABV01@@Z 004fc4c0 f i Zenilib:zenilib.obj
 0002:0007b530       ??1?$_Vector_val@PAV?$Triangle@VVertex3f_Texture@Zeni@@@Zeni@@V?$allocator@PAV?$Triangle@VVertex3f_Texture@Zeni@@@Zeni@@@std@@@std@@QAE@XZ 004fc530 f i Zenilib:zenilib.obj
 0002:0007b580       ??0?$_Vector_const_iterator@PAV?$Triangle@VVertex3f_Texture@Zeni@@@Zeni@@V?$allocator@PAV?$Triangle@VVertex3f_Texture@Zeni@@@Zeni@@@std@@@std@@QAE@ABV01@@Z 004fc580 f i Zenilib:zenilib.obj
 0002:0007b5f0       ??1?$_Vector_val@PAUVertex_Buffer_Range@Vertex_Buffer@Zeni@@V?$allocator@PAUVertex_Buffer_Range@Vertex_Buffer@Zeni@@@std@@@std@@QAE@XZ 004fc5f0 f i Zenilib:zenilib.obj
 0002:0007b640       ??1?$_Tree_val@V?$_Tset_traits@PBVTask@Zeni@@U?$less@PBVTask@Zeni@@@std@@V?$allocator@PBVTask@Zeni@@@4@$0A@@std@@@std@@QAE@XZ 004fc640 f i Zenilib:zenilib.obj
 0002:0007b690       ??1?$_Vector_val@UChunk@Split_UDP_Socket@Zeni@@V?$allocator@UChunk@Split_UDP_Socket@Zeni@@@std@@@std@@QAE@XZ 004fc690 f i Zenilib:zenilib.obj
 0002:0007b6e0       ??1?$_List_val@PAVChunk_Set@Split_UDP_Socket@Zeni@@V?$allocator@PAVChunk_Set@Split_UDP_Socket@Zeni@@@std@@@std@@QAE@XZ 004fc6e0 f i Zenilib:zenilib.obj
 0002:0007b730       ??0?$_Const_iterator@$00@?$list@PAVChunk_Set@Split_UDP_Socket@Zeni@@V?$allocator@PAVChunk_Set@Split_UDP_Socket@Zeni@@@std@@@std@@QAE@ABV012@@Z 004fc730 f i Zenilib:zenilib.obj
 0002:0007b7a0       ??1?$_Iterator@$00@?$list@U?$pair@$$CBKVSound_Buffer@Zeni@@@std@@V?$allocator@U?$pair@$$CBKVSound_Buffer@Zeni@@@std@@@2@@std@@QAE@XZ 004fc7a0 f i Zenilib:zenilib.obj
 0002:0007b7f0       ??1?$pair@$$CBKVSound_Buffer@Zeni@@@std@@QAE@XZ 004fc7f0 f i Zenilib:zenilib.obj
 0002:0007b850       ??1?$pair@V?$_Iterator@$00@?$list@U?$pair@$$CBKVSound_Buffer@Zeni@@@std@@V?$allocator@U?$pair@$$CBKVSound_Buffer@Zeni@@@std@@@2@@std@@_N@std@@QAE@XZ 004fc850 f i Zenilib:zenilib.obj
 0002:0007b8a0       ??4?$_Iterator@$00@?$list@U?$pair@$$CBKVSound_Buffer@Zeni@@@std@@V?$allocator@U?$pair@$$CBKVSound_Buffer@Zeni@@@std@@@2@@std@@QAEAAV012@ABV012@@Z 004fc8a0 f i Zenilib:zenilib.obj
 0002:0007b900       ??1?$_Hmap_traits@KVSound_Buffer@Zeni@@V?$hash_compare@KU?$less@K@std@@@stdext@@V?$allocator@U?$pair@$$CBKVSound_Buffer@Zeni@@@std@@@std@@$0A@@stdext@@QAE@XZ 004fc900 f i Zenilib:zenilib.obj
 0002:0007b960       ??1?$pair@V?$_Iterator@$00@?$list@U?$pair@$$CBKVSound_Buffer@Zeni@@@std@@V?$allocator@U?$pair@$$CBKVSound_Buffer@Zeni@@@std@@@2@@std@@V123@@std@@QAE@XZ 004fc960 f i Zenilib:zenilib.obj
 0002:0007ba10       ??0?$_Iterator@$00@?$list@U?$pair@$$CBKVSound_Buffer@Zeni@@@std@@V?$allocator@U?$pair@$$CBKVSound_Buffer@Zeni@@@std@@@2@@std@@QAE@ABV012@@Z 004fca10 f i Zenilib:zenilib.obj
 0002:0007ba70       ??0?$_Const_iterator@$00@?$list@U?$pair@$$CBKVSound_Buffer@Zeni@@@std@@V?$allocator@U?$pair@$$CBKVSound_Buffer@Zeni@@@std@@@2@@std@@QAE@ABV012@@Z 004fca70 f i Zenilib:zenilib.obj
 0002:0007bae0       ??1?$_Vector_iterator@HV?$allocator@H@std@@@std@@QAE@XZ 004fcae0 f i Zenilib:zenilib.obj
 0002:0007bb30       ??0?$_Vector_const_iterator@HV?$allocator@H@std@@@std@@QAE@ABV01@@Z 004fcb30 f i Zenilib:zenilib.obj
 0002:0007bba0       ??1?$_Vector_const_iterator@HV?$allocator@H@std@@@std@@QAE@XZ 004fcba0 f i Zenilib:zenilib.obj
 0002:0007bbf0       ??0?$reverse_iterator@V?$_Vector_iterator@ULine@Text_Box@Zeni@@V?$allocator@ULine@Text_Box@Zeni@@@std@@@std@@@std@@QAE@ABV01@@Z 004fcbf0 f i Zenilib:zenilib.obj
 0002:0007bc50       ??0?$_Vector_const_iterator@ULine@Text_Box@Zeni@@V?$allocator@ULine@Text_Box@Zeni@@@std@@@std@@QAE@ABV01@@Z 004fcc50 f i Zenilib:zenilib.obj
 0002:0007bcc0       ??1?$_Vector_val@DV?$allocator@D@std@@@std@@QAE@XZ 004fccc0 f i Zenilib:zenilib.obj
 0002:0007bd10       ??1?$_List_val@UWord@Text_Box@Zeni@@V?$allocator@UWord@Text_Box@Zeni@@@std@@@std@@QAE@XZ 004fcd10 f i Zenilib:zenilib.obj
 0002:0007bd60       ??0?$_Const_iterator@$00@?$list@UWord@Text_Box@Zeni@@V?$allocator@UWord@Text_Box@Zeni@@@std@@@std@@QAE@ABV012@@Z 004fcd60 f i Zenilib:zenilib.obj
 0002:0007bdd0       ??0?$_Vector_iterator@ULine@Text_Box@Zeni@@V?$allocator@ULine@Text_Box@Zeni@@@std@@@std@@QAE@ABV01@@Z 004fcdd0 f i Zenilib:zenilib.obj
 0002:0007be30       ??0?$_Ranit@PAU_SDL_Joystick@@HPBQAU1@ABQAU1@@std@@QAE@ABU01@@Z 004fce30 f i Zenilib:zenilib.obj
 0002:0007be90       ??1?$_Ranit@PAU_SDL_Joystick@@HPBQAU1@ABQAU1@@std@@QAE@XZ 004fce90 f i Zenilib:zenilib.obj
 0002:0007bee0       ??4?$_Const_iterator@$00@?$list@U?$pair@$$CBV?$basic_string@DU?$char_traits@D@std@@V?$allocator@D@2@@std@@K@std@@V?$allocator@U?$pair@$$CBV?$basic_string@DU?$char_traits@D@std@@V?$allocator@D@2@@std@@K@std@@@2@@std@@QAEAAV012@ABV012@@Z 004fcee0 f i Zenilib:zenilib.obj
 0002:0007bf50       ??4?$_Const_iterator@$00@?$list@U?$pair@$$CBKVColor@Zeni@@@std@@V?$allocator@U?$pair@$$CBKVColor@Zeni@@@std@@@2@@std@@QAEAAV012@ABV012@@Z 004fcf50 f i Zenilib:zenilib.obj
 0002:0007bfc0       ??0?$_Bidit@U?$pair@$$CBKVColor@Zeni@@@std@@HPBU12@ABU12@@std@@QAE@ABU01@@Z 004fcfc0 f i Zenilib:zenilib.obj
 0002:0007c020       ??4?$_Const_iterator@$00@?$list@U?$pair@$$CBKPAVFont@Zeni@@@std@@V?$allocator@U?$pair@$$CBKPAVFont@Zeni@@@std@@@2@@std@@QAEAAV012@ABV012@@Z 004fd020 f i Zenilib:zenilib.obj
 0002:0007c090       ??4const_iterator@?$_Tree@V?$_Tmap_traits@UZeni_Input_ID@Zeni@@HU?$less@UZeni_Input_ID@Zeni@@@std@@V?$allocator@U?$pair@$$CBUZeni_Input_ID@Zeni@@H@std@@@4@$0A@@std@@@std@@QAEAAV012@ABV012@@Z 004fd090 f i Zenilib:zenilib.obj
 0002:0007c100       ??1?$_Tree_ptr@V?$_Tmap_traits@UZeni_Input_ID@Zeni@@HU?$less@UZeni_Input_ID@Zeni@@@std@@V?$allocator@U?$pair@$$CBUZeni_Input_ID@Zeni@@H@std@@@4@$0A@@std@@@std@@QAE@XZ 004fd100 f i Zenilib:zenilib.obj
 0002:0007c150       ??4const_iterator@?$_Tree@V?$_Tmap_traits@HUZeni_Input_ID@Zeni@@U?$less@H@std@@V?$allocator@U?$pair@$$CBHUZeni_Input_ID@Zeni@@@std@@@4@$0A@@std@@@std@@QAEAAV012@ABV012@@Z 004fd150 f i Zenilib:zenilib.obj
 0002:0007c1c0       ??1?$_Tree_ptr@V?$_Tmap_traits@HUZeni_Input_ID@Zeni@@U?$less@H@std@@V?$allocator@U?$pair@$$CBHUZeni_Input_ID@Zeni@@@std@@@4@$0A@@std@@@std@@QAE@XZ 004fd1c0 f i Zenilib:zenilib.obj
 0002:0007c210       ??1?$_Deque_map@VGamestate@Zeni@@V?$allocator@VGamestate@Zeni@@@std@@@std@@QAE@XZ 004fd210 f i Zenilib:zenilib.obj
 0002:0007c260       ??1?$_Ranit@U?$pair@V?$basic_string@DU?$char_traits@D@std@@V?$allocator@D@2@@std@@K@std@@HPBU12@ABU12@@std@@QAE@XZ 004fd260 f i Zenilib:zenilib.obj
 0002:0007c2b0       ??0?$_Ranit@U?$pair@V?$basic_string@DU?$char_traits@D@std@@V?$allocator@D@2@@std@@K@std@@HPBU12@ABU12@@std@@QAE@ABU01@@Z 004fd2b0 f i Zenilib:zenilib.obj
 0002:0007c310       ??4?$_Const_iterator@$00@?$list@U?$pair@$$CBKPAVTexture@Zeni@@@std@@V?$allocator@U?$pair@$$CBKPAVTexture@Zeni@@@std@@@2@@std@@QAEAAV012@ABV012@@Z 004fd310 f i Zenilib:zenilib.obj
 0002:0007c380       ??0?$_Ranit@PAV?$Triangle@VVertex3f_Color@Zeni@@@Zeni@@HPBQAV12@ABQAV12@@std@@QAE@ABU01@@Z 004fd380 f i Zenilib:zenilib.obj
 0002:0007c3e0       ??0?$_Ranit@PAV?$Triangle@VVertex3f_Texture@Zeni@@@Zeni@@HPBQAV12@ABQAV12@@std@@QAE@ABU01@@Z 004fd3e0 f i Zenilib:zenilib.obj
 0002:0007c440       ??1?$_Tree_ptr@V?$_Tset_traits@PBVTask@Zeni@@U?$less@PBVTask@Zeni@@@std@@V?$allocator@PBVTask@Zeni@@@4@$0A@@std@@@std@@QAE@XZ 004fd440 f i Zenilib:zenilib.obj
 0002:0007c490       ??1?$_List_ptr@PAVChunk_Set@Split_UDP_Socket@Zeni@@V?$allocator@PAVChunk_Set@Split_UDP_Socket@Zeni@@@std@@@std@@QAE@XZ 004fd490 f i Zenilib:zenilib.obj
 0002:0007c4e0       ??0?$_Bidit@PAVChunk_Set@Split_UDP_Socket@Zeni@@HPBQAV123@ABQAV123@@std@@QAE@ABU01@@Z 004fd4e0 f i Zenilib:zenilib.obj
 0002:0007c540       ??4?$_Const_iterator@$00@?$list@U?$pair@$$CBKVSound_Buffer@Zeni@@@std@@V?$allocator@U?$pair@$$CBKVSound_Buffer@Zeni@@@std@@@2@@std@@QAEAAV012@ABV012@@Z 004fd540 f i Zenilib:zenilib.obj
 0002:0007c5b0       ??0?$_Bidit@U?$pair@$$CBKVSound_Buffer@Zeni@@@std@@HPBU12@ABU12@@std@@QAE@ABU01@@Z 004fd5b0 f i Zenilib:zenilib.obj
 0002:0007c610       ??0?$_Ranit@HHPBHABH@std@@QAE@ABU01@@Z 004fd610 f i Zenilib:zenilib.obj
 0002:0007c670       ??1?$_Ranit@HHPBHABH@std@@QAE@XZ 004fd670 f i Zenilib:zenilib.obj
 0002:0007c6c0       ??0?$_Revranit@V?$_Vector_iterator@ULine@Text_Box@Zeni@@V?$allocator@ULine@Text_Box@Zeni@@@std@@@std@@U?$iterator@Urandom_access_iterator_tag@std@@ULine@Text_Box@Zeni@@HPAU345@AAU345@@2@@std@@QAE@ABV01@@Z 004fd6c0 f i Zenilib:zenilib.obj
 0002:0007c720       ??0?$_Ranit@ULine@Text_Box@Zeni@@HPBU123@ABU123@@std@@QAE@ABU01@@Z 004fd720 f i Zenilib:zenilib.obj
 0002:0007c780       ??1?$_List_ptr@UWord@Text_Box@Zeni@@V?$allocator@UWord@Text_Box@Zeni@@@std@@@std@@QAE@XZ 004fd780 f i Zenilib:zenilib.obj
 0002:0007c7d0       ??0?$_Bidit@UWord@Text_Box@Zeni@@HPBU123@ABU123@@std@@QAE@ABU01@@Z 004fd7d0 f i Zenilib:zenilib.obj
 0002:0007c830       ??0?$_Iterator_with_base@Urandom_access_iterator_tag@std@@PAU_SDL_Joystick@@HPBQAU3@ABQAU3@V_Iterator_base@2@@std@@QAE@ABU01@@Z 004fd830 f i Zenilib:zenilib.obj
 0002:0007c890       ??1?$_Iterator_with_base@Urandom_access_iterator_tag@std@@PAU_SDL_Joystick@@HPBQAU3@ABQAU3@V_Iterator_base@2@@std@@QAE@XZ 004fd890 f i Zenilib:zenilib.obj
 0002:0007c8e0       ??4?$_Bidit@U?$pair@$$CBV?$basic_string@DU?$char_traits@D@std@@V?$allocator@D@2@@std@@K@std@@HPBU12@ABU12@@std@@QAEAAU01@ABU01@@Z 004fd8e0 f i Zenilib:zenilib.obj
 0002:0007c940       ??4?$_Bidit@U?$pair@$$CBKVColor@Zeni@@@std@@HPBU12@ABU12@@std@@QAEAAU01@ABU01@@Z 004fd940 f i Zenilib:zenilib.obj
 0002:0007c9a0       ??0?$_Iterator_with_base@Ubidirectional_iterator_tag@std@@U?$pair@$$CBKVColor@Zeni@@@2@HPBU32@ABU32@V_Iterator_base@2@@std@@QAE@ABU01@@Z 004fd9a0 f i Zenilib:zenilib.obj
 0002:0007ca00       ??4?$_Bidit@U?$pair@$$CBKPAVFont@Zeni@@@std@@HPBU12@ABU12@@std@@QAEAAU01@ABU01@@Z 004fda00 f i Zenilib:zenilib.obj
 0002:0007ca60       ??4?$_Bidit@U?$pair@$$CBUZeni_Input_ID@Zeni@@H@std@@HPBU12@ABU12@@std@@QAEAAU01@ABU01@@Z 004fda60 f i Zenilib:zenilib.obj
 0002:0007cac0       ??1?$_Tree_nod@V?$_Tmap_traits@UZeni_Input_ID@Zeni@@HU?$less@UZeni_Input_ID@Zeni@@@std@@V?$allocator@U?$pair@$$CBUZeni_Input_ID@Zeni@@H@std@@@4@$0A@@std@@@std@@QAE@XZ 004fdac0 f i Zenilib:zenilib.obj
 0002:0007cb10       ??4?$_Bidit@U?$pair@$$CBHUZeni_Input_ID@Zeni@@@std@@HPBU12@ABU12@@std@@QAEAAU01@ABU01@@Z 004fdb10 f i Zenilib:zenilib.obj
 0002:0007cb70       ??1?$_Tree_nod@V?$_Tmap_traits@HUZeni_Input_ID@Zeni@@U?$less@H@std@@V?$allocator@U?$pair@$$CBHUZeni_Input_ID@Zeni@@@std@@@4@$0A@@std@@@std@@QAE@XZ 004fdb70 f i Zenilib:zenilib.obj
 0002:0007cbc0       ??1?$_Iterator_with_base@Urandom_access_iterator_tag@std@@U?$pair@V?$basic_string@DU?$char_traits@D@std@@V?$allocator@D@2@@std@@K@2@HPBU32@ABU32@V_Iterator_base@2@@std@@QAE@XZ 004fdbc0 f i Zenilib:zenilib.obj
 0002:0007cc10       ??0?$_Iterator_with_base@Urandom_access_iterator_tag@std@@U?$pair@V?$basic_string@DU?$char_traits@D@std@@V?$allocator@D@2@@std@@K@2@HPBU32@ABU32@V_Iterator_base@2@@std@@QAE@ABU01@@Z 004fdc10 f i Zenilib:zenilib.obj
 0002:0007cc70       ??4?$_Bidit@U?$pair@$$CBKPAVTexture@Zeni@@@std@@HPBU12@ABU12@@std@@QAEAAU01@ABU01@@Z 004fdc70 f i Zenilib:zenilib.obj
 0002:0007ccd0       ??0?$_Iterator_with_base@Urandom_access_iterator_tag@std@@PAV?$Triangle@VVertex3f_Color@Zeni@@@Zeni@@HPBQAV34@ABQAV34@V_Iterator_base@2@@std@@QAE@ABU01@@Z 004fdcd0 f i Zenilib:zenilib.obj
 0002:0007cd30       ??0?$_Iterator_with_base@Urandom_access_iterator_tag@std@@PAV?$Triangle@VVertex3f_Texture@Zeni@@@Zeni@@HPBQAV34@ABQAV34@V_Iterator_base@2@@std@@QAE@ABU01@@Z 004fdd30 f i Zenilib:zenilib.obj
 0002:0007cd90       ??1?$_Tree_nod@V?$_Tset_traits@PBVTask@Zeni@@U?$less@PBVTask@Zeni@@@std@@V?$allocator@PBVTask@Zeni@@@4@$0A@@std@@@std@@QAE@XZ 004fdd90 f i Zenilib:zenilib.obj
 0002:0007cde0       ??1?$_List_nod@PAVChunk_Set@Split_UDP_Socket@Zeni@@V?$allocator@PAVChunk_Set@Split_UDP_Socket@Zeni@@@std@@@std@@QAE@XZ 004fdde0 f i Zenilib:zenilib.obj
 0002:0007ce30       ??0?$_Iterator_with_base@Ubidirectional_iterator_tag@std@@PAVChunk_Set@Split_UDP_Socket@Zeni@@HPBQAV345@ABQAV345@V_Iterator_base@2@@std@@QAE@ABU01@@Z 004fde30 f i Zenilib:zenilib.obj
 0002:0007ce90       ??4?$_Bidit@U?$pair@$$CBKVSound_Buffer@Zeni@@@std@@HPBU12@ABU12@@std@@QAEAAU01@ABU01@@Z 004fde90 f i Zenilib:zenilib.obj
 0002:0007cef0       ??0?$_Iterator_with_base@Ubidirectional_iterator_tag@std@@U?$pair@$$CBKVSound_Buffer@Zeni@@@2@HPBU32@ABU32@V_Iterator_base@2@@std@@QAE@ABU01@@Z 004fdef0 f i Zenilib:zenilib.obj
 0002:0007cf50       ??0?$_Iterator_with_base@Urandom_access_iterator_tag@std@@HHPBHABHV_Iterator_base@2@@std@@QAE@ABU01@@Z 004fdf50 f i Zenilib:zenilib.obj
 0002:0007cfb0       ??1?$_Iterator_with_base@Urandom_access_iterator_tag@std@@HHPBHABHV_Iterator_base@2@@std@@QAE@XZ 004fdfb0 f i Zenilib:zenilib.obj
 0002:0007d000       ??0?$_Iterator_with_base@Urandom_access_iterator_tag@std@@ULine@Text_Box@Zeni@@HPBU345@ABU345@V_Iterator_base@2@@std@@QAE@ABU01@@Z 004fe000 f i Zenilib:zenilib.obj
 0002:0007d060       ??1?$_List_nod@UWord@Text_Box@Zeni@@V?$allocator@UWord@Text_Box@Zeni@@@std@@@std@@QAE@XZ 004fe060 f i Zenilib:zenilib.obj
 0002:0007d0b0       ??0?$_Iterator_with_base@Ubidirectional_iterator_tag@std@@UWord@Text_Box@Zeni@@HPBU345@ABU345@V_Iterator_base@2@@std@@QAE@ABU01@@Z 004fe0b0 f i Zenilib:zenilib.obj
 0002:0007d110       ??4?$_Iterator_with_base@Ubidirectional_iterator_tag@std@@U?$pair@$$CBV?$basic_string@DU?$char_traits@D@std@@V?$allocator@D@2@@std@@K@2@HPBU32@ABU32@V_Iterator_base@2@@std@@QAEAAU01@ABU01@@Z 004fe110 f i Zenilib:zenilib.obj
 0002:0007d170       ??4?$_Iterator_with_base@Ubidirectional_iterator_tag@std@@U?$pair@$$CBKVColor@Zeni@@@2@HPBU32@ABU32@V_Iterator_base@2@@std@@QAEAAU01@ABU01@@Z 004fe170 f i Zenilib:zenilib.obj
 0002:0007d1d0       ??4?$_Iterator_with_base@Ubidirectional_iterator_tag@std@@U?$pair@$$CBKPAVFont@Zeni@@@2@HPBU32@ABU32@V_Iterator_base@2@@std@@QAEAAU01@ABU01@@Z 004fe1d0 f i Zenilib:zenilib.obj
 0002:0007d230       ??4?$_Iterator_with_base@Ubidirectional_iterator_tag@std@@U?$pair@$$CBUZeni_Input_ID@Zeni@@H@2@HPBU32@ABU32@V_Iterator_base@2@@std@@QAEAAU01@ABU01@@Z 004fe230 f i Zenilib:zenilib.obj
 0002:0007d290       ??1?$_Tmap_traits@UZeni_Input_ID@Zeni@@HU?$less@UZeni_Input_ID@Zeni@@@std@@V?$allocator@U?$pair@$$CBUZeni_Input_ID@Zeni@@H@std@@@4@$0A@@std@@QAE@XZ 004fe290 f i Zenilib:zenilib.obj
 0002:0007d2e0       ??4?$_Iterator_with_base@Ubidirectional_iterator_tag@std@@U?$pair@$$CBHUZeni_Input_ID@Zeni@@@2@HPBU32@ABU32@V_Iterator_base@2@@std@@QAEAAU01@ABU01@@Z 004fe2e0 f i Zenilib:zenilib.obj
 0002:0007d340       ??1?$_Tmap_traits@HUZeni_Input_ID@Zeni@@U?$less@H@std@@V?$allocator@U?$pair@$$CBHUZeni_Input_ID@Zeni@@@std@@@4@$0A@@std@@QAE@XZ 004fe340 f i Zenilib:zenilib.obj
 0002:0007d390       ??4?$_Iterator_with_base@Ubidirectional_iterator_tag@std@@U?$pair@$$CBKPAVTexture@Zeni@@@2@HPBU32@ABU32@V_Iterator_base@2@@std@@QAEAAU01@ABU01@@Z 004fe390 f i Zenilib:zenilib.obj
 0002:0007d3f0       ??1?$_Tset_traits@PBVTask@Zeni@@U?$less@PBVTask@Zeni@@@std@@V?$allocator@PBVTask@Zeni@@@4@$0A@@std@@QAE@XZ 004fe3f0 f i Zenilib:zenilib.obj
 0002:0007d440       ??4?$_Iterator_with_base@Ubidirectional_iterator_tag@std@@U?$pair@$$CBKVSound_Buffer@Zeni@@@2@HPBU32@ABU32@V_Iterator_base@2@@std@@QAEAAU01@ABU01@@Z 004fe440 f i Zenilib:zenilib.obj
 0002:0007d4a0       ?_Construct_n@?$vector@PAU_SDL_Joystick@@V?$allocator@PAU_SDL_Joystick@@@std@@@std@@QAEXIABQAU_SDL_Joystick@@@Z 004fe4a0 f i Zenilib:zenilib.obj
 0002:0007d5b0       ?capacity@?$vector@PAU_SDL_Joystick@@V?$allocator@PAU_SDL_Joystick@@@std@@@std@@QBEIXZ 004fe5b0 f i Zenilib:zenilib.obj
 0002:0007d620       ?begin@?$vector@PAU_SDL_Joystick@@V?$allocator@PAU_SDL_Joystick@@@std@@@std@@QAE?AV?$_Vector_iterator@PAU_SDL_Joystick@@V?$allocator@PAU_SDL_Joystick@@@std@@@2@XZ 004fe620 f i Zenilib:zenilib.obj
 0002:0007d6b0       ?end@?$vector@PAU_SDL_Joystick@@V?$allocator@PAU_SDL_Joystick@@@std@@@std@@QAE?AV?$_Vector_iterator@PAU_SDL_Joystick@@V?$allocator@PAU_SDL_Joystick@@@std@@@2@XZ 004fe6b0 f i Zenilib:zenilib.obj
 0002:0007d740       ?size@?$vector@PAU_SDL_Joystick@@V?$allocator@PAU_SDL_Joystick@@@std@@@std@@QBEIXZ 004fe740 f i Zenilib:zenilib.obj
 0002:0007d790       ?insert@?$vector@PAU_SDL_Joystick@@V?$allocator@PAU_SDL_Joystick@@@std@@@std@@QAE?AV?$_Vector_iterator@PAU_SDL_Joystick@@V?$allocator@PAU_SDL_Joystick@@@std@@@2@V?$_Vector_const_iterator@PAU_SDL_Joystick@@V?$allocator@PAU_SDL_Joystick@@@std@@@2@ABQAU_SDL_Joystick@@@Z 004fe790 f i Zenilib:zenilib.obj
 0002:0007d990       ?erase@?$vector@PAU_SDL_Joystick@@V?$allocator@PAU_SDL_Joystick@@@std@@@std@@QAE?AV?$_Vector_iterator@PAU_SDL_Joystick@@V?$allocator@PAU_SDL_Joystick@@@std@@@2@V?$_Vector_const_iterator@PAU_SDL_Joystick@@V?$allocator@PAU_SDL_Joystick@@@std@@@2@0@Z 004fe990 f i Zenilib:zenilib.obj
 0002:0007dc30       ?_Tidy@?$vector@PAU_SDL_Joystick@@V?$allocator@PAU_SDL_Joystick@@@std@@@std@@IAEXXZ 004fec30 f i Zenilib:zenilib.obj
 0002:0007dd10       ?_Ufill@?$vector@PAU_SDL_Joystick@@V?$allocator@PAU_SDL_Joystick@@@std@@@std@@IAEPAPAU_SDL_Joystick@@PAPAU3@IABQAU3@@Z 004fed10 f i Zenilib:zenilib.obj
 0002:0007dd90       ?_Orphan_range@?$vector@PAU_SDL_Joystick@@V?$allocator@PAU_SDL_Joystick@@@std@@@std@@IBEXPAPAU_SDL_Joystick@@0@Z 004fed90 f i Zenilib:zenilib.obj
 0002:0007dea0       ??0?$_Vector_val@PAU_SDL_Joystick@@V?$allocator@PAU_SDL_Joystick@@@std@@@std@@IAE@V?$allocator@PAU_SDL_Joystick@@@1@@Z 004feea0 f i Zenilib:zenilib.obj
 0002:0007df20       ??1?$_Container_base_aux_alloc_empty@V?$allocator@PAU_SDL_Joystick@@@std@@@std@@IAE@XZ 004fef20 f i Zenilib:zenilib.obj
 0002:0007df80       ??0?$allocator@PAU_SDL_Joystick@@@std@@QAE@XZ 004fef80 f i Zenilib:zenilib.obj
 0002:0007dfc0       ??0?$_Hash@V?$_Hmap_traits@V?$basic_string@DU?$char_traits@D@std@@V?$allocator@D@2@@std@@KV?$hash_compare@V?$basic_string@DU?$char_traits@D@std@@V?$allocator@D@2@@std@@U?$less@V?$basic_string@DU?$char_traits@D@std@@V?$allocator@D@2@@std@@@2@@stdext@@V?$allocator@U?$pair@$$CBV?$basic_string@DU?$char_traits@D@std@@V?$allocator@D@2@@std@@K@std@@@2@$0A@@stdext@@@stdext@@QAE@ABV?$hash_compare@V?$basic_string@DU?$char_traits@D@std@@V?$allocator@D@2@@std@@U?$less@V?$basic_string@DU?$char_traits@D@std@@V?$allocator@D@2@@std@@@2@@1@ABV?$allocator@U?$pair@$$CBV?$basic_string@DU?$char_traits@D@std@@V?$allocator@D@2@@std@@K@std@@@std@@@Z 004fefc0 f i Zenilib:zenilib.obj
 0002:0007e0d0       ??0?$_Hash@V?$_Hmap_traits@V?$basic_string@DU?$char_traits@D@std@@V?$allocator@D@2@@std@@KV?$hash_compare@V?$basic_string@DU?$char_traits@D@std@@V?$allocator@D@2@@std@@U?$less@V?$basic_string@DU?$char_traits@D@std@@V?$allocator@D@2@@std@@@2@@stdext@@V?$allocator@U?$pair@$$CBV?$basic_string@DU?$char_traits@D@std@@V?$allocator@D@2@@std@@K@std@@@2@$0A@@stdext@@@stdext@@QAE@ABV01@@Z 004ff0d0 f i Zenilib:zenilib.obj
 0002:0007e1f0       ??4?$_Hash@V?$_Hmap_traits@V?$basic_string@DU?$char_traits@D@std@@V?$allocator@D@2@@std@@KV?$hash_compare@V?$basic_string@DU?$char_traits@D@std@@V?$allocator@D@2@@std@@U?$less@V?$basic_string@DU?$char_traits@D@std@@V?$allocator@D@2@@std@@@2@@stdext@@V?$allocator@U?$pair@$$CBV?$basic_string@DU?$char_traits@D@std@@V?$allocator@D@2@@std@@K@std@@@2@$0A@@stdext@@@stdext@@QAEAAV01@ABV01@@Z 004ff1f0 f i Zenilib:zenilib.obj
 0002:0007e260       ?insert@?$_Hash@V?$_Hmap_traits@V?$basic_string@DU?$char_traits@D@std@@V?$allocator@D@2@@std@@KV?$hash_compare@V?$basic_string@DU?$char_traits@D@std@@V?$allocator@D@2@@std@@U?$less@V?$basic_string@DU?$char_traits@D@std@@V?$allocator@D@2@@std@@@2@@stdext@@V?$allocator@U?$pair@$$CBV?$basic_string@DU?$char_traits@D@std@@V?$allocator@D@2@@std@@K@std@@@2@$0A@@stdext@@@stdext@@QAE?AU?$pair@V?$_Iterator@$00@?$list@U?$pair@$$CBV?$basic_string@DU?$char_traits@D@std@@V?$allocator@D@2@@std@@K@std@@V?$allocator@U?$pair@$$CBV?$basic_string@DU?$char_traits@D@std@@V?$allocator@D@2@@std@@K@std@@@2@@std@@_N@std@@ABU?$pair@$$CBV?$basic_string@DU?$char_traits@D@std@@V?$allocator@D@2@@std@@K@4@@Z 004ff260 f i Zenilib:zenilib.obj
 0002:0007e310       ?lower_bound@?$_Hash@V?$_Hmap_traits@V?$basic_string@DU?$char_traits@D@std@@V?$allocator@D@2@@std@@KV?$hash_compare@V?$basic_string@DU?$char_traits@D@std@@V?$allocator@D@2@@std@@U?$less@V?$basic_string@DU?$char_traits@D@std@@V?$allocator@D@2@@std@@@2@@stdext@@V?$allocator@U?$pair@$$CBV?$basic_string@DU?$char_traits@D@std@@V?$allocator@D@2@@std@@K@std@@@2@$0A@@stdext@@@stdext@@QAE?AV?$_Iterator@$00@?$list@U?$pair@$$CBV?$basic_string@DU?$char_traits@D@std@@V?$allocator@D@2@@std@@K@std@@V?$allocator@U?$pair@$$CBV?$basic_string@DU?$char_traits@D@std@@V?$allocator@D@2@@std@@K@std@@@2@@std@@ABV?$basic_string@DU?$char_traits@D@std@@V?$allocator@D@2@@5@@Z 004ff310 f i Zenilib:zenilib.obj
 0002:0007e620       ?lower_bound@?$_Hash@V?$_Hmap_traits@V?$basic_string@DU?$char_traits@D@std@@V?$allocator@D@2@@std@@KV?$hash_compare@V?$basic_string@DU?$char_traits@D@std@@V?$allocator@D@2@@std@@U?$less@V?$basic_string@DU?$char_traits@D@std@@V?$allocator@D@2@@std@@@2@@stdext@@V?$allocator@U?$pair@$$CBV?$basic_string@DU?$char_traits@D@std@@V?$allocator@D@2@@std@@K@std@@@2@$0A@@stdext@@@stdext@@QBE?AV?$_Const_iterator@$00@?$list@U?$pair@$$CBV?$basic_string@DU?$char_traits@D@std@@V?$allocator@D@2@@std@@K@std@@V?$allocator@U?$pair@$$CBV?$basic_string@DU?$char_traits@D@std@@V?$allocator@D@2@@std@@K@std@@@2@@std@@ABV?$basic_string@DU?$char_traits@D@std@@V?$allocator@D@2@@5@@Z 004ff620 f i Zenilib:zenilib.obj
 0002:0007e930       ?_Hashval@?$_Hash@V?$_Hmap_traits@V?$basic_string@DU?$char_traits@D@std@@V?$allocator@D@2@@std@@KV?$hash_compare@V?$basic_string@DU?$char_traits@D@std@@V?$allocator@D@2@@std@@U?$less@V?$basic_string@DU?$char_traits@D@std@@V?$allocator@D@2@@std@@@2@@stdext@@V?$allocator@U?$pair@$$CBV?$basic_string@DU?$char_traits@D@std@@V?$allocator@D@2@@std@@K@std@@@2@$0A@@stdext@@@stdext@@IBEIABV?$basic_string@DU?$char_traits@D@std@@V?$allocator@D@2@@std@@@Z 004ff930 f i Zenilib:zenilib.obj
 0002:0007e9c0       ?_Init@?$_Hash@V?$_Hmap_traits@V?$basic_string@DU?$char_traits@D@std@@V?$allocator@D@2@@std@@KV?$hash_compare@V?$basic_string@DU?$char_traits@D@std@@V?$allocator@D@2@@std@@U?$less@V?$basic_string@DU?$char_traits@D@std@@V?$allocator@D@2@@std@@@2@@stdext@@V?$allocator@U?$pair@$$CBV?$basic_string@DU?$char_traits@D@std@@V?$allocator@D@2@@std@@K@std@@@2@$0A@@stdext@@@stdext@@IAEXI@Z 004ff9c0 f i Zenilib:zenilib.obj
 0002:0007eac0       ?_Kfn@?$_Hmap_traits@V?$basic_string@DU?$char_traits@D@std@@V?$allocator@D@2@@std@@KV?$hash_compare@V?$basic_string@DU?$char_traits@D@std@@V?$allocator@D@2@@std@@U?$less@V?$basic_string@DU?$char_traits@D@std@@V?$allocator@D@2@@std@@@2@@stdext@@V?$allocator@U?$pair@$$CBV?$basic_string@DU?$char_traits@D@std@@V?$allocator@D@2@@std@@K@std@@@2@$0A@@stdext@@SAABV?$basic_string@DU?$char_traits@D@std@@V?$allocator@D@2@@std@@ABU?$pair@$$CBV?$basic_string@DU?$char_traits@D@std@@V?$allocator@D@2@@std@@K@4@@Z 004ffac0 f i Zenilib:zenilib.obj
 0002:0007eb00       ??0?$allocator@U?$pair@$$CBV?$basic_string@DU?$char_traits@D@std@@V?$allocator@D@2@@std@@K@std@@@std@@QAE@XZ 004ffb00 f i Zenilib:zenilib.obj
 0002:0007eb40       ??0?$hash_compare@V?$basic_string@DU?$char_traits@D@std@@V?$allocator@D@2@@std@@U?$less@V?$basic_string@DU?$char_traits@D@std@@V?$allocator@D@2@@std@@@2@@stdext@@QAE@XZ 004ffb40 f i Zenilib:zenilib.obj
 0002:0007eb80       ??1?$list@U?$pair@$$CBV?$basic_string@DU?$char_traits@D@std@@V?$allocator@D@2@@std@@K@std@@V?$allocator@U?$pair@$$CBV?$basic_string@DU?$char_traits@D@std@@V?$allocator@D@2@@std@@K@std@@@2@@std@@QAE@XZ 004ffb80 f i Zenilib:zenilib.obj
 0002:0007ec20       ?begin@?$list@U?$pair@$$CBV?$basic_string@DU?$char_traits@D@std@@V?$allocator@D@2@@std@@K@std@@V?$allocator@U?$pair@$$CBV?$basic_string@DU?$char_traits@D@std@@V?$allocator@D@2@@std@@K@std@@@2@@std@@QAE?AV?$_Iterator@$00@12@XZ 004ffc20 f i Zenilib:zenilib.obj
 0002:0007ecb0       ?end@?$list@U?$pair@$$CBV?$basic_string@DU?$char_traits@D@std@@V?$allocator@D@2@@std@@K@std@@V?$allocator@U?$pair@$$CBV?$basic_string@DU?$char_traits@D@std@@V?$allocator@D@2@@std@@K@std@@@2@@std@@QAE?AV?$_Iterator@$00@12@XZ 004ffcb0 f i Zenilib:zenilib.obj
 0002:0007ed40       ?end@?$list@U?$pair@$$CBV?$basic_string@DU?$char_traits@D@std@@V?$allocator@D@2@@std@@K@std@@V?$allocator@U?$pair@$$CBV?$basic_string@DU?$char_traits@D@std@@V?$allocator@D@2@@std@@K@std@@@2@@std@@QBE?AV?$_Const_iterator@$00@12@XZ 004ffd40 f i Zenilib:zenilib.obj
 0002:0007edd0       ?erase@?$list@U?$pair@$$CBV?$basic_string@DU?$char_traits@D@std@@V?$allocator@D@2@@std@@K@std@@V?$allocator@U?$pair@$$CBV?$basic_string@DU?$char_traits@D@std@@V?$allocator@D@2@@std@@K@std@@@2@@std@@QAE?AV?$_Iterator@$00@12@V?$_Const_iterator@$00@12@@Z 004ffdd0 f i Zenilib:zenilib.obj
 0002:0007f020       ?clear@?$list@U?$pair@$$CBV?$basic_string@DU?$char_traits@D@std@@V?$allocator@D@2@@std@@K@std@@V?$allocator@U?$pair@$$CBV?$basic_string@DU?$char_traits@D@std@@V?$allocator@D@2@@std@@K@std@@@2@@std@@QAEXXZ 00500020 f i Zenilib:zenilib.obj
 0002:0007f130       ??1?$vector@V?$_Iterator@$00@?$list@U?$pair@$$CBV?$basic_string@DU?$char_traits@D@std@@V?$allocator@D@2@@std@@K@std@@V?$allocator@U?$pair@$$CBV?$basic_string@DU?$char_traits@D@std@@V?$allocator@D@2@@std@@K@std@@@2@@std@@V?$allocator@V?$_Iterator@$00@?$list@U?$pair@$$CBV?$basic_string@DU?$char_traits@D@std@@V?$allocator@D@2@@std@@K@std@@V?$allocator@U?$pair@$$CBV?$basic_string@DU?$char_traits@D@std@@V?$allocator@D@2@@std@@K@std@@@2@@std@@@3@@std@@QAE@XZ 00500130 f i Zenilib:zenilib.obj
 0002:0007f1d0       ??A?$vector@V?$_Iterator@$00@?$list@U?$pair@$$CBV?$basic_string@DU?$char_traits@D@std@@V?$allocator@D@2@@std@@K@std@@V?$allocator@U?$pair@$$CBV?$basic_string@DU?$char_traits@D@std@@V?$allocator@D@2@@std@@K@std@@@2@@std@@V?$allocator@V?$_Iterator@$00@?$list@U?$pair@$$CBV?$basic_string@DU?$char_traits@D@std@@V?$allocator@D@2@@std@@K@std@@V?$allocator@U?$pair@$$CBV?$basic_string@DU?$char_traits@D@std@@V?$allocator@D@2@@std@@K@std@@@2@@std@@@3@@std@@QAEAAV?$_Iterator@$00@?$list@U?$pair@$$CBV?$basic_string@DU?$char_traits@D@std@@V?$allocator@D@2@@std@@K@std@@V?$allocator@U?$pair@$$CBV?$basic_string@DU?$char_traits@D@std@@V?$allocator@D@2@@std@@K@std@@@2@@1@I@Z 005001d0 f i Zenilib:zenilib.obj
 0002:0007f350       ??0?$_Hash@V?$_Hmap_traits@KVColor@Zeni@@V?$hash_compare@KU?$less@K@std@@@stdext@@V?$allocator@U?$pair@$$CBKVColor@Zeni@@@std@@@std@@$0A@@stdext@@@stdext@@QAE@ABV?$hash_compare@KU?$less@K@std@@@1@ABV?$allocator@U?$pair@$$CBKVColor@Zeni@@@std@@@std@@@Z 00500350 f i Zenilib:zenilib.obj
 0002:0007f460       ?end@?$_Hash@V?$_Hmap_traits@KVColor@Zeni@@V?$hash_compare@KU?$less@K@std@@@stdext@@V?$allocator@U?$pair@$$CBKVColor@Zeni@@@std@@@std@@$0A@@stdext@@@stdext@@QAE?AV?$_Iterator@$00@?$list@U?$pair@$$CBKVColor@Zeni@@@std@@V?$allocator@U?$pair@$$CBKVColor@Zeni@@@std@@@2@@std@@XZ 00500460 f i Zenilib:zenilib.obj
 0002:0007f4e0       ?insert@?$_Hash@V?$_Hmap_traits@KVColor@Zeni@@V?$hash_compare@KU?$less@K@std@@@stdext@@V?$allocator@U?$pair@$$CBKVColor@Zeni@@@std@@@std@@$0A@@stdext@@@stdext@@QAE?AU?$pair@V?$_Iterator@$00@?$list@U?$pair@$$CBKVColor@Zeni@@@std@@V?$allocator@U?$pair@$$CBKVColor@Zeni@@@std@@@2@@std@@_N@std@@ABU?$pair@$$CBKVColor@Zeni@@@4@@Z 005004e0 f i Zenilib:zenilib.obj
 0002:0007f590       ?erase@?$_Hash@V?$_Hmap_traits@KVColor@Zeni@@V?$hash_compare@KU?$less@K@std@@@stdext@@V?$allocator@U?$pair@$$CBKVColor@Zeni@@@std@@@std@@$0A@@stdext@@@stdext@@QAE?AV?$_Iterator@$00@?$list@U?$pair@$$CBKVColor@Zeni@@@std@@V?$allocator@U?$pair@$$CBKVColor@Zeni@@@std@@@2@@std@@V?$_Const_iterator@$00@45@0@Z 00500590 f i Zenilib:zenilib.obj
 0002:0007f930       ?lower_bound@?$_Hash@V?$_Hmap_traits@KVColor@Zeni@@V?$hash_compare@KU?$less@K@std@@@stdext@@V?$allocator@U?$pair@$$CBKVColor@Zeni@@@std@@@std@@$0A@@stdext@@@stdext@@QAE?AV?$_Iterator@$00@?$list@U?$pair@$$CBKVColor@Zeni@@@std@@V?$allocator@U?$pair@$$CBKVColor@Zeni@@@std@@@2@@std@@ABK@Z 00500930 f i Zenilib:zenilib.obj
 0002:0007fc40       ?lower_bound@?$_Hash@V?$_Hmap_traits@KVColor@Zeni@@V?$hash_compare@KU?$less@K@std@@@stdext@@V?$allocator@U?$pair@$$CBKVColor@Zeni@@@std@@@std@@$0A@@stdext@@@stdext@@QBE?AV?$_Const_iterator@$00@?$list@U?$pair@$$CBKVColor@Zeni@@@std@@V?$allocator@U?$pair@$$CBKVColor@Zeni@@@std@@@2@@std@@ABK@Z 00500c40 f i Zenilib:zenilib.obj
 0002:0007ff50       ?equal_range@?$_Hash@V?$_Hmap_traits@KVColor@Zeni@@V?$hash_compare@KU?$less@K@std@@@stdext@@V?$allocator@U?$pair@$$CBKVColor@Zeni@@@std@@@std@@$0A@@stdext@@@stdext@@QAE?AU?$pair@V?$_Iterator@$00@?$list@U?$pair@$$CBKVColor@Zeni@@@std@@V?$allocator@U?$pair@$$CBKVColor@Zeni@@@std@@@2@@std@@V123@@std@@ABK@Z 00500f50 f i Zenilib:zenilib.obj
 0002:00080300       ?_Init@?$_Hash@V?$_Hmap_traits@KVColor@Zeni@@V?$hash_compare@KU?$less@K@std@@@stdext@@V?$allocator@U?$pair@$$CBKVColor@Zeni@@@std@@@std@@$0A@@stdext@@@stdext@@IAEXI@Z 00501300 f i Zenilib:zenilib.obj
 0002:00080400       ??0?$allocator@U?$pair@$$CBKVColor@Zeni@@@std@@@std@@QAE@XZ 00501400 f i Zenilib:zenilib.obj
 0002:00080440       ??0?$hash_compare@KU?$less@K@std@@@stdext@@QAE@XZ 00501440 f i Zenilib:zenilib.obj
 0002:00080480       ??1?$list@U?$pair@$$CBKVColor@Zeni@@@std@@V?$allocator@U?$pair@$$CBKVColor@Zeni@@@std@@@2@@std@@QAE@XZ 00501480 f i Zenilib:zenilib.obj
 0002:00080520       ?end@?$list@U?$pair@$$CBKVColor@Zeni@@@std@@V?$allocator@U?$pair@$$CBKVColor@Zeni@@@std@@@2@@std@@QBE?AV?$_Const_iterator@$00@12@XZ 00501520 f i Zenilib:zenilib.obj
 0002:000805b0       ?clear@?$list@U?$pair@$$CBKVColor@Zeni@@@std@@V?$allocator@U?$pair@$$CBKVColor@Zeni@@@std@@@2@@std@@QAEXXZ 005015b0 f i Zenilib:zenilib.obj
 0002:000806c0       ??1?$vector@V?$_Iterator@$00@?$list@U?$pair@$$CBKVColor@Zeni@@@std@@V?$allocator@U?$pair@$$CBKVColor@Zeni@@@std@@@2@@std@@V?$allocator@V?$_Iterator@$00@?$list@U?$pair@$$CBKVColor@Zeni@@@std@@V?$allocator@U?$pair@$$CBKVColor@Zeni@@@std@@@2@@std@@@3@@std@@QAE@XZ 005016c0 f i Zenilib:zenilib.obj
 0002:00080760       ??0?$_Hash@V?$_Hmap_traits@KPAVFont@Zeni@@V?$hash_compare@KU?$less@K@std@@@stdext@@V?$allocator@U?$pair@$$CBKPAVFont@Zeni@@@std@@@std@@$0A@@stdext@@@stdext@@QAE@ABV?$hash_compare@KU?$less@K@std@@@1@ABV?$allocator@U?$pair@$$CBKPAVFont@Zeni@@@std@@@std@@@Z 00501760 f i Zenilib:zenilib.obj
 0002:00080870       ?insert@?$_Hash@V?$_Hmap_traits@KPAVFont@Zeni@@V?$hash_compare@KU?$less@K@std@@@stdext@@V?$allocator@U?$pair@$$CBKPAVFont@Zeni@@@std@@@std@@$0A@@stdext@@@stdext@@QAE?AU?$pair@V?$_Iterator@$00@?$list@U?$pair@$$CBKPAVFont@Zeni@@@std@@V?$allocator@U?$pair@$$CBKPAVFont@Zeni@@@std@@@2@@std@@_N@std@@ABU?$pair@$$CBKPAVFont@Zeni@@@4@@Z 00501870 f i Zenilib:zenilib.obj
 0002:00080920       ?erase@?$_Hash@V?$_Hmap_traits@KPAVFont@Zeni@@V?$hash_compare@KU?$less@K@std@@@stdext@@V?$allocator@U?$pair@$$CBKPAVFont@Zeni@@@std@@@std@@$0A@@stdext@@@stdext@@QAE?AV?$_Iterator@$00@?$list@U?$pair@$$CBKPAVFont@Zeni@@@std@@V?$allocator@U?$pair@$$CBKPAVFont@Zeni@@@std@@@2@@std@@V?$_Const_iterator@$00@45@0@Z 00501920 f i Zenilib:zenilib.obj
 0002:00080cc0       ?lower_bound@?$_Hash@V?$_Hmap_traits@KPAVFont@Zeni@@V?$hash_compare@KU?$less@K@std@@@stdext@@V?$allocator@U?$pair@$$CBKPAVFont@Zeni@@@std@@@std@@$0A@@stdext@@@stdext@@QAE?AV?$_Iterator@$00@?$list@U?$pair@$$CBKPAVFont@Zeni@@@std@@V?$allocator@U?$pair@$$CBKPAVFont@Zeni@@@std@@@2@@std@@ABK@Z 00501cc0 f i Zenilib:zenilib.obj
 0002:00080fd0       ?lower_bound@?$_Hash@V?$_Hmap_traits@KPAVFont@Zeni@@V?$hash_compare@KU?$less@K@std@@@stdext@@V?$allocator@U?$pair@$$CBKPAVFont@Zeni@@@std@@@std@@$0A@@stdext@@@stdext@@QBE?AV?$_Const_iterator@$00@?$list@U?$pair@$$CBKPAVFont@Zeni@@@std@@V?$allocator@U?$pair@$$CBKPAVFont@Zeni@@@std@@@2@@std@@ABK@Z 00501fd0 f i Zenilib:zenilib.obj
 0002:000812e0       ?equal_range@?$_Hash@V?$_Hmap_traits@KPAVFont@Zeni@@V?$hash_compare@KU?$less@K@std@@@stdext@@V?$allocator@U?$pair@$$CBKPAVFont@Zeni@@@std@@@std@@$0A@@stdext@@@stdext@@QAE?AU?$pair@V?$_Iterator@$00@?$list@U?$pair@$$CBKPAVFont@Zeni@@@std@@V?$allocator@U?$pair@$$CBKPAVFont@Zeni@@@std@@@2@@std@@V123@@std@@ABK@Z 005022e0 f i Zenilib:zenilib.obj
 0002:00081690       ?_Hashval@?$_Hash@V?$_Hmap_traits@KPAVFont@Zeni@@V?$hash_compare@KU?$less@K@std@@@stdext@@V?$allocator@U?$pair@$$CBKPAVFont@Zeni@@@std@@@std@@$0A@@stdext@@@stdext@@IBEIABK@Z 00502690 f i Zenilib:zenilib.obj
 0002:00081720       ?_Init@?$_Hash@V?$_Hmap_traits@KPAVFont@Zeni@@V?$hash_compare@KU?$less@K@std@@@stdext@@V?$allocator@U?$pair@$$CBKPAVFont@Zeni@@@std@@@std@@$0A@@stdext@@@stdext@@IAEXI@Z 00502720 f i Zenilib:zenilib.obj
 0002:00081820       ?_Kfn@?$_Hmap_traits@KPAVFont@Zeni@@V?$hash_compare@KU?$less@K@std@@@stdext@@V?$allocator@U?$pair@$$CBKPAVFont@Zeni@@@std@@@std@@$0A@@stdext@@SAABKABU?$pair@$$CBKPAVFont@Zeni@@@std@@@Z 00502820 f i Zenilib:zenilib.obj
 0002:00081860       ??0?$allocator@U?$pair@$$CBKPAVFont@Zeni@@@std@@@std@@QAE@XZ 00502860 f i Zenilib:zenilib.obj
 0002:000818a0       ??1?$list@U?$pair@$$CBKPAVFont@Zeni@@@std@@V?$allocator@U?$pair@$$CBKPAVFont@Zeni@@@std@@@2@@std@@QAE@XZ 005028a0 f i Zenilib:zenilib.obj
 0002:00081940       ?begin@?$list@U?$pair@$$CBKPAVFont@Zeni@@@std@@V?$allocator@U?$pair@$$CBKPAVFont@Zeni@@@std@@@2@@std@@QAE?AV?$_Iterator@$00@12@XZ 00502940 f i Zenilib:zenilib.obj
 0002:000819d0       ?end@?$list@U?$pair@$$CBKPAVFont@Zeni@@@std@@V?$allocator@U?$pair@$$CBKPAVFont@Zeni@@@std@@@2@@std@@QAE?AV?$_Iterator@$00@12@XZ 005029d0 f i Zenilib:zenilib.obj
 0002:00081a60       ?end@?$list@U?$pair@$$CBKPAVFont@Zeni@@@std@@V?$allocator@U?$pair@$$CBKPAVFont@Zeni@@@std@@@2@@std@@QBE?AV?$_Const_iterator@$00@12@XZ 00502a60 f i Zenilib:zenilib.obj
 0002:00081af0       ?erase@?$list@U?$pair@$$CBKPAVFont@Zeni@@@std@@V?$allocator@U?$pair@$$CBKPAVFont@Zeni@@@std@@@2@@std@@QAE?AV?$_Iterator@$00@12@V?$_Const_iterator@$00@12@@Z 00502af0 f i Zenilib:zenilib.obj
 0002:00081d40       ?clear@?$list@U?$pair@$$CBKPAVFont@Zeni@@@std@@V?$allocator@U?$pair@$$CBKPAVFont@Zeni@@@std@@@2@@std@@QAEXXZ 00502d40 f i Zenilib:zenilib.obj
 0002:00081e50       ??1?$vector@V?$_Iterator@$00@?$list@U?$pair@$$CBKPAVFont@Zeni@@@std@@V?$allocator@U?$pair@$$CBKPAVFont@Zeni@@@std@@@2@@std@@V?$allocator@V?$_Iterator@$00@?$list@U?$pair@$$CBKPAVFont@Zeni@@@std@@V?$allocator@U?$pair@$$CBKPAVFont@Zeni@@@std@@@2@@std@@@3@@std@@QAE@XZ 00502e50 f i Zenilib:zenilib.obj
 0002:00081ef0       ??A?$vector@V?$_Iterator@$00@?$list@U?$pair@$$CBKPAVFont@Zeni@@@std@@V?$allocator@U?$pair@$$CBKPAVFont@Zeni@@@std@@@2@@std@@V?$allocator@V?$_Iterator@$00@?$list@U?$pair@$$CBKPAVFont@Zeni@@@std@@V?$allocator@U?$pair@$$CBKPAVFont@Zeni@@@std@@@2@@std@@@3@@std@@QAEAAV?$_Iterator@$00@?$list@U?$pair@$$CBKPAVFont@Zeni@@@std@@V?$allocator@U?$pair@$$CBKPAVFont@Zeni@@@std@@@2@@1@I@Z 00502ef0 f i Zenilib:zenilib.obj
 0002:00082070       ?_Key@?$_Tree@V?$_Tmap_traits@UZeni_Input_ID@Zeni@@HU?$less@UZeni_Input_ID@Zeni@@@std@@V?$allocator@U?$pair@$$CBUZeni_Input_ID@Zeni@@H@std@@@4@$0A@@std@@@std@@KAABUZeni_Input_ID@Zeni@@PAU_Node@?$_Tree_nod@V?$_Tmap_traits@UZeni_Input_ID@Zeni@@HU?$less@UZeni_Input_ID@Zeni@@@std@@V?$allocator@U?$pair@$$CBUZeni_Input_ID@Zeni@@H@std@@@4@$0A@@std@@@2@@Z 00503070 f i Zenilib:zenilib.obj
 0002:000820d0       ??0?$_Tree@V?$_Tmap_traits@UZeni_Input_ID@Zeni@@HU?$less@UZeni_Input_ID@Zeni@@@std@@V?$allocator@U?$pair@$$CBUZeni_Input_ID@Zeni@@H@std@@@4@$0A@@std@@@std@@QAE@ABU?$less@UZeni_Input_ID@Zeni@@@1@ABV?$allocator@U?$pair@$$CBUZeni_Input_ID@Zeni@@H@std@@@1@@Z 005030d0 f i Zenilib:zenilib.obj
 0002:00082190       ?insert@?$_Tree@V?$_Tmap_traits@UZeni_Input_ID@Zeni@@HU?$less@UZeni_Input_ID@Zeni@@@std@@V?$allocator@U?$pair@$$CBUZeni_Input_ID@Zeni@@H@std@@@4@$0A@@std@@@std@@QAE?AViterator@12@Vconst_iterator@12@ABU?$pair@$$CBUZeni_Input_ID@Zeni@@H@2@@Z 00503190 f i Zenilib:zenilib.obj
 0002:00083060       ?lower_bound@?$_Tree@V?$_Tmap_traits@UZeni_Input_ID@Zeni@@HU?$less@UZeni_Input_ID@Zeni@@@std@@V?$allocator@U?$pair@$$CBUZeni_Input_ID@Zeni@@H@std@@@4@$0A@@std@@@std@@QAE?AViterator@12@ABUZeni_Input_ID@Zeni@@@Z 00504060 f i Zenilib:zenilib.obj
 0002:000830f0       ?_Tidy@?$_Tree@V?$_Tmap_traits@UZeni_Input_ID@Zeni@@HU?$less@UZeni_Input_ID@Zeni@@@std@@V?$allocator@U?$pair@$$CBUZeni_Input_ID@Zeni@@H@std@@@4@$0A@@std@@@std@@IAEXXZ 005040f0 f i Zenilib:zenilib.obj
 0002:00083320       ??1?$_Container_base_aux_alloc_empty@V?$allocator@U?$pair@$$CBUZeni_Input_ID@Zeni@@H@std@@@std@@@std@@IAE@XZ 00504320 f i Zenilib:zenilib.obj
 0002:00083380       ??0?$allocator@U?$pair@$$CBUZeni_Input_ID@Zeni@@H@std@@@std@@QAE@XZ 00504380 f i Zenilib:zenilib.obj
 0002:000833c0       ??R?$less@UZeni_Input_ID@Zeni@@@std@@QBE_NABUZeni_Input_ID@Zeni@@0@Z 005043c0 f i Zenilib:zenilib.obj
 0002:00083420       ?_Key@?$_Tree@V?$_Tmap_traits@HUZeni_Input_ID@Zeni@@U?$less@H@std@@V?$allocator@U?$pair@$$CBHUZeni_Input_ID@Zeni@@@std@@@4@$0A@@std@@@std@@KAABHPAU_Node@?$_Tree_nod@V?$_Tmap_traits@HUZeni_Input_ID@Zeni@@U?$less@H@std@@V?$allocator@U?$pair@$$CBHUZeni_Input_ID@Zeni@@@std@@@4@$0A@@std@@@2@@Z 00504420 f i Zenilib:zenilib.obj
 0002:00083480       ??0?$_Tree@V?$_Tmap_traits@HUZeni_Input_ID@Zeni@@U?$less@H@std@@V?$allocator@U?$pair@$$CBHUZeni_Input_ID@Zeni@@@std@@@4@$0A@@std@@@std@@QAE@ABU?$less@H@1@ABV?$allocator@U?$pair@$$CBHUZeni_Input_ID@Zeni@@@std@@@1@@Z 00504480 f i Zenilib:zenilib.obj
 0002:00083540       ?insert@?$_Tree@V?$_Tmap_traits@HUZeni_Input_ID@Zeni@@U?$less@H@std@@V?$allocator@U?$pair@$$CBHUZeni_Input_ID@Zeni@@@std@@@4@$0A@@std@@@std@@QAE?AViterator@12@Vconst_iterator@12@ABU?$pair@$$CBHUZeni_Input_ID@Zeni@@@2@@Z 00504540 f i Zenilib:zenilib.obj
 0002:00084410       ?lower_bound@?$_Tree@V?$_Tmap_traits@HUZeni_Input_ID@Zeni@@U?$less@H@std@@V?$allocator@U?$pair@$$CBHUZeni_Input_ID@Zeni@@@std@@@4@$0A@@std@@@std@@QAE?AViterator@12@ABH@Z 00505410 f i Zenilib:zenilib.obj
 0002:000844a0       ?_Tidy@?$_Tree@V?$_Tmap_traits@HUZeni_Input_ID@Zeni@@U?$less@H@std@@V?$allocator@U?$pair@$$CBHUZeni_Input_ID@Zeni@@@std@@@4@$0A@@std@@@std@@IAEXXZ 005054a0 f i Zenilib:zenilib.obj
 0002:000846d0       ??1?$_Container_base_aux_alloc_empty@V?$allocator@U?$pair@$$CBHUZeni_Input_ID@Zeni@@@std@@@std@@@std@@IAE@XZ 005056d0 f i Zenilib:zenilib.obj
 0002:00084730       ??0?$allocator@U?$pair@$$CBHUZeni_Input_ID@Zeni@@@std@@@std@@QAE@XZ 00505730 f i Zenilib:zenilib.obj
 0002:00084770       ??R?$less@H@std@@QBE_NABH0@Z 00505770 f i Zenilib:zenilib.obj
 0002:000847c0       ??0?$deque@VGamestate@Zeni@@V?$allocator@VGamestate@Zeni@@@std@@@std@@QAE@XZ 005057c0 f i Zenilib:zenilib.obj
 0002:00084860       ?_Tidy@?$deque@VGamestate@Zeni@@V?$allocator@VGamestate@Zeni@@@std@@@std@@IAEXXZ 00505860 f i Zenilib:zenilib.obj
 0002:00084980       ??1?$_Container_base_aux_alloc_empty@V?$allocator@VGamestate@Zeni@@@std@@@std@@IAE@XZ 00505980 f i Zenilib:zenilib.obj
 0002:000849e0       ?capacity@?$vector@U?$pair@V?$basic_string@DU?$char_traits@D@std@@V?$allocator@D@2@@std@@K@std@@V?$allocator@U?$pair@V?$basic_string@DU?$char_traits@D@std@@V?$allocator@D@2@@std@@K@std@@@2@@std@@QBEIXZ 005059e0 f i Zenilib:zenilib.obj
 0002:00084a60       ?begin@?$vector@U?$pair@V?$basic_string@DU?$char_traits@D@std@@V?$allocator@D@2@@std@@K@std@@V?$allocator@U?$pair@V?$basic_string@DU?$char_traits@D@std@@V?$allocator@D@2@@std@@K@std@@@2@@std@@QBE?AV?$_Vector_const_iterator@U?$pair@V?$basic_string@DU?$char_traits@D@std@@V?$allocator@D@2@@std@@K@std@@V?$allocator@U?$pair@V?$basic_string@DU?$char_traits@D@std@@V?$allocator@D@2@@std@@K@std@@@2@@2@XZ 00505a60 f i Zenilib:zenilib.obj
 0002:00084af0       ?end@?$vector@U?$pair@V?$basic_string@DU?$char_traits@D@std@@V?$allocator@D@2@@std@@K@std@@V?$allocator@U?$pair@V?$basic_string@DU?$char_traits@D@std@@V?$allocator@D@2@@std@@K@std@@@2@@std@@QAE?AV?$_Vector_iterator@U?$pair@V?$basic_string@DU?$char_traits@D@std@@V?$allocator@D@2@@std@@K@std@@V?$allocator@U?$pair@V?$basic_string@DU?$char_traits@D@std@@V?$allocator@D@2@@std@@K@std@@@2@@2@XZ 00505af0 f i Zenilib:zenilib.obj
 0002:00084b80       ?end@?$vector@U?$pair@V?$basic_string@DU?$char_traits@D@std@@V?$allocator@D@2@@std@@K@std@@V?$allocator@U?$pair@V?$basic_string@DU?$char_traits@D@std@@V?$allocator@D@2@@std@@K@std@@@2@@std@@QBE?AV?$_Vector_const_iterator@U?$pair@V?$basic_string@DU?$char_traits@D@std@@V?$allocator@D@2@@std@@K@std@@V?$allocator@U?$pair@V?$basic_string@DU?$char_traits@D@std@@V?$allocator@D@2@@std@@K@std@@@2@@2@XZ 00505b80 f i Zenilib:zenilib.obj
 0002:00084c10       ?insert@?$vector@U?$pair@V?$basic_string@DU?$char_traits@D@std@@V?$allocator@D@2@@std@@K@std@@V?$allocator@U?$pair@V?$basic_string@DU?$char_traits@D@std@@V?$allocator@D@2@@std@@K@std@@@2@@std@@QAE?AV?$_Vector_iterator@U?$pair@V?$basic_string@DU?$char_traits@D@std@@V?$allocator@D@2@@std@@K@std@@V?$allocator@U?$pair@V?$basic_string@DU?$char_traits@D@std@@V?$allocator@D@2@@std@@K@std@@@2@@2@V?$_Vector_const_iterator@U?$pair@V?$basic_string@DU?$char_traits@D@std@@V?$allocator@D@2@@std@@K@std@@V?$allocator@U?$pair@V?$basic_string@DU?$char_traits@D@std@@V?$allocator@D@2@@std@@K@std@@@2@@2@ABU?$pair@V?$basic_string@DU?$char_traits@D@std@@V?$allocator@D@2@@std@@K@2@@Z 00505c10 f i Zenilib:zenilib.obj
 0002:00084e10       ?_Buy@?$vector@U?$pair@V?$basic_string@DU?$char_traits@D@std@@V?$allocator@D@2@@std@@K@std@@V?$allocator@U?$pair@V?$basic_string@DU?$char_traits@D@std@@V?$allocator@D@2@@std@@K@std@@@2@@std@@IAE_NI@Z 00505e10 f i Zenilib:zenilib.obj
 0002:00084ef0       ?_Ufill@?$vector@U?$pair@V?$basic_string@DU?$char_traits@D@std@@V?$allocator@D@2@@std@@K@std@@V?$allocator@U?$pair@V?$basic_string@DU?$char_traits@D@std@@V?$allocator@D@2@@std@@K@std@@@2@@std@@IAEPAU?$pair@V?$basic_string@DU?$char_traits@D@std@@V?$allocator@D@2@@std@@K@2@PAU32@IABU32@@Z 00505ef0 f i Zenilib:zenilib.obj
 0002:00084f70       ?_Orphan_range@?$vector@U?$pair@V?$basic_string@DU?$char_traits@D@std@@V?$allocator@D@2@@std@@K@std@@V?$allocator@U?$pair@V?$basic_string@DU?$char_traits@D@std@@V?$allocator@D@2@@std@@K@std@@@2@@std@@IBEXPAU?$pair@V?$basic_string@DU?$char_traits@D@std@@V?$allocator@D@2@@std@@K@2@0@Z 00505f70 f i Zenilib:zenilib.obj
 0002:00085080       ??0?$_Vector_val@U?$pair@V?$basic_string@DU?$char_traits@D@std@@V?$allocator@D@2@@std@@K@std@@V?$allocator@U?$pair@V?$basic_string@DU?$char_traits@D@std@@V?$allocator@D@2@@std@@K@std@@@2@@std@@IAE@V?$allocator@U?$pair@V?$basic_string@DU?$char_traits@D@std@@V?$allocator@D@2@@std@@K@std@@@1@@Z 00506080 f i Zenilib:zenilib.obj
 0002:00085100       ??0?$allocator@U?$pair@V?$basic_string@DU?$char_traits@D@std@@V?$allocator@D@2@@std@@K@std@@@std@@QAE@XZ 00506100 f i Zenilib:zenilib.obj
 0002:00085140       ??0?$allocator@U?$pair@V?$basic_string@DU?$char_traits@D@std@@V?$allocator@D@2@@std@@K@std@@@std@@QAE@ABV01@@Z 00506140 f i Zenilib:zenilib.obj
 0002:00085180       ??0?$_Hash@V?$_Hmap_traits@KPAVTexture@Zeni@@V?$hash_compare@KU?$less@K@std@@@stdext@@V?$allocator@U?$pair@$$CBKPAVTexture@Zeni@@@std@@@std@@$0A@@stdext@@@stdext@@QAE@ABV?$hash_compare@KU?$less@K@std@@@1@ABV?$allocator@U?$pair@$$CBKPAVTexture@Zeni@@@std@@@std@@@Z 00506180 f i Zenilib:zenilib.obj
 0002:00085290       ??0?$_Hash@V?$_Hmap_traits@KPAVTexture@Zeni@@V?$hash_compare@KU?$less@K@std@@@stdext@@V?$allocator@U?$pair@$$CBKPAVTexture@Zeni@@@std@@@std@@$0A@@stdext@@@stdext@@QAE@ABV01@@Z 00506290 f i Zenilib:zenilib.obj
 0002:000853b0       ??4?$_Hash@V?$_Hmap_traits@KPAVTexture@Zeni@@V?$hash_compare@KU?$less@K@std@@@stdext@@V?$allocator@U?$pair@$$CBKPAVTexture@Zeni@@@std@@@std@@$0A@@stdext@@@stdext@@QAEAAV01@ABV01@@Z 005063b0 f i Zenilib:zenilib.obj
 0002:00085420       ?insert@?$_Hash@V?$_Hmap_traits@KPAVTexture@Zeni@@V?$hash_compare@KU?$less@K@std@@@stdext@@V?$allocator@U?$pair@$$CBKPAVTexture@Zeni@@@std@@@std@@$0A@@stdext@@@stdext@@QAE?AU?$pair@V?$_Iterator@$00@?$list@U?$pair@$$CBKPAVTexture@Zeni@@@std@@V?$allocator@U?$pair@$$CBKPAVTexture@Zeni@@@std@@@2@@std@@_N@std@@ABU?$pair@$$CBKPAVTexture@Zeni@@@4@@Z 00506420 f i Zenilib:zenilib.obj
 0002:000854d0       ?erase@?$_Hash@V?$_Hmap_traits@KPAVTexture@Zeni@@V?$hash_compare@KU?$less@K@std@@@stdext@@V?$allocator@U?$pair@$$CBKPAVTexture@Zeni@@@std@@@std@@$0A@@stdext@@@stdext@@QAE?AV?$_Iterator@$00@?$list@U?$pair@$$CBKPAVTexture@Zeni@@@std@@V?$allocator@U?$pair@$$CBKPAVTexture@Zeni@@@std@@@2@@std@@V?$_Const_iterator@$00@45@0@Z 005064d0 f i Zenilib:zenilib.obj
 0002:00085870       ?lower_bound@?$_Hash@V?$_Hmap_traits@KPAVTexture@Zeni@@V?$hash_compare@KU?$less@K@std@@@stdext@@V?$allocator@U?$pair@$$CBKPAVTexture@Zeni@@@std@@@std@@$0A@@stdext@@@stdext@@QAE?AV?$_Iterator@$00@?$list@U?$pair@$$CBKPAVTexture@Zeni@@@std@@V?$allocator@U?$pair@$$CBKPAVTexture@Zeni@@@std@@@2@@std@@ABK@Z 00506870 f i Zenilib:zenilib.obj
 0002:00085b80       ?lower_bound@?$_Hash@V?$_Hmap_traits@KPAVTexture@Zeni@@V?$hash_compare@KU?$less@K@std@@@stdext@@V?$allocator@U?$pair@$$CBKPAVTexture@Zeni@@@std@@@std@@$0A@@stdext@@@stdext@@QBE?AV?$_Const_iterator@$00@?$list@U?$pair@$$CBKPAVTexture@Zeni@@@std@@V?$allocator@U?$pair@$$CBKPAVTexture@Zeni@@@std@@@2@@std@@ABK@Z 00506b80 f i Zenilib:zenilib.obj
 0002:00085e90       ?equal_range@?$_Hash@V?$_Hmap_traits@KPAVTexture@Zeni@@V?$hash_compare@KU?$less@K@std@@@stdext@@V?$allocator@U?$pair@$$CBKPAVTexture@Zeni@@@std@@@std@@$0A@@stdext@@@stdext@@QAE?AU?$pair@V?$_Iterator@$00@?$list@U?$pair@$$CBKPAVTexture@Zeni@@@std@@V?$allocator@U?$pair@$$CBKPAVTexture@Zeni@@@std@@@2@@std@@V123@@std@@ABK@Z 00506e90 f i Zenilib:zenilib.obj
 0002:00086240       ?_Hashval@?$_Hash@V?$_Hmap_traits@KPAVTexture@Zeni@@V?$hash_compare@KU?$less@K@std@@@stdext@@V?$allocator@U?$pair@$$CBKPAVTexture@Zeni@@@std@@@std@@$0A@@stdext@@@stdext@@IBEIABK@Z 00507240 f i Zenilib:zenilib.obj
 0002:000862d0       ?_Init@?$_Hash@V?$_Hmap_traits@KPAVTexture@Zeni@@V?$hash_compare@KU?$less@K@std@@@stdext@@V?$allocator@U?$pair@$$CBKPAVTexture@Zeni@@@std@@@std@@$0A@@stdext@@@stdext@@IAEXI@Z 005072d0 f i Zenilib:zenilib.obj
 0002:000863d0       ?_Kfn@?$_Hmap_traits@KPAVTexture@Zeni@@V?$hash_compare@KU?$less@K@std@@@stdext@@V?$allocator@U?$pair@$$CBKPAVTexture@Zeni@@@std@@@std@@$0A@@stdext@@SAABKABU?$pair@$$CBKPAVTexture@Zeni@@@std@@@Z 005073d0 f i Zenilib:zenilib.obj
 0002:00086410       ??0?$allocator@U?$pair@$$CBKPAVTexture@Zeni@@@std@@@std@@QAE@XZ 00507410 f i Zenilib:zenilib.obj
 0002:00086450       ??1?$list@U?$pair@$$CBKPAVTexture@Zeni@@@std@@V?$allocator@U?$pair@$$CBKPAVTexture@Zeni@@@std@@@2@@std@@QAE@XZ 00507450 f i Zenilib:zenilib.obj
 0002:000864f0       ?begin@?$list@U?$pair@$$CBKPAVTexture@Zeni@@@std@@V?$allocator@U?$pair@$$CBKPAVTexture@Zeni@@@std@@@2@@std@@QAE?AV?$_Iterator@$00@12@XZ 005074f0 f i Zenilib:zenilib.obj
 0002:00086580       ?end@?$list@U?$pair@$$CBKPAVTexture@Zeni@@@std@@V?$allocator@U?$pair@$$CBKPAVTexture@Zeni@@@std@@@2@@std@@QAE?AV?$_Iterator@$00@12@XZ 00507580 f i Zenilib:zenilib.obj
 0002:00086610       ?end@?$list@U?$pair@$$CBKPAVTexture@Zeni@@@std@@V?$allocator@U?$pair@$$CBKPAVTexture@Zeni@@@std@@@2@@std@@QBE?AV?$_Const_iterator@$00@12@XZ 00507610 f i Zenilib:zenilib.obj
 0002:000866a0       ?erase@?$list@U?$pair@$$CBKPAVTexture@Zeni@@@std@@V?$allocator@U?$pair@$$CBKPAVTexture@Zeni@@@std@@@2@@std@@QAE?AV?$_Iterator@$00@12@V?$_Const_iterator@$00@12@@Z 005076a0 f i Zenilib:zenilib.obj
 0002:000868f0       ?clear@?$list@U?$pair@$$CBKPAVTexture@Zeni@@@std@@V?$allocator@U?$pair@$$CBKPAVTexture@Zeni@@@std@@@2@@std@@QAEXXZ 005078f0 f i Zenilib:zenilib.obj
 0002:00086a00       ??1?$vector@V?$_Iterator@$00@?$list@U?$pair@$$CBKPAVTexture@Zeni@@@std@@V?$allocator@U?$pair@$$CBKPAVTexture@Zeni@@@std@@@2@@std@@V?$allocator@V?$_Iterator@$00@?$list@U?$pair@$$CBKPAVTexture@Zeni@@@std@@V?$allocator@U?$pair@$$CBKPAVTexture@Zeni@@@std@@@2@@std@@@3@@std@@QAE@XZ 00507a00 f i Zenilib:zenilib.obj
 0002:00086aa0       ??A?$vector@V?$_Iterator@$00@?$list@U?$pair@$$CBKPAVTexture@Zeni@@@std@@V?$allocator@U?$pair@$$CBKPAVTexture@Zeni@@@std@@@2@@std@@V?$allocator@V?$_Iterator@$00@?$list@U?$pair@$$CBKPAVTexture@Zeni@@@std@@V?$allocator@U?$pair@$$CBKPAVTexture@Zeni@@@std@@@2@@std@@@3@@std@@QAEAAV?$_Iterator@$00@?$list@U?$pair@$$CBKPAVTexture@Zeni@@@std@@V?$allocator@U?$pair@$$CBKPAVTexture@Zeni@@@std@@@2@@1@I@Z 00507aa0 f i Zenilib:zenilib.obj
 0002:00086c20       ?get@?$auto_ptr@VRender_Wrapper@Zeni@@@std@@QBEPAVRender_Wrapper@Zeni@@XZ 00507c20 f i Zenilib:zenilib.obj
 0002:00086c60       ?capacity@?$vector@PAV?$Triangle@VVertex3f_Color@Zeni@@@Zeni@@V?$allocator@PAV?$Triangle@VVertex3f_Color@Zeni@@@Zeni@@@std@@@std@@QBEIXZ 00507c60 f i Zenilib:zenilib.obj
 0002:00086cd0       ?insert@?$vector@PAV?$Triangle@VVertex3f_Color@Zeni@@@Zeni@@V?$allocator@PAV?$Triangle@VVertex3f_Color@Zeni@@@Zeni@@@std@@@std@@QAE?AV?$_Vector_iterator@PAV?$Triangle@VVertex3f_Color@Zeni@@@Zeni@@V?$allocator@PAV?$Triangle@VVertex3f_Color@Zeni@@@Zeni@@@std@@@2@V?$_Vector_const_iterator@PAV?$Triangle@VVertex3f_Color@Zeni@@@Zeni@@V?$allocator@PAV?$Triangle@VVertex3f_Color@Zeni@@@Zeni@@@std@@@2@ABQAV?$Triangle@VVertex3f_Color@Zeni@@@Zeni@@@Z 00507cd0 f i Zenilib:zenilib.obj
 0002:00086ed0       ?_Buy@?$vector@PAV?$Triangle@VVertex3f_Color@Zeni@@@Zeni@@V?$allocator@PAV?$Triangle@VVertex3f_Color@Zeni@@@Zeni@@@std@@@std@@IAE_NI@Z 00507ed0 f i Zenilib:zenilib.obj
 0002:00086fb0       ?_Tidy@?$vector@PAV?$Triangle@VVertex3f_Color@Zeni@@@Zeni@@V?$allocator@PAV?$Triangle@VVertex3f_Color@Zeni@@@Zeni@@@std@@@std@@IAEXXZ 00507fb0 f i Zenilib:zenilib.obj
 0002:00087090       ?_Ufill@?$vector@PAV?$Triangle@VVertex3f_Color@Zeni@@@Zeni@@V?$allocator@PAV?$Triangle@VVertex3f_Color@Zeni@@@Zeni@@@std@@@std@@IAEPAPAV?$Triangle@VVertex3f_Color@Zeni@@@Zeni@@PAPAV34@IABQAV34@@Z 00508090 f i Zenilib:zenilib.obj
 0002:00087110       ?_Orphan_range@?$vector@PAV?$Triangle@VVertex3f_Color@Zeni@@@Zeni@@V?$allocator@PAV?$Triangle@VVertex3f_Color@Zeni@@@Zeni@@@std@@@std@@IBEXPAPAV?$Triangle@VVertex3f_Color@Zeni@@@Zeni@@0@Z 00508110 f i Zenilib:zenilib.obj
 0002:00087220       ??0?$_Vector_val@PAV?$Triangle@VVertex3f_Color@Zeni@@@Zeni@@V?$allocator@PAV?$Triangle@VVertex3f_Color@Zeni@@@Zeni@@@std@@@std@@IAE@V?$allocator@PAV?$Triangle@VVertex3f_Color@Zeni@@@Zeni@@@1@@Z 00508220 f i Zenilib:zenilib.obj
 0002:000872a0       ??1?$_Container_base_aux_alloc_empty@V?$allocator@PAV?$Triangle@VVertex3f_Color@Zeni@@@Zeni@@@std@@@std@@IAE@XZ 005082a0 f i Zenilib:zenilib.obj
 0002:00087300       ??0?$allocator@PAV?$Triangle@VVertex3f_Color@Zeni@@@Zeni@@@std@@QAE@XZ 00508300 f i Zenilib:zenilib.obj
 0002:00087340       ?capacity@?$vector@PAV?$Triangle@VVertex3f_Texture@Zeni@@@Zeni@@V?$allocator@PAV?$Triangle@VVertex3f_Texture@Zeni@@@Zeni@@@std@@@std@@QBEIXZ 00508340 f i Zenilib:zenilib.obj
 0002:000873b0       ?insert@?$vector@PAV?$Triangle@VVertex3f_Texture@Zeni@@@Zeni@@V?$allocator@PAV?$Triangle@VVertex3f_Texture@Zeni@@@Zeni@@@std@@@std@@QAE?AV?$_Vector_iterator@PAV?$Triangle@VVertex3f_Texture@Zeni@@@Zeni@@V?$allocator@PAV?$Triangle@VVertex3f_Texture@Zeni@@@Zeni@@@std@@@2@V?$_Vector_const_iterator@PAV?$Triangle@VVertex3f_Texture@Zeni@@@Zeni@@V?$allocator@PAV?$Triangle@VVertex3f_Texture@Zeni@@@Zeni@@@std@@@2@ABQAV?$Triangle@VVertex3f_Texture@Zeni@@@Zeni@@@Z 005083b0 f i Zenilib:zenilib.obj
 0002:000875b0       ?_Buy@?$vector@PAV?$Triangle@VVertex3f_Texture@Zeni@@@Zeni@@V?$allocator@PAV?$Triangle@VVertex3f_Texture@Zeni@@@Zeni@@@std@@@std@@IAE_NI@Z 005085b0 f i Zenilib:zenilib.obj
 0002:00087690       ?_Tidy@?$vector@PAV?$Triangle@VVertex3f_Texture@Zeni@@@Zeni@@V?$allocator@PAV?$Triangle@VVertex3f_Texture@Zeni@@@Zeni@@@std@@@std@@IAEXXZ 00508690 f i Zenilib:zenilib.obj
 0002:00087770       ?_Ufill@?$vector@PAV?$Triangle@VVertex3f_Texture@Zeni@@@Zeni@@V?$allocator@PAV?$Triangle@VVertex3f_Texture@Zeni@@@Zeni@@@std@@@std@@IAEPAPAV?$Triangle@VVertex3f_Texture@Zeni@@@Zeni@@PAPAV34@IABQAV34@@Z 00508770 f i Zenilib:zenilib.obj
 0002:000877f0       ?_Orphan_range@?$vector@PAV?$Triangle@VVertex3f_Texture@Zeni@@@Zeni@@V?$allocator@PAV?$Triangle@VVertex3f_Texture@Zeni@@@Zeni@@@std@@@std@@IBEXPAPAV?$Triangle@VVertex3f_Texture@Zeni@@@Zeni@@0@Z 005087f0 f i Zenilib:zenilib.obj
 0002:00087900       ??0?$_Vector_val@PAV?$Triangle@VVertex3f_Texture@Zeni@@@Zeni@@V?$allocator@PAV?$Triangle@VVertex3f_Texture@Zeni@@@Zeni@@@std@@@std@@IAE@V?$allocator@PAV?$Triangle@VVertex3f_Texture@Zeni@@@Zeni@@@1@@Z 00508900 f i Zenilib:zenilib.obj
 0002:00087980       ??1?$_Container_base_aux_alloc_empty@V?$allocator@PAV?$Triangle@VVertex3f_Texture@Zeni@@@Zeni@@@std@@@std@@IAE@XZ 00508980 f i Zenilib:zenilib.obj
 0002:000879e0       ??0?$allocator@PAV?$Triangle@VVertex3f_Texture@Zeni@@@Zeni@@@std@@QAE@XZ 005089e0 f i Zenilib:zenilib.obj
 0002:00087a20       ?push_back@?$vector@PAUVertex_Buffer_Range@Vertex_Buffer@Zeni@@V?$allocator@PAUVertex_Buffer_Range@Vertex_Buffer@Zeni@@@std@@@std@@QAEXABQAUVertex_Buffer_Range@Vertex_Buffer@Zeni@@@Z 00508a20 f i Zenilib:zenilib.obj
 0002:00087b90       ?_Buy@?$vector@PAUVertex_Buffer_Range@Vertex_Buffer@Zeni@@V?$allocator@PAUVertex_Buffer_Range@Vertex_Buffer@Zeni@@@std@@@std@@IAE_NI@Z 00508b90 f i Zenilib:zenilib.obj
 0002:00087c70       ?_Tidy@?$vector@PAUVertex_Buffer_Range@Vertex_Buffer@Zeni@@V?$allocator@PAUVertex_Buffer_Range@Vertex_Buffer@Zeni@@@std@@@std@@IAEXXZ 00508c70 f i Zenilib:zenilib.obj
 0002:00087d50       ??0?$_Vector_val@PAUVertex_Buffer_Range@Vertex_Buffer@Zeni@@V?$allocator@PAUVertex_Buffer_Range@Vertex_Buffer@Zeni@@@std@@@std@@IAE@V?$allocator@PAUVertex_Buffer_Range@Vertex_Buffer@Zeni@@@1@@Z 00508d50 f i Zenilib:zenilib.obj
 0002:00087dd0       ??1?$_Container_base_aux_alloc_empty@V?$allocator@PAUVertex_Buffer_Range@Vertex_Buffer@Zeni@@@std@@@std@@IAE@XZ 00508dd0 f i Zenilib:zenilib.obj
 0002:00087e30       ??0?$allocator@PAUVertex_Buffer_Range@Vertex_Buffer@Zeni@@@std@@QAE@XZ 00508e30 f i Zenilib:zenilib.obj
 0002:00087e70       ?_Myval@?$_Tree@V?$_Tset_traits@PBVTask@Zeni@@U?$less@PBVTask@Zeni@@@std@@V?$allocator@PBVTask@Zeni@@@4@$0A@@std@@@std@@KAAAPBVTask@Zeni@@PAU_Node@?$_Tree_nod@V?$_Tset_traits@PBVTask@Zeni@@U?$less@PBVTask@Zeni@@@std@@V?$allocator@PBVTask@Zeni@@@4@$0A@@std@@@2@@Z 00508e70 f i Zenilib:zenilib.obj
 0002:00087eb0       ??0?$_Tree@V?$_Tset_traits@PBVTask@Zeni@@U?$less@PBVTask@Zeni@@@std@@V?$allocator@PBVTask@Zeni@@@4@$0A@@std@@@std@@QAE@ABU?$less@PBVTask@Zeni@@@1@ABV?$allocator@PBVTask@Zeni@@@1@@Z 00508eb0 f i Zenilib:zenilib.obj
 0002:00087f70       ?_Lmost@?$_Tree@V?$_Tset_traits@PBVTask@Zeni@@U?$less@PBVTask@Zeni@@@std@@V?$allocator@PBVTask@Zeni@@@4@$0A@@std@@@std@@IBEAAPAU_Node@?$_Tree_nod@V?$_Tset_traits@PBVTask@Zeni@@U?$less@PBVTask@Zeni@@@std@@V?$allocator@PBVTask@Zeni@@@4@$0A@@std@@@2@XZ 00508f70 f i Zenilib:zenilib.obj
 0002:00087fd0       ?_Left@?$_Tree@V?$_Tset_traits@PBVTask@Zeni@@U?$less@PBVTask@Zeni@@@std@@V?$allocator@PBVTask@Zeni@@@4@$0A@@std@@@std@@KAAAPAU_Node@?$_Tree_nod@V?$_Tset_traits@PBVTask@Zeni@@U?$less@PBVTask@Zeni@@@std@@V?$allocator@PBVTask@Zeni@@@4@$0A@@std@@@2@PAU342@@Z 00508fd0 f i Zenilib:zenilib.obj
 0002:00088010       ?_Tidy@?$_Tree@V?$_Tset_traits@PBVTask@Zeni@@U?$less@PBVTask@Zeni@@@std@@V?$allocator@PBVTask@Zeni@@@4@$0A@@std@@@std@@IAEXXZ 00509010 f i Zenilib:zenilib.obj
 0002:00088240       ?_Parent@?$_Tree@V?$_Tset_traits@PBVTask@Zeni@@U?$less@PBVTask@Zeni@@@std@@V?$allocator@PBVTask@Zeni@@@4@$0A@@std@@@std@@KAAAPAU_Node@?$_Tree_nod@V?$_Tset_traits@PBVTask@Zeni@@U?$less@PBVTask@Zeni@@@std@@V?$allocator@PBVTask@Zeni@@@4@$0A@@std@@@2@PAU342@@Z 00509240 f i Zenilib:zenilib.obj
 0002:00088280       ?_Right@?$_Tree@V?$_Tset_traits@PBVTask@Zeni@@U?$less@PBVTask@Zeni@@@std@@V?$allocator@PBVTask@Zeni@@@4@$0A@@std@@@std@@KAAAPAU_Node@?$_Tree_nod@V?$_Tset_traits@PBVTask@Zeni@@U?$less@PBVTask@Zeni@@@std@@V?$allocator@PBVTask@Zeni@@@4@$0A@@std@@@2@PAU342@@Z 00509280 f i Zenilib:zenilib.obj
 0002:000882c0       ??1?$_Container_base_aux_alloc_empty@V?$allocator@PBVTask@Zeni@@@std@@@std@@IAE@XZ 005092c0 f i Zenilib:zenilib.obj
 0002:00088320       ??0?$allocator@PBVTask@Zeni@@@std@@QAE@XZ 00509320 f i Zenilib:zenilib.obj
 0002:00088360       ?deallocate@?$allocator@U_Node@?$_Tree_nod@V?$_Tset_traits@PBVTask@Zeni@@U?$less@PBVTask@Zeni@@@std@@V?$allocator@PBVTask@Zeni@@@4@$0A@@std@@@std@@@std@@QAEXPAU_Node@?$_Tree_nod@V?$_Tset_traits@PBVTask@Zeni@@U?$less@PBVTask@Zeni@@@std@@V?$allocator@PBVTask@Zeni@@@4@$0A@@std@@@2@I@Z 00509360 f i Zenilib:zenilib.obj
 0002:000883c0       ??0iterator@?$_Tree@V?$_Tset_traits@PBVTask@Zeni@@U?$less@PBVTask@Zeni@@@std@@V?$allocator@PBVTask@Zeni@@@4@$0A@@std@@@std@@QAE@PAU_Node@?$_Tree_nod@V?$_Tset_traits@PBVTask@Zeni@@U?$less@PBVTask@Zeni@@@std@@V?$allocator@PBVTask@Zeni@@@4@$0A@@std@@@2@PBV12@@Z 005093c0 f i Zenilib:zenilib.obj
 0002:00088420       ??8const_iterator@?$_Tree@V?$_Tset_traits@PBVTask@Zeni@@U?$less@PBVTask@Zeni@@@std@@V?$allocator@PBVTask@Zeni@@@4@$0A@@std@@@std@@QBE_NABV012@@Z 00509420 f i Zenilib:zenilib.obj
 0002:00088530       ?_Inc@const_iterator@?$_Tree@V?$_Tset_traits@PBVTask@Zeni@@U?$less@PBVTask@Zeni@@@std@@V?$allocator@PBVTask@Zeni@@@4@$0A@@std@@@std@@QAEXXZ 00509530 f i Zenilib:zenilib.obj
 0002:00088700       ?_Isnil@?$_Tree@V?$_Tset_traits@PBVTask@Zeni@@U?$less@PBVTask@Zeni@@@std@@V?$allocator@PBVTask@Zeni@@@4@$0A@@std@@@std@@KAAADPAU_Node@?$_Tree_nod@V?$_Tset_traits@PBVTask@Zeni@@U?$less@PBVTask@Zeni@@@std@@V?$allocator@PBVTask@Zeni@@@4@$0A@@std@@@2@@Z 00509700 f i Zenilib:zenilib.obj
 0002:00088740       ?_Min@?$_Tree@V?$_Tset_traits@PBVTask@Zeni@@U?$less@PBVTask@Zeni@@@std@@V?$allocator@PBVTask@Zeni@@@4@$0A@@std@@@std@@KAPAU_Node@?$_Tree_nod@V?$_Tset_traits@PBVTask@Zeni@@U?$less@PBVTask@Zeni@@@std@@V?$allocator@PBVTask@Zeni@@@4@$0A@@std@@@2@PAU342@@Z 00509740 f i Zenilib:zenilib.obj
 0002:000887c0       ?_Construct_n@?$vector@UChunk@Split_UDP_Socket@Zeni@@V?$allocator@UChunk@Split_UDP_Socket@Zeni@@@std@@@std@@QAEXIABUChunk@Split_UDP_Socket@Zeni@@@Z 005097c0 f i Zenilib:zenilib.obj
 0002:000888d0       ?_Buy@?$vector@UChunk@Split_UDP_Socket@Zeni@@V?$allocator@UChunk@Split_UDP_Socket@Zeni@@@std@@@std@@IAE_NI@Z 005098d0 f i Zenilib:zenilib.obj
 0002:000889b0       ?_Tidy@?$vector@UChunk@Split_UDP_Socket@Zeni@@V?$allocator@UChunk@Split_UDP_Socket@Zeni@@@std@@@std@@IAEXXZ 005099b0 f i Zenilib:zenilib.obj
 0002:00088a90       ??0?$_Vector_val@UChunk@Split_UDP_Socket@Zeni@@V?$allocator@UChunk@Split_UDP_Socket@Zeni@@@std@@@std@@IAE@V?$allocator@UChunk@Split_UDP_Socket@Zeni@@@1@@Z 00509a90 f i Zenilib:zenilib.obj
 0002:00088b10       ??1?$_Container_base_aux_alloc_empty@V?$allocator@UChunk@Split_UDP_Socket@Zeni@@@std@@@std@@IAE@XZ 00509b10 f i Zenilib:zenilib.obj
 0002:00088b70       ??0?$allocator@UChunk@Split_UDP_Socket@Zeni@@@std@@QAE@XZ 00509b70 f i Zenilib:zenilib.obj
 0002:00088bb0       ?_Nextnode@?$list@PAVChunk_Set@Split_UDP_Socket@Zeni@@V?$allocator@PAVChunk_Set@Split_UDP_Socket@Zeni@@@std@@@std@@KAAAPAU_Node@?$_List_nod@PAVChunk_Set@Split_UDP_Socket@Zeni@@V?$allocator@PAVChunk_Set@Split_UDP_Socket@Zeni@@@std@@@2@PAU342@@Z 00509bb0 f i Zenilib:zenilib.obj
 0002:00088bf0       ?_Insert@?$list@PAVChunk_Set@Split_UDP_Socket@Zeni@@V?$allocator@PAVChunk_Set@Split_UDP_Socket@Zeni@@@std@@@std@@QAEXV?$_Const_iterator@$00@12@ABQAVChunk_Set@Split_UDP_Socket@Zeni@@@Z 00509bf0 f i Zenilib:zenilib.obj
 0002:00088d40       ?erase@?$list@PAVChunk_Set@Split_UDP_Socket@Zeni@@V?$allocator@PAVChunk_Set@Split_UDP_Socket@Zeni@@@std@@@std@@QAE?AV?$_Iterator@$00@12@V?$_Const_iterator@$00@12@@Z 00509d40 f i Zenilib:zenilib.obj
 0002:00088f90       ?_Buynode@?$list@PAVChunk_Set@Split_UDP_Socket@Zeni@@V?$allocator@PAVChunk_Set@Split_UDP_Socket@Zeni@@@std@@@std@@IAEPAU_Node@?$_List_nod@PAVChunk_Set@Split_UDP_Socket@Zeni@@V?$allocator@PAVChunk_Set@Split_UDP_Socket@Zeni@@@std@@@2@XZ 00509f90 f i Zenilib:zenilib.obj
 0002:00089150       ?_Tidy@?$list@PAVChunk_Set@Split_UDP_Socket@Zeni@@V?$allocator@PAVChunk_Set@Split_UDP_Socket@Zeni@@@std@@@std@@IAEXXZ 0050a150 f i Zenilib:zenilib.obj
 0002:00089210       ??0?$_List_val@PAVChunk_Set@Split_UDP_Socket@Zeni@@V?$allocator@PAVChunk_Set@Split_UDP_Socket@Zeni@@@std@@@std@@QAE@V?$allocator@PAVChunk_Set@Split_UDP_Socket@Zeni@@@1@@Z 0050a210 f i Zenilib:zenilib.obj
 0002:00089290       ??1?$_Container_base_aux_alloc_empty@V?$allocator@PAVChunk_Set@Split_UDP_Socket@Zeni@@@std@@@std@@IAE@XZ 0050a290 f i Zenilib:zenilib.obj
 0002:000892f0       ??0?$allocator@PAVChunk_Set@Split_UDP_Socket@Zeni@@@std@@QAE@XZ 0050a2f0 f i Zenilib:zenilib.obj
 0002:00089330       ??0?$_Iterator@$00@?$list@PAVChunk_Set@Split_UDP_Socket@Zeni@@V?$allocator@PAVChunk_Set@Split_UDP_Socket@Zeni@@@std@@@std@@QAE@PAU_Node@?$_List_nod@PAVChunk_Set@Split_UDP_Socket@Zeni@@V?$allocator@PAVChunk_Set@Split_UDP_Socket@Zeni@@@std@@@2@PBV12@@Z 0050a330 f i Zenilib:zenilib.obj
 0002:00089390       ??F?$_Iterator@$00@?$list@PAVChunk_Set@Split_UDP_Socket@Zeni@@V?$allocator@PAVChunk_Set@Split_UDP_Socket@Zeni@@@std@@@std@@QAEAAV012@XZ 0050a390 f i Zenilib:zenilib.obj
 0002:000893f0       ??D?$_Const_iterator@$00@?$list@PAVChunk_Set@Split_UDP_Socket@Zeni@@V?$allocator@PAVChunk_Set@Split_UDP_Socket@Zeni@@@std@@@std@@QBEABQAVChunk_Set@Split_UDP_Socket@Zeni@@XZ 0050a3f0 f i Zenilib:zenilib.obj
 0002:00089520       ??E?$_Const_iterator@$00@?$list@PAVChunk_Set@Split_UDP_Socket@Zeni@@V?$allocator@PAVChunk_Set@Split_UDP_Socket@Zeni@@@std@@@std@@QAEAAV012@XZ 0050a520 f i Zenilib:zenilib.obj
 0002:00089660       ??8?$_Const_iterator@$00@?$list@PAVChunk_Set@Split_UDP_Socket@Zeni@@V?$allocator@PAVChunk_Set@Split_UDP_Socket@Zeni@@@std@@@std@@QBE_NABV012@@Z 0050a660 f i Zenilib:zenilib.obj
 0002:000896d0       ??0?$_Hash@V?$_Hmap_traits@KVSound_Buffer@Zeni@@V?$hash_compare@KU?$less@K@std@@@stdext@@V?$allocator@U?$pair@$$CBKVSound_Buffer@Zeni@@@std@@@std@@$0A@@stdext@@@stdext@@QAE@ABV?$hash_compare@KU?$less@K@std@@@1@ABV?$allocator@U?$pair@$$CBKVSound_Buffer@Zeni@@@std@@@std@@@Z 0050a6d0 f i Zenilib:zenilib.obj
 0002:000897e0       ?end@?$_Hash@V?$_Hmap_traits@KVSound_Buffer@Zeni@@V?$hash_compare@KU?$less@K@std@@@stdext@@V?$allocator@U?$pair@$$CBKVSound_Buffer@Zeni@@@std@@@std@@$0A@@stdext@@@stdext@@QAE?AV?$_Iterator@$00@?$list@U?$pair@$$CBKVSound_Buffer@Zeni@@@std@@V?$allocator@U?$pair@$$CBKVSound_Buffer@Zeni@@@std@@@2@@std@@XZ 0050a7e0 f i Zenilib:zenilib.obj
 0002:00089860       ?insert@?$_Hash@V?$_Hmap_traits@KVSound_Buffer@Zeni@@V?$hash_compare@KU?$less@K@std@@@stdext@@V?$allocator@U?$pair@$$CBKVSound_Buffer@Zeni@@@std@@@std@@$0A@@stdext@@@stdext@@QAE?AU?$pair@V?$_Iterator@$00@?$list@U?$pair@$$CBKVSound_Buffer@Zeni@@@std@@V?$allocator@U?$pair@$$CBKVSound_Buffer@Zeni@@@std@@@2@@std@@_N@std@@ABU?$pair@$$CBKVSound_Buffer@Zeni@@@4@@Z 0050a860 f i Zenilib:zenilib.obj
 0002:00089910       ?erase@?$_Hash@V?$_Hmap_traits@KVSound_Buffer@Zeni@@V?$hash_compare@KU?$less@K@std@@@stdext@@V?$allocator@U?$pair@$$CBKVSound_Buffer@Zeni@@@std@@@std@@$0A@@stdext@@@stdext@@QAE?AV?$_Iterator@$00@?$list@U?$pair@$$CBKVSound_Buffer@Zeni@@@std@@V?$allocator@U?$pair@$$CBKVSound_Buffer@Zeni@@@std@@@2@@std@@V?$_Const_iterator@$00@45@0@Z 0050a910 f i Zenilib:zenilib.obj
 0002:00089cb0       ?lower_bound@?$_Hash@V?$_Hmap_traits@KVSound_Buffer@Zeni@@V?$hash_compare@KU?$less@K@std@@@stdext@@V?$allocator@U?$pair@$$CBKVSound_Buffer@Zeni@@@std@@@std@@$0A@@stdext@@@stdext@@QAE?AV?$_Iterator@$00@?$list@U?$pair@$$CBKVSound_Buffer@Zeni@@@std@@V?$allocator@U?$pair@$$CBKVSound_Buffer@Zeni@@@std@@@2@@std@@ABK@Z 0050acb0 f i Zenilib:zenilib.obj
 0002:00089fc0       ?lower_bound@?$_Hash@V?$_Hmap_traits@KVSound_Buffer@Zeni@@V?$hash_compare@KU?$less@K@std@@@stdext@@V?$allocator@U?$pair@$$CBKVSound_Buffer@Zeni@@@std@@@std@@$0A@@stdext@@@stdext@@QBE?AV?$_Const_iterator@$00@?$list@U?$pair@$$CBKVSound_Buffer@Zeni@@@std@@V?$allocator@U?$pair@$$CBKVSound_Buffer@Zeni@@@std@@@2@@std@@ABK@Z 0050afc0 f i Zenilib:zenilib.obj
 0002:0008a2d0       ?equal_range@?$_Hash@V?$_Hmap_traits@KVSound_Buffer@Zeni@@V?$hash_compare@KU?$less@K@std@@@stdext@@V?$allocator@U?$pair@$$CBKVSound_Buffer@Zeni@@@std@@@std@@$0A@@stdext@@@stdext@@QAE?AU?$pair@V?$_Iterator@$00@?$list@U?$pair@$$CBKVSound_Buffer@Zeni@@@std@@V?$allocator@U?$pair@$$CBKVSound_Buffer@Zeni@@@std@@@2@@std@@V123@@std@@ABK@Z 0050b2d0 f i Zenilib:zenilib.obj
 0002:0008a680       ?_Init@?$_Hash@V?$_Hmap_traits@KVSound_Buffer@Zeni@@V?$hash_compare@KU?$less@K@std@@@stdext@@V?$allocator@U?$pair@$$CBKVSound_Buffer@Zeni@@@std@@@std@@$0A@@stdext@@@stdext@@IAEXI@Z 0050b680 f i Zenilib:zenilib.obj
 0002:0008a780       ??0?$allocator@U?$pair@$$CBKVSound_Buffer@Zeni@@@std@@@std@@QAE@XZ 0050b780 f i Zenilib:zenilib.obj
 0002:0008a7c0       ??1?$list@U?$pair@$$CBKVSound_Buffer@Zeni@@@std@@V?$allocator@U?$pair@$$CBKVSound_Buffer@Zeni@@@std@@@2@@std@@QAE@XZ 0050b7c0 f i Zenilib:zenilib.obj
 0002:0008a860       ?end@?$list@U?$pair@$$CBKVSound_Buffer@Zeni@@@std@@V?$allocator@U?$pair@$$CBKVSound_Buffer@Zeni@@@std@@@2@@std@@QBE?AV?$_Const_iterator@$00@12@XZ 0050b860 f i Zenilib:zenilib.obj
 0002:0008a8f0       ?clear@?$list@U?$pair@$$CBKVSound_Buffer@Zeni@@@std@@V?$allocator@U?$pair@$$CBKVSound_Buffer@Zeni@@@std@@@2@@std@@QAEXXZ 0050b8f0 f i Zenilib:zenilib.obj
 0002:0008aa00       ??1?$vector@V?$_Iterator@$00@?$list@U?$pair@$$CBKVSound_Buffer@Zeni@@@std@@V?$allocator@U?$pair@$$CBKVSound_Buffer@Zeni@@@std@@@2@@std@@V?$allocator@V?$_Iterator@$00@?$list@U?$pair@$$CBKVSound_Buffer@Zeni@@@std@@V?$allocator@U?$pair@$$CBKVSound_Buffer@Zeni@@@std@@@2@@std@@@3@@std@@QAE@XZ 0050ba00 f i Zenilib:zenilib.obj
 0002:0008aaa0       ?_Myval@?$_Tree@V?$_Tset_traits@PAVRadio_Button@Zeni@@U?$less@PAVRadio_Button@Zeni@@@std@@V?$allocator@PAVRadio_Button@Zeni@@@4@$0A@@std@@@std@@KAAAPAVRadio_Button@Zeni@@PAU_Node@?$_Tree_nod@V?$_Tset_traits@PAVRadio_Button@Zeni@@U?$less@PAVRadio_Button@Zeni@@@std@@V?$allocator@PAVRadio_Button@Zeni@@@4@$0A@@std@@@2@@Z 0050baa0 f i Zenilib:zenilib.obj
 0002:0008aae0       ?_Lmost@?$_Tree@V?$_Tset_traits@PAVRadio_Button@Zeni@@U?$less@PAVRadio_Button@Zeni@@@std@@V?$allocator@PAVRadio_Button@Zeni@@@4@$0A@@std@@@std@@IBEAAPAU_Node@?$_Tree_nod@V?$_Tset_traits@PAVRadio_Button@Zeni@@U?$less@PAVRadio_Button@Zeni@@@std@@V?$allocator@PAVRadio_Button@Zeni@@@4@$0A@@std@@@2@XZ 0050bae0 f i Zenilib:zenilib.obj
 0002:0008ab40       ?_Left@?$_Tree@V?$_Tset_traits@PAVRadio_Button@Zeni@@U?$less@PAVRadio_Button@Zeni@@@std@@V?$allocator@PAVRadio_Button@Zeni@@@4@$0A@@std@@@std@@KAAAPAU_Node@?$_Tree_nod@V?$_Tset_traits@PAVRadio_Button@Zeni@@U?$less@PAVRadio_Button@Zeni@@@std@@V?$allocator@PAVRadio_Button@Zeni@@@4@$0A@@std@@@2@PAU342@@Z 0050bb40 f i Zenilib:zenilib.obj
 0002:0008ab80       ?capacity@?$vector@HV?$allocator@H@std@@@std@@QBEIXZ 0050bb80 f i Zenilib:zenilib.obj
 0002:0008abf0       ?end@?$vector@HV?$allocator@H@std@@@std@@QAE?AV?$_Vector_iterator@HV?$allocator@H@std@@@2@XZ 0050bbf0 f i Zenilib:zenilib.obj
 0002:0008ac80       ?insert@?$vector@HV?$allocator@H@std@@@std@@QAE?AV?$_Vector_iterator@HV?$allocator@H@std@@@2@V?$_Vector_const_iterator@HV?$allocator@H@std@@@2@ABH@Z 0050bc80 f i Zenilib:zenilib.obj
 0002:0008ae80       ?clear@?$vector@HV?$allocator@H@std@@@std@@QAEXXZ 0050be80 f i Zenilib:zenilib.obj
 0002:0008b010       ?_Buy@?$vector@HV?$allocator@H@std@@@std@@IAE_NI@Z 0050c010 f i Zenilib:zenilib.obj
 0002:0008b0f0       ?_Ufill@?$vector@HV?$allocator@H@std@@@std@@IAEPAHPAHIABH@Z 0050c0f0 f i Zenilib:zenilib.obj
 0002:0008b170       ?_Orphan_range@?$vector@HV?$allocator@H@std@@@std@@IBEXPAH0@Z 0050c170 f i Zenilib:zenilib.obj
 0002:0008b280       ?capacity@?$vector@ULine@Text_Box@Zeni@@V?$allocator@ULine@Text_Box@Zeni@@@std@@@std@@QBEIXZ 0050c280 f i Zenilib:zenilib.obj
 0002:0008b300       ?insert@?$vector@ULine@Text_Box@Zeni@@V?$allocator@ULine@Text_Box@Zeni@@@std@@@std@@QAE?AV?$_Vector_iterator@ULine@Text_Box@Zeni@@V?$allocator@ULine@Text_Box@Zeni@@@std@@@2@V?$_Vector_const_iterator@ULine@Text_Box@Zeni@@V?$allocator@ULine@Text_Box@Zeni@@@std@@@2@ABULine@Text_Box@Zeni@@@Z 0050c300 f i Zenilib:zenilib.obj
 0002:0008b500       ?erase@?$vector@ULine@Text_Box@Zeni@@V?$allocator@ULine@Text_Box@Zeni@@@std@@@std@@QAE?AV?$_Vector_iterator@ULine@Text_Box@Zeni@@V?$allocator@ULine@Text_Box@Zeni@@@std@@@2@V?$_Vector_const_iterator@ULine@Text_Box@Zeni@@V?$allocator@ULine@Text_Box@Zeni@@@std@@@2@0@Z 0050c500 f i Zenilib:zenilib.obj
 0002:0008b7a0       ?_Buy@?$vector@ULine@Text_Box@Zeni@@V?$allocator@ULine@Text_Box@Zeni@@@std@@@std@@IAE_NI@Z 0050c7a0 f i Zenilib:zenilib.obj
 0002:0008b880       ?_Ufill@?$vector@ULine@Text_Box@Zeni@@V?$allocator@ULine@Text_Box@Zeni@@@std@@@std@@IAEPAULine@Text_Box@Zeni@@PAU345@IABU345@@Z 0050c880 f i Zenilib:zenilib.obj
 0002:0008b900       ?_Orphan_range@?$vector@ULine@Text_Box@Zeni@@V?$allocator@ULine@Text_Box@Zeni@@@std@@@std@@IBEXPAULine@Text_Box@Zeni@@0@Z 0050c900 f i Zenilib:zenilib.obj
 0002:0008ba10       ??0?$_Vector_val@ULine@Text_Box@Zeni@@V?$allocator@ULine@Text_Box@Zeni@@@std@@@std@@IAE@V?$allocator@ULine@Text_Box@Zeni@@@1@@Z 0050ca10 f i Zenilib:zenilib.obj
 0002:0008ba90       ??0?$allocator@ULine@Text_Box@Zeni@@@std@@QAE@XZ 0050ca90 f i Zenilib:zenilib.obj
 0002:0008bad0       ?_Myval@?$_Tree@V?$_Tset_traits@PAVWidget@Zeni@@U?$less@PAVWidget@Zeni@@@std@@V?$allocator@PAVWidget@Zeni@@@4@$0A@@std@@@std@@KAAAPAVWidget@Zeni@@PAU_Node@?$_Tree_nod@V?$_Tset_traits@PAVWidget@Zeni@@U?$less@PAVWidget@Zeni@@@std@@V?$allocator@PAVWidget@Zeni@@@4@$0A@@std@@@2@@Z 0050cad0 f i Zenilib:zenilib.obj
 0002:0008bb10       ?_Lmost@?$_Tree@V?$_Tset_traits@PAVWidget@Zeni@@U?$less@PAVWidget@Zeni@@@std@@V?$allocator@PAVWidget@Zeni@@@4@$0A@@std@@@std@@IBEAAPAU_Node@?$_Tree_nod@V?$_Tset_traits@PAVWidget@Zeni@@U?$less@PAVWidget@Zeni@@@std@@V?$allocator@PAVWidget@Zeni@@@4@$0A@@std@@@2@XZ 0050cb10 f i Zenilib:zenilib.obj
 0002:0008bb70       ?_Left@?$_Tree@V?$_Tset_traits@PAVWidget@Zeni@@U?$less@PAVWidget@Zeni@@@std@@V?$allocator@PAVWidget@Zeni@@@4@$0A@@std@@@std@@KAAAPAU_Node@?$_Tree_nod@V?$_Tset_traits@PAVWidget@Zeni@@U?$less@PAVWidget@Zeni@@@std@@V?$allocator@PAVWidget@Zeni@@@4@$0A@@std@@@2@PAU342@@Z 0050cb70 f i Zenilib:zenilib.obj
 0002:0008bbb0       ??0iterator@?$_Tree@V?$_Tset_traits@PAVRadio_Button@Zeni@@U?$less@PAVRadio_Button@Zeni@@@std@@V?$allocator@PAVRadio_Button@Zeni@@@4@$0A@@std@@@std@@QAE@PAU_Node@?$_Tree_nod@V?$_Tset_traits@PAVRadio_Button@Zeni@@U?$less@PAVRadio_Button@Zeni@@@std@@V?$allocator@PAVRadio_Button@Zeni@@@4@$0A@@std@@@2@PBV12@@Z 0050cbb0 f i Zenilib:zenilib.obj
 0002:0008bc10       ??0const_iterator@?$_Tree@V?$_Tset_traits@PAVRadio_Button@Zeni@@U?$less@PAVRadio_Button@Zeni@@@std@@V?$allocator@PAVRadio_Button@Zeni@@@4@$0A@@std@@@std@@QAE@PAU_Node@?$_Tree_nod@V?$_Tset_traits@PAVRadio_Button@Zeni@@U?$less@PAVRadio_Button@Zeni@@@std@@V?$allocator@PAVRadio_Button@Zeni@@@4@$0A@@std@@@2@PBV12@@Z 0050cc10 f i Zenilib:zenilib.obj
 0002:0008bcd0       ??8const_iterator@?$_Tree@V?$_Tset_traits@PAVRadio_Button@Zeni@@U?$less@PAVRadio_Button@Zeni@@@std@@V?$allocator@PAVRadio_Button@Zeni@@@4@$0A@@std@@@std@@QBE_NABV012@@Z 0050ccd0 f i Zenilib:zenilib.obj
 0002:0008bde0       ?_Inc@const_iterator@?$_Tree@V?$_Tset_traits@PAVRadio_Button@Zeni@@U?$less@PAVRadio_Button@Zeni@@@std@@V?$allocator@PAVRadio_Button@Zeni@@@4@$0A@@std@@@std@@QAEXXZ 0050cde0 f i Zenilib:zenilib.obj
 0002:0008bfb0       ?_Isnil@?$_Tree@V?$_Tset_traits@PAVRadio_Button@Zeni@@U?$less@PAVRadio_Button@Zeni@@@std@@V?$allocator@PAVRadio_Button@Zeni@@@4@$0A@@std@@@std@@KAAADPAU_Node@?$_Tree_nod@V?$_Tset_traits@PAVRadio_Button@Zeni@@U?$less@PAVRadio_Button@Zeni@@@std@@V?$allocator@PAVRadio_Button@Zeni@@@4@$0A@@std@@@2@@Z 0050cfb0 f i Zenilib:zenilib.obj
 0002:0008bff0       ?_Right@?$_Tree@V?$_Tset_traits@PAVRadio_Button@Zeni@@U?$less@PAVRadio_Button@Zeni@@@std@@V?$allocator@PAVRadio_Button@Zeni@@@4@$0A@@std@@@std@@KAAAPAU_Node@?$_Tree_nod@V?$_Tset_traits@PAVRadio_Button@Zeni@@U?$less@PAVRadio_Button@Zeni@@@std@@V?$allocator@PAVRadio_Button@Zeni@@@4@$0A@@std@@@2@PAU342@@Z 0050cff0 f i Zenilib:zenilib.obj
 0002:0008c030       ??0iterator@?$_Tree@V?$_Tset_traits@PAVWidget@Zeni@@U?$less@PAVWidget@Zeni@@@std@@V?$allocator@PAVWidget@Zeni@@@4@$0A@@std@@@std@@QAE@PAU_Node@?$_Tree_nod@V?$_Tset_traits@PAVWidget@Zeni@@U?$less@PAVWidget@Zeni@@@std@@V?$allocator@PAVWidget@Zeni@@@4@$0A@@std@@@2@PBV12@@Z 0050d030 f i Zenilib:zenilib.obj
 0002:0008c090       ??0const_iterator@?$_Tree@V?$_Tset_traits@PAVWidget@Zeni@@U?$less@PAVWidget@Zeni@@@std@@V?$allocator@PAVWidget@Zeni@@@4@$0A@@std@@@std@@QAE@PAU_Node@?$_Tree_nod@V?$_Tset_traits@PAVWidget@Zeni@@U?$less@PAVWidget@Zeni@@@std@@V?$allocator@PAVWidget@Zeni@@@4@$0A@@std@@@2@PBV12@@Z 0050d090 f i Zenilib:zenilib.obj
 0002:0008c150       ??8const_iterator@?$_Tree@V?$_Tset_traits@PAVWidget@Zeni@@U?$less@PAVWidget@Zeni@@@std@@V?$allocator@PAVWidget@Zeni@@@4@$0A@@std@@@std@@QBE_NABV012@@Z 0050d150 f i Zenilib:zenilib.obj
 0002:0008c260       ?_Inc@const_iterator@?$_Tree@V?$_Tset_traits@PAVWidget@Zeni@@U?$less@PAVWidget@Zeni@@@std@@V?$allocator@PAVWidget@Zeni@@@4@$0A@@std@@@std@@QAEXXZ 0050d260 f i Zenilib:zenilib.obj
 0002:0008c430       ?_Isnil@?$_Tree@V?$_Tset_traits@PAVWidget@Zeni@@U?$less@PAVWidget@Zeni@@@std@@V?$allocator@PAVWidget@Zeni@@@4@$0A@@std@@@std@@KAAADPAU_Node@?$_Tree_nod@V?$_Tset_traits@PAVWidget@Zeni@@U?$less@PAVWidget@Zeni@@@std@@V?$allocator@PAVWidget@Zeni@@@4@$0A@@std@@@2@@Z 0050d430 f i Zenilib:zenilib.obj
 0002:0008c470       ?_Right@?$_Tree@V?$_Tset_traits@PAVWidget@Zeni@@U?$less@PAVWidget@Zeni@@@std@@V?$allocator@PAVWidget@Zeni@@@4@$0A@@std@@@std@@KAAAPAU_Node@?$_Tree_nod@V?$_Tset_traits@PAVWidget@Zeni@@U?$less@PAVWidget@Zeni@@@std@@V?$allocator@PAVWidget@Zeni@@@4@$0A@@std@@@2@PAU342@@Z 0050d470 f i Zenilib:zenilib.obj
 0002:0008c4b0       ??D?$_Const_iterator@$00@?$list@U?$pair@$$CBV?$basic_string@DU?$char_traits@D@std@@V?$allocator@D@2@@std@@K@std@@V?$allocator@U?$pair@$$CBV?$basic_string@DU?$char_traits@D@std@@V?$allocator@D@2@@std@@K@std@@@2@@std@@QBEABU?$pair@$$CBV?$basic_string@DU?$char_traits@D@std@@V?$allocator@D@2@@std@@K@2@XZ 0050d4b0 f i Zenilib:zenilib.obj
 0002:0008c5e0       ??E?$_Const_iterator@$00@?$list@U?$pair@$$CBV?$basic_string@DU?$char_traits@D@std@@V?$allocator@D@2@@std@@K@std@@V?$allocator@U?$pair@$$CBV?$basic_string@DU?$char_traits@D@std@@V?$allocator@D@2@@std@@K@std@@@2@@std@@QAEAAV012@XZ 0050d5e0 f i Zenilib:zenilib.obj
 0002:0008c720       ?_Compat@?$_Const_iterator@$00@?$list@U?$pair@$$CBV?$basic_string@DU?$char_traits@D@std@@V?$allocator@D@2@@std@@K@std@@V?$allocator@U?$pair@$$CBV?$basic_string@DU?$char_traits@D@std@@V?$allocator@D@2@@std@@K@std@@@2@@std@@QBEXABV123@@Z 0050d720 f i Zenilib:zenilib.obj
 0002:0008c830       ??0?$pair@$$CBV?$basic_string@DU?$char_traits@D@std@@V?$allocator@D@2@@std@@K@std@@QAE@ABV?$basic_string@DU?$char_traits@D@std@@V?$allocator@D@2@@1@ABK@Z 0050d830 f i Zenilib:zenilib.obj
 0002:0008c8b0       ??D?$_Const_iterator@$00@?$list@U?$pair@$$CBKVColor@Zeni@@@std@@V?$allocator@U?$pair@$$CBKVColor@Zeni@@@std@@@2@@std@@QBEABU?$pair@$$CBKVColor@Zeni@@@2@XZ 0050d8b0 f i Zenilib:zenilib.obj
 0002:0008c9e0       ?_Compat@?$_Const_iterator@$00@?$list@U?$pair@$$CBKVColor@Zeni@@@std@@V?$allocator@U?$pair@$$CBKVColor@Zeni@@@std@@@2@@std@@QBEXABV123@@Z 0050d9e0 f i Zenilib:zenilib.obj
 0002:0008caf0       ??0?$pair@$$CBKVColor@Zeni@@@std@@QAE@ABKABVColor@Zeni@@@Z 0050daf0 f i Zenilib:zenilib.obj
 0002:0008cb60       ??D?$_Iterator@$00@?$list@U?$pair@$$CBV?$basic_string@DU?$char_traits@D@std@@V?$allocator@D@2@@std@@K@std@@V?$allocator@U?$pair@$$CBV?$basic_string@DU?$char_traits@D@std@@V?$allocator@D@2@@std@@K@std@@@2@@std@@QBEAAU?$pair@$$CBV?$basic_string@DU?$char_traits@D@std@@V?$allocator@D@2@@std@@K@2@XZ 0050db60 f i Zenilib:zenilib.obj
 0002:0008cbb0       ??D?$_Const_iterator@$00@?$list@U?$pair@$$CBKPAVFont@Zeni@@@std@@V?$allocator@U?$pair@$$CBKPAVFont@Zeni@@@std@@@2@@std@@QBEABU?$pair@$$CBKPAVFont@Zeni@@@2@XZ 0050dbb0 f i Zenilib:zenilib.obj
 0002:0008cce0       ??E?$_Const_iterator@$00@?$list@U?$pair@$$CBKPAVFont@Zeni@@@std@@V?$allocator@U?$pair@$$CBKPAVFont@Zeni@@@std@@@2@@std@@QAEAAV012@XZ 0050dce0 f i Zenilib:zenilib.obj
 0002:0008ce20       ?_Compat@?$_Const_iterator@$00@?$list@U?$pair@$$CBKPAVFont@Zeni@@@std@@V?$allocator@U?$pair@$$CBKPAVFont@Zeni@@@std@@@2@@std@@QBEXABV123@@Z 0050de20 f i Zenilib:zenilib.obj
 0002:0008cf30       ??0?$pair@$$CBKPAVFont@Zeni@@@std@@QAE@ABKABQAVFont@Zeni@@@Z 0050df30 f i Zenilib:zenilib.obj
 0002:0008cf90       ??D?$_Iterator@$00@?$list@U?$pair@$$CBKPAVFont@Zeni@@@std@@V?$allocator@U?$pair@$$CBKPAVFont@Zeni@@@std@@@2@@std@@QBEAAU?$pair@$$CBKPAVFont@Zeni@@@2@XZ 0050df90 f i Zenilib:zenilib.obj
 0002:0008cfe0       ??0iterator@?$_Tree@V?$_Tmap_traits@UZeni_Input_ID@Zeni@@HU?$less@UZeni_Input_ID@Zeni@@@std@@V?$allocator@U?$pair@$$CBUZeni_Input_ID@Zeni@@H@std@@@4@$0A@@std@@@std@@QAE@PAU_Node@?$_Tree_nod@V?$_Tmap_traits@UZeni_Input_ID@Zeni@@HU?$less@UZeni_Input_ID@Zeni@@@std@@V?$allocator@U?$pair@$$CBUZeni_Input_ID@Zeni@@H@std@@@4@$0A@@std@@@2@PBV12@@Z 0050dfe0 f i Zenilib:zenilib.obj
 0002:0008d040       ??Diterator@?$_Tree@V?$_Tmap_traits@UZeni_Input_ID@Zeni@@HU?$less@UZeni_Input_ID@Zeni@@@std@@V?$allocator@U?$pair@$$CBUZeni_Input_ID@Zeni@@H@std@@@4@$0A@@std@@@std@@QBEAAU?$pair@$$CBUZeni_Input_ID@Zeni@@H@2@XZ 0050e040 f i Zenilib:zenilib.obj
 0002:0008d090       ??Dconst_iterator@?$_Tree@V?$_Tmap_traits@UZeni_Input_ID@Zeni@@HU?$less@UZeni_Input_ID@Zeni@@@std@@V?$allocator@U?$pair@$$CBUZeni_Input_ID@Zeni@@H@std@@@4@$0A@@std@@@std@@QBEABU?$pair@$$CBUZeni_Input_ID@Zeni@@H@2@XZ 0050e090 f i Zenilib:zenilib.obj
 0002:0008d1b0       ??8const_iterator@?$_Tree@V?$_Tmap_traits@UZeni_Input_ID@Zeni@@HU?$less@UZeni_Input_ID@Zeni@@@std@@V?$allocator@U?$pair@$$CBUZeni_Input_ID@Zeni@@H@std@@@4@$0A@@std@@@std@@QBE_NABV012@@Z 0050e1b0 f i Zenilib:zenilib.obj
 0002:0008d2c0       ?_Mynode@const_iterator@?$_Tree@V?$_Tmap_traits@UZeni_Input_ID@Zeni@@HU?$less@UZeni_Input_ID@Zeni@@@std@@V?$allocator@U?$pair@$$CBUZeni_Input_ID@Zeni@@H@std@@@4@$0A@@std@@@std@@QBEPAU_Node@?$_Tree_nod@V?$_Tmap_traits@UZeni_Input_ID@Zeni@@HU?$less@UZeni_Input_ID@Zeni@@@std@@V?$allocator@U?$pair@$$CBUZeni_Input_ID@Zeni@@H@std@@@4@$0A@@std@@@3@XZ 0050e2c0 f i Zenilib:zenilib.obj
 0002:0008d300       ??0?$pair@$$CBUZeni_Input_ID@Zeni@@H@std@@QAE@ABUZeni_Input_ID@Zeni@@ABH@Z 0050e300 f i Zenilib:zenilib.obj
 0002:0008d370       ??Dconst_iterator@?$_Tree@V?$_Tmap_traits@HUZeni_Input_ID@Zeni@@U?$less@H@std@@V?$allocator@U?$pair@$$CBHUZeni_Input_ID@Zeni@@@std@@@4@$0A@@std@@@std@@QBEABU?$pair@$$CBHUZeni_Input_ID@Zeni@@@2@XZ 0050e370 f i Zenilib:zenilib.obj
 0002:0008d490       ??8const_iterator@?$_Tree@V?$_Tmap_traits@HUZeni_Input_ID@Zeni@@U?$less@H@std@@V?$allocator@U?$pair@$$CBHUZeni_Input_ID@Zeni@@@std@@@4@$0A@@std@@@std@@QBE_NABV012@@Z 0050e490 f i Zenilib:zenilib.obj
 0002:0008d5a0       ?_Mynode@const_iterator@?$_Tree@V?$_Tmap_traits@HUZeni_Input_ID@Zeni@@U?$less@H@std@@V?$allocator@U?$pair@$$CBHUZeni_Input_ID@Zeni@@@std@@@4@$0A@@std@@@std@@QBEPAU_Node@?$_Tree_nod@V?$_Tmap_traits@HUZeni_Input_ID@Zeni@@U?$less@H@std@@V?$allocator@U?$pair@$$CBHUZeni_Input_ID@Zeni@@@std@@@4@$0A@@std@@@3@XZ 0050e5a0 f i Zenilib:zenilib.obj
 0002:0008d5e0       ??0iterator@?$_Tree@V?$_Tmap_traits@HUZeni_Input_ID@Zeni@@U?$less@H@std@@V?$allocator@U?$pair@$$CBHUZeni_Input_ID@Zeni@@@std@@@4@$0A@@std@@@std@@QAE@PAU_Node@?$_Tree_nod@V?$_Tmap_traits@HUZeni_Input_ID@Zeni@@U?$less@H@std@@V?$allocator@U?$pair@$$CBHUZeni_Input_ID@Zeni@@@std@@@4@$0A@@std@@@2@PBV12@@Z 0050e5e0 f i Zenilib:zenilib.obj
 0002:0008d640       ??Diterator@?$_Tree@V?$_Tmap_traits@HUZeni_Input_ID@Zeni@@U?$less@H@std@@V?$allocator@U?$pair@$$CBHUZeni_Input_ID@Zeni@@@std@@@4@$0A@@std@@@std@@QBEAAU?$pair@$$CBHUZeni_Input_ID@Zeni@@@2@XZ 0050e640 f i Zenilib:zenilib.obj
 0002:0008d690       ??0?$pair@$$CBHUZeni_Input_ID@Zeni@@@std@@QAE@ABHABUZeni_Input_ID@Zeni@@@Z 0050e690 f i Zenilib:zenilib.obj
 0002:0008d700       ?_Construct_n@?$vector@V?$basic_string@DU?$char_traits@D@std@@V?$allocator@D@2@@std@@V?$allocator@V?$basic_string@DU?$char_traits@D@std@@V?$allocator@D@2@@std@@@2@@std@@QAEXIABV?$basic_string@DU?$char_traits@D@std@@V?$allocator@D@2@@2@@Z 0050e700 f i Zenilib:zenilib.obj
 0002:0008d810       ??0?$_Vector_const_iterator@UChunk@Split_UDP_Socket@Zeni@@V?$allocator@UChunk@Split_UDP_Socket@Zeni@@@std@@@std@@QAE@PAUChunk@Split_UDP_Socket@Zeni@@PBV_Container_base_secure@1@@Z 0050e810 f i Zenilib:zenilib.obj
 0002:0008d950       ??D?$_Vector_const_iterator@UChunk@Split_UDP_Socket@Zeni@@V?$allocator@UChunk@Split_UDP_Socket@Zeni@@@std@@@std@@QBEABUChunk@Split_UDP_Socket@Zeni@@XZ 0050e950 f i Zenilib:zenilib.obj
 0002:0008da60       ??8?$_Vector_const_iterator@UChunk@Split_UDP_Socket@Zeni@@V?$allocator@UChunk@Split_UDP_Socket@Zeni@@@std@@@std@@QBE_NABV01@@Z 0050ea60 f i Zenilib:zenilib.obj
 0002:0008dad0       ?_Buy@?$vector@DV?$allocator@D@std@@@std@@IAE_NI@Z 0050ead0 f i Zenilib:zenilib.obj
 0002:0008dbb0       ?_Tidy@?$vector@DV?$allocator@D@std@@@std@@IAEXXZ 0050ebb0 f i Zenilib:zenilib.obj
 0002:0008dc90       ??0?$_Vector_val@DV?$allocator@D@std@@@std@@IAE@V?$allocator@D@1@@Z 0050ec90 f i Zenilib:zenilib.obj
 0002:0008dd30       ??1?$_Container_base_aux_alloc_empty@V?$allocator@D@std@@@std@@IAE@XZ 0050ed30 f i Zenilib:zenilib.obj
 0002:0008dd90       ??0?$_Vector_iterator@DV?$allocator@D@std@@@std@@QAE@PADPBV_Container_base_secure@1@@Z 0050ed90 f i Zenilib:zenilib.obj
 0002:0008ddf0       ??D?$_Const_iterator@$00@?$list@U?$pair@$$CBKVSound_Buffer@Zeni@@@std@@V?$allocator@U?$pair@$$CBKVSound_Buffer@Zeni@@@std@@@2@@std@@QBEABU?$pair@$$CBKVSound_Buffer@Zeni@@@2@XZ 0050edf0 f i Zenilib:zenilib.obj
 0002:0008df20       ?_Compat@?$_Const_iterator@$00@?$list@U?$pair@$$CBKVSound_Buffer@Zeni@@@std@@V?$allocator@U?$pair@$$CBKVSound_Buffer@Zeni@@@std@@@2@@std@@QBEXABV123@@Z 0050ef20 f i Zenilib:zenilib.obj
 0002:0008e030       ??0?$pair@$$CBKVSound_Buffer@Zeni@@@std@@QAE@ABKABVSound_Buffer@Zeni@@@Z 0050f030 f i Zenilib:zenilib.obj
 0002:0008e0a0       ??D?$_Iterator@$00@?$list@U?$pair@$$CBKPAVTexture@Zeni@@@std@@V?$allocator@U?$pair@$$CBKPAVTexture@Zeni@@@std@@@2@@std@@QBEAAU?$pair@$$CBKPAVTexture@Zeni@@@2@XZ 0050f0a0 f i Zenilib:zenilib.obj
 0002:0008e0f0       ??D?$_Const_iterator@$00@?$list@U?$pair@$$CBKPAVTexture@Zeni@@@std@@V?$allocator@U?$pair@$$CBKPAVTexture@Zeni@@@std@@@2@@std@@QBEABU?$pair@$$CBKPAVTexture@Zeni@@@2@XZ 0050f0f0 f i Zenilib:zenilib.obj
 0002:0008e220       ??E?$_Const_iterator@$00@?$list@U?$pair@$$CBKPAVTexture@Zeni@@@std@@V?$allocator@U?$pair@$$CBKPAVTexture@Zeni@@@std@@@2@@std@@QAEAAV012@XZ 0050f220 f i Zenilib:zenilib.obj
 0002:0008e360       ?_Compat@?$_Const_iterator@$00@?$list@U?$pair@$$CBKPAVTexture@Zeni@@@std@@V?$allocator@U?$pair@$$CBKPAVTexture@Zeni@@@std@@@2@@std@@QBEXABV123@@Z 0050f360 f i Zenilib:zenilib.obj
 0002:0008e470       ??0?$pair@$$CBKPAVTexture@Zeni@@@std@@QAE@ABKABQAVTexture@Zeni@@@Z 0050f470 f i Zenilib:zenilib.obj
 0002:0008e4d0       ??0?$_Vector_iterator@PAV?$Triangle@VVertex3f_Color@Zeni@@@Zeni@@V?$allocator@PAV?$Triangle@VVertex3f_Color@Zeni@@@Zeni@@@std@@@std@@QAE@PAPAV?$Triangle@VVertex3f_Color@Zeni@@@Zeni@@PBV_Container_base_secure@1@@Z 0050f4d0 f i Zenilib:zenilib.obj
 0002:0008e530       ??0?$_Vector_iterator@PAV?$Triangle@VVertex3f_Texture@Zeni@@@Zeni@@V?$allocator@PAV?$Triangle@VVertex3f_Texture@Zeni@@@Zeni@@@std@@@std@@QAE@PAPAV?$Triangle@VVertex3f_Texture@Zeni@@@Zeni@@PBV_Container_base_secure@1@@Z 0050f530 f i Zenilib:zenilib.obj
 0002:0008e590       ?_Nextnode@?$list@UWord@Text_Box@Zeni@@V?$allocator@UWord@Text_Box@Zeni@@@std@@@std@@KAAAPAU_Node@?$_List_nod@UWord@Text_Box@Zeni@@V?$allocator@UWord@Text_Box@Zeni@@@std@@@2@PAU342@@Z 0050f590 f i Zenilib:zenilib.obj
 0002:0008e5d0       ?_Insert@?$list@UWord@Text_Box@Zeni@@V?$allocator@UWord@Text_Box@Zeni@@@std@@@std@@QAEXV?$_Const_iterator@$00@12@ABUWord@Text_Box@Zeni@@@Z 0050f5d0 f i Zenilib:zenilib.obj
 0002:0008e720       ?_Buynode@?$list@UWord@Text_Box@Zeni@@V?$allocator@UWord@Text_Box@Zeni@@@std@@@std@@IAEPAU_Node@?$_List_nod@UWord@Text_Box@Zeni@@V?$allocator@UWord@Text_Box@Zeni@@@std@@@2@XZ 0050f720 f i Zenilib:zenilib.obj
 0002:0008e8e0       ?_Tidy@?$list@UWord@Text_Box@Zeni@@V?$allocator@UWord@Text_Box@Zeni@@@std@@@std@@IAEXXZ 0050f8e0 f i Zenilib:zenilib.obj
 0002:0008e9a0       ??0?$_List_val@UWord@Text_Box@Zeni@@V?$allocator@UWord@Text_Box@Zeni@@@std@@@std@@QAE@V?$allocator@UWord@Text_Box@Zeni@@@1@@Z 0050f9a0 f i Zenilib:zenilib.obj
 0002:0008ea20       ??1?$_Container_base_aux_alloc_empty@V?$allocator@UWord@Text_Box@Zeni@@@std@@@std@@IAE@XZ 0050fa20 f i Zenilib:zenilib.obj
 0002:0008ea80       ??0?$allocator@UWord@Text_Box@Zeni@@@std@@QAE@XZ 0050fa80 f i Zenilib:zenilib.obj
 0002:0008eac0       ??0?$_Iterator@$00@?$list@UWord@Text_Box@Zeni@@V?$allocator@UWord@Text_Box@Zeni@@@std@@@std@@QAE@PAU_Node@?$_List_nod@UWord@Text_Box@Zeni@@V?$allocator@UWord@Text_Box@Zeni@@@std@@@2@PBV12@@Z 0050fac0 f i Zenilib:zenilib.obj
 0002:0008eb20       ??D?$_Const_iterator@$00@?$list@UWord@Text_Box@Zeni@@V?$allocator@UWord@Text_Box@Zeni@@@std@@@std@@QBEABUWord@Text_Box@Zeni@@XZ 0050fb20 f i Zenilib:zenilib.obj
 0002:0008ec50       ??E?$_Const_iterator@$00@?$list@UWord@Text_Box@Zeni@@V?$allocator@UWord@Text_Box@Zeni@@@std@@@std@@QAEAAV012@XZ 0050fc50 f i Zenilib:zenilib.obj
 0002:0008ed90       ??8?$_Const_iterator@$00@?$list@UWord@Text_Box@Zeni@@V?$allocator@UWord@Text_Box@Zeni@@@std@@@std@@QBE_NABV012@@Z 0050fd90 f i Zenilib:zenilib.obj
 0002:0008ee00       ??0?$_Vector_iterator@ULine@Text_Box@Zeni@@V?$allocator@ULine@Text_Box@Zeni@@@std@@@std@@QAE@PAULine@Text_Box@Zeni@@PBV_Container_base_secure@1@@Z 0050fe00 f i Zenilib:zenilib.obj
 0002:0008ee60       ??D?$_Vector_iterator@ULine@Text_Box@Zeni@@V?$allocator@ULine@Text_Box@Zeni@@@std@@@std@@QBEAAULine@Text_Box@Zeni@@XZ 0050fe60 f i Zenilib:zenilib.obj
 0002:0008eeb0       ??F?$_Vector_iterator@ULine@Text_Box@Zeni@@V?$allocator@ULine@Text_Box@Zeni@@@std@@@std@@QAEAAV01@XZ 0050feb0 f i Zenilib:zenilib.obj
 0002:0008ef10       ??0?$_Vector_const_iterator@ULine@Text_Box@Zeni@@V?$allocator@ULine@Text_Box@Zeni@@@std@@@std@@QAE@PAULine@Text_Box@Zeni@@PBV_Container_base_secure@1@@Z 0050ff10 f i Zenilib:zenilib.obj
 0002:0008f050       ??D?$_Vector_const_iterator@ULine@Text_Box@Zeni@@V?$allocator@ULine@Text_Box@Zeni@@@std@@@std@@QBEABULine@Text_Box@Zeni@@XZ 00510050 f i Zenilib:zenilib.obj
 0002:0008f160       ??8?$_Vector_const_iterator@ULine@Text_Box@Zeni@@V?$allocator@ULine@Text_Box@Zeni@@@std@@@std@@QBE_NABV01@@Z 00510160 f i Zenilib:zenilib.obj
 0002:0008f1d0       ??0?$reverse_iterator@V?$_Vector_iterator@ULine@Text_Box@Zeni@@V?$allocator@ULine@Text_Box@Zeni@@@std@@@std@@@std@@QAE@V?$_Vector_iterator@ULine@Text_Box@Zeni@@V?$allocator@ULine@Text_Box@Zeni@@@std@@@1@@Z 005101d0 f i Zenilib:zenilib.obj
 0002:0008f2a0       ??8?$_String_const_iterator@DU?$char_traits@D@std@@V?$allocator@D@2@@std@@QBE_NABV01@@Z 005102a0 f i Zenilib:zenilib.obj
 0002:0008f310       ??D?$_Iterator@$00@?$list@U?$pair@$$CBKVColor@Zeni@@@std@@V?$allocator@U?$pair@$$CBKVColor@Zeni@@@std@@@2@@std@@QBEAAU?$pair@$$CBKVColor@Zeni@@@2@XZ 00510310 f i Zenilib:zenilib.obj
 0002:0008f360       ??D?$_Iterator@$00@?$list@U?$pair@$$CBKVSound_Buffer@Zeni@@@std@@V?$allocator@U?$pair@$$CBKVSound_Buffer@Zeni@@@std@@@2@@std@@QBEAAU?$pair@$$CBKVSound_Buffer@Zeni@@@2@XZ 00510360 f i Zenilib:zenilib.obj
 0002:0008f3b0       ??0?$_Iterator@$00@?$list@U?$pair@$$CBV?$basic_string@DU?$char_traits@D@std@@V?$allocator@D@2@@std@@K@std@@V?$allocator@U?$pair@$$CBV?$basic_string@DU?$char_traits@D@std@@V?$allocator@D@2@@std@@K@std@@@2@@std@@QAE@ABV012@@Z 005103b0 f i Zenilib:zenilib.obj
 0002:0008f410       ??1?$_List_val@U?$pair@$$CBV?$basic_string@DU?$char_traits@D@std@@V?$allocator@D@2@@std@@K@std@@V?$allocator@U?$pair@$$CBV?$basic_string@DU?$char_traits@D@std@@V?$allocator@D@2@@std@@K@std@@@2@@std@@QAE@XZ 00510410 f i Zenilib:zenilib.obj
 0002:0008f460       ??1?$_Vector_val@V?$_Iterator@$00@?$list@U?$pair@$$CBV?$basic_string@DU?$char_traits@D@std@@V?$allocator@D@2@@std@@K@std@@V?$allocator@U?$pair@$$CBV?$basic_string@DU?$char_traits@D@std@@V?$allocator@D@2@@std@@K@std@@@2@@std@@V?$allocator@V?$_Iterator@$00@?$list@U?$pair@$$CBV?$basic_string@DU?$char_traits@D@std@@V?$allocator@D@2@@std@@K@std@@V?$allocator@U?$pair@$$CBV?$basic_string@DU?$char_traits@D@std@@V?$allocator@D@2@@std@@K@std@@@2@@std@@@3@@std@@QAE@XZ 00510460 f i Zenilib:zenilib.obj
 0002:0008f4b0       ??1?$_List_val@U?$pair@$$CBKVColor@Zeni@@@std@@V?$allocator@U?$pair@$$CBKVColor@Zeni@@@std@@@2@@std@@QAE@XZ 005104b0 f i Zenilib:zenilib.obj
 0002:0008f500       ??1?$_Vector_val@V?$_Iterator@$00@?$list@U?$pair@$$CBKVColor@Zeni@@@std@@V?$allocator@U?$pair@$$CBKVColor@Zeni@@@std@@@2@@std@@V?$allocator@V?$_Iterator@$00@?$list@U?$pair@$$CBKVColor@Zeni@@@std@@V?$allocator@U?$pair@$$CBKVColor@Zeni@@@std@@@2@@std@@@3@@std@@QAE@XZ 00510500 f i Zenilib:zenilib.obj
 0002:0008f550       ??1?$_List_val@U?$pair@$$CBKPAVFont@Zeni@@@std@@V?$allocator@U?$pair@$$CBKPAVFont@Zeni@@@std@@@2@@std@@QAE@XZ 00510550 f i Zenilib:zenilib.obj
 0002:0008f5a0       ??1?$_Vector_val@V?$_Iterator@$00@?$list@U?$pair@$$CBKPAVFont@Zeni@@@std@@V?$allocator@U?$pair@$$CBKPAVFont@Zeni@@@std@@@2@@std@@V?$allocator@V?$_Iterator@$00@?$list@U?$pair@$$CBKPAVFont@Zeni@@@std@@V?$allocator@U?$pair@$$CBKPAVFont@Zeni@@@std@@@2@@std@@@3@@std@@QAE@XZ 005105a0 f i Zenilib:zenilib.obj
 0002:0008f5f0       ??1?$pair@Viterator@?$_Tree@V?$_Tmap_traits@UZeni_Input_ID@Zeni@@HU?$less@UZeni_Input_ID@Zeni@@@std@@V?$allocator@U?$pair@$$CBUZeni_Input_ID@Zeni@@H@std@@@4@$0A@@std@@@std@@_N@std@@QAE@XZ 005105f0 f i Zenilib:zenilib.obj
 0002:0008f640       ??1?$pair@Viterator@?$_Tree@V?$_Tmap_traits@HUZeni_Input_ID@Zeni@@U?$less@H@std@@V?$allocator@U?$pair@$$CBHUZeni_Input_ID@Zeni@@@std@@@4@$0A@@std@@@std@@_N@std@@QAE@XZ 00510640 f i Zenilib:zenilib.obj
 0002:0008f690       ??1?$_List_val@U?$pair@$$CBKPAVTexture@Zeni@@@std@@V?$allocator@U?$pair@$$CBKPAVTexture@Zeni@@@std@@@2@@std@@QAE@XZ 00510690 f i Zenilib:zenilib.obj
 0002:0008f6e0       ??1?$_Vector_val@V?$_Iterator@$00@?$list@U?$pair@$$CBKPAVTexture@Zeni@@@std@@V?$allocator@U?$pair@$$CBKPAVTexture@Zeni@@@std@@@2@@std@@V?$allocator@V?$_Iterator@$00@?$list@U?$pair@$$CBKPAVTexture@Zeni@@@std@@V?$allocator@U?$pair@$$CBKPAVTexture@Zeni@@@std@@@2@@std@@@3@@std@@QAE@XZ 005106e0 f i Zenilib:zenilib.obj
 0002:0008f730       ??1?$_Vector_iterator@PAUVertex_Buffer_Range@Vertex_Buffer@Zeni@@V?$allocator@PAUVertex_Buffer_Range@Vertex_Buffer@Zeni@@@std@@@std@@QAE@XZ 00510730 f i Zenilib:zenilib.obj
 0002:0008f780       ??0?$_Vector_const_iterator@PAUVertex_Buffer_Range@Vertex_Buffer@Zeni@@V?$allocator@PAUVertex_Buffer_Range@Vertex_Buffer@Zeni@@@std@@@std@@QAE@ABV01@@Z 00510780 f i Zenilib:zenilib.obj
 0002:0008f7f0       ??1?$_Vector_const_iterator@PAUVertex_Buffer_Range@Vertex_Buffer@Zeni@@V?$allocator@PAUVertex_Buffer_Range@Vertex_Buffer@Zeni@@@std@@@std@@QAE@XZ 005107f0 f i Zenilib:zenilib.obj
 0002:0008f840       ??1?$_List_val@U?$pair@$$CBKVSound_Buffer@Zeni@@@std@@V?$allocator@U?$pair@$$CBKVSound_Buffer@Zeni@@@std@@@2@@std@@QAE@XZ 00510840 f i Zenilib:zenilib.obj
 0002:0008f890       ??1?$_Vector_val@V?$_Iterator@$00@?$list@U?$pair@$$CBKVSound_Buffer@Zeni@@@std@@V?$allocator@U?$pair@$$CBKVSound_Buffer@Zeni@@@std@@@2@@std@@V?$allocator@V?$_Iterator@$00@?$list@U?$pair@$$CBKVSound_Buffer@Zeni@@@std@@V?$allocator@U?$pair@$$CBKVSound_Buffer@Zeni@@@std@@@2@@std@@@3@@std@@QAE@XZ 00510890 f i Zenilib:zenilib.obj
 0002:0008f8e0       ??0?$_Bidit@PAVRadio_Button@Zeni@@HPBQAV12@ABQAV12@@std@@QAE@XZ 005108e0 f i Zenilib:zenilib.obj
 0002:0008f940       ??0?$_Bidit@PAVWidget@Zeni@@HPBQAV12@ABQAV12@@std@@QAE@XZ 00510940 f i Zenilib:zenilib.obj
 0002:0008f9a0       ??0?$_Ranit@UChunk@Split_UDP_Socket@Zeni@@HPBU123@ABU123@@std@@QAE@XZ 005109a0 f i Zenilib:zenilib.obj
 0002:0008fa00       ??0?$_Ranit@ULine@Text_Box@Zeni@@HPBU123@ABU123@@std@@QAE@XZ 00510a00 f i Zenilib:zenilib.obj
 0002:0008fa60       ??1?$_List_ptr@U?$pair@$$CBV?$basic_string@DU?$char_traits@D@std@@V?$allocator@D@2@@std@@K@std@@V?$allocator@U?$pair@$$CBV?$basic_string@DU?$char_traits@D@std@@V?$allocator@D@2@@std@@K@std@@@2@@std@@QAE@XZ 00510a60 f i Zenilib:zenilib.obj
 0002:0008fab0       ??1?$_List_ptr@U?$pair@$$CBKVColor@Zeni@@@std@@V?$allocator@U?$pair@$$CBKVColor@Zeni@@@std@@@2@@std@@QAE@XZ 00510ab0 f i Zenilib:zenilib.obj
 0002:0008fb00       ??1?$_List_ptr@U?$pair@$$CBKPAVFont@Zeni@@@std@@V?$allocator@U?$pair@$$CBKPAVFont@Zeni@@@std@@@2@@std@@QAE@XZ 00510b00 f i Zenilib:zenilib.obj
 0002:0008fb50       ??1?$_List_ptr@U?$pair@$$CBKPAVTexture@Zeni@@@std@@V?$allocator@U?$pair@$$CBKPAVTexture@Zeni@@@std@@@2@@std@@QAE@XZ 00510b50 f i Zenilib:zenilib.obj
 0002:0008fba0       ??0?$_Ranit@PAUVertex_Buffer_Range@Vertex_Buffer@Zeni@@HPBQAU123@ABQAU123@@std@@QAE@ABU01@@Z 00510ba0 f i Zenilib:zenilib.obj
 0002:0008fc00       ??1?$_Ranit@PAUVertex_Buffer_Range@Vertex_Buffer@Zeni@@HPBQAU123@ABQAU123@@std@@QAE@XZ 00510c00 f i Zenilib:zenilib.obj
 0002:0008fc50       ??1?$_List_ptr@U?$pair@$$CBKVSound_Buffer@Zeni@@@std@@V?$allocator@U?$pair@$$CBKVSound_Buffer@Zeni@@@std@@@2@@std@@QAE@XZ 00510c50 f i Zenilib:zenilib.obj
 0002:0008fca0       ??0?$_Iterator_with_base@Ubidirectional_iterator_tag@std@@PAVRadio_Button@Zeni@@HPBQAV34@ABQAV34@V_Iterator_base@2@@std@@QAE@XZ 00510ca0 f i Zenilib:zenilib.obj
 0002:0008fd00       ??0?$_Iterator_with_base@Ubidirectional_iterator_tag@std@@PAVWidget@Zeni@@HPBQAV34@ABQAV34@V_Iterator_base@2@@std@@QAE@XZ 00510d00 f i Zenilib:zenilib.obj
 0002:0008fd60       ??0?$_Iterator_with_base@Urandom_access_iterator_tag@std@@UChunk@Split_UDP_Socket@Zeni@@HPBU345@ABU345@V_Iterator_base@2@@std@@QAE@XZ 00510d60 f i Zenilib:zenilib.obj
 0002:0008fdc0       ??0?$_Iterator_with_base@Urandom_access_iterator_tag@std@@ULine@Text_Box@Zeni@@HPBU345@ABU345@V_Iterator_base@2@@std@@QAE@XZ 00510dc0 f i Zenilib:zenilib.obj
 0002:0008fe20       ??1?$_List_nod@U?$pair@$$CBV?$basic_string@DU?$char_traits@D@std@@V?$allocator@D@2@@std@@K@std@@V?$allocator@U?$pair@$$CBV?$basic_string@DU?$char_traits@D@std@@V?$allocator@D@2@@std@@K@std@@@2@@std@@QAE@XZ 00510e20 f i Zenilib:zenilib.obj
 0002:0008fe70       ??1?$_List_nod@U?$pair@$$CBKVColor@Zeni@@@std@@V?$allocator@U?$pair@$$CBKVColor@Zeni@@@std@@@2@@std@@QAE@XZ 00510e70 f i Zenilib:zenilib.obj
 0002:0008fec0       ??1?$_List_nod@U?$pair@$$CBKPAVFont@Zeni@@@std@@V?$allocator@U?$pair@$$CBKPAVFont@Zeni@@@std@@@2@@std@@QAE@XZ 00510ec0 f i Zenilib:zenilib.obj
 0002:0008ff10       ??1?$_List_nod@U?$pair@$$CBKPAVTexture@Zeni@@@std@@V?$allocator@U?$pair@$$CBKPAVTexture@Zeni@@@std@@@2@@std@@QAE@XZ 00510f10 f i Zenilib:zenilib.obj
 0002:0008ff60       ??0?$_Iterator_with_base@Urandom_access_iterator_tag@std@@PAUVertex_Buffer_Range@Vertex_Buffer@Zeni@@HPBQAU345@ABQAU345@V_Iterator_base@2@@std@@QAE@ABU01@@Z 00510f60 f i Zenilib:zenilib.obj
 0002:0008ffc0       ??1?$_Iterator_with_base@Urandom_access_iterator_tag@std@@PAUVertex_Buffer_Range@Vertex_Buffer@Zeni@@HPBQAU345@ABQAU345@V_Iterator_base@2@@std@@QAE@XZ 00510fc0 f i Zenilib:zenilib.obj
 0002:00090010       ??1?$_List_nod@U?$pair@$$CBKVSound_Buffer@Zeni@@@std@@V?$allocator@U?$pair@$$CBKVSound_Buffer@Zeni@@@std@@@2@@std@@QAE@XZ 00511010 f i Zenilib:zenilib.obj
 0002:00090060       ?_Make_iter@?$vector@PAU_SDL_Joystick@@V?$allocator@PAU_SDL_Joystick@@@std@@@std@@QBE?AV?$_Vector_iterator@PAU_SDL_Joystick@@V?$allocator@PAU_SDL_Joystick@@@std@@@2@V?$_Vector_const_iterator@PAU_SDL_Joystick@@V?$allocator@PAU_SDL_Joystick@@@std@@@2@@Z 00511060 f i Zenilib:zenilib.obj
 0002:00090130       ?_Buy@?$vector@PAU_SDL_Joystick@@V?$allocator@PAU_SDL_Joystick@@@std@@@std@@IAE_NI@Z 00511130 f i Zenilib:zenilib.obj
 0002:00090210       ?_Destroy@?$vector@PAU_SDL_Joystick@@V?$allocator@PAU_SDL_Joystick@@@std@@@std@@IAEXPAPAU_SDL_Joystick@@0@Z 00511210 f i Zenilib:zenilib.obj
 0002:00090280       ?_Insert_n@?$vector@PAU_SDL_Joystick@@V?$allocator@PAU_SDL_Joystick@@@std@@@std@@IAEXV?$_Vector_const_iterator@PAU_SDL_Joystick@@V?$allocator@PAU_SDL_Joystick@@@std@@@2@IABQAU_SDL_Joystick@@@Z 00511280 f i Zenilib:zenilib.obj
 0002:000907e0       ??0?$_Container_base_aux_alloc_empty@V?$allocator@PAU_SDL_Joystick@@@std@@@std@@IAE@V?$allocator@PAU_SDL_Joystick@@@1@@Z 005117e0 f i Zenilib:zenilib.obj
 0002:00090850       ??0?$allocator@PAU_SDL_Joystick@@@std@@QAE@ABV01@@Z 00511850 f i Zenilib:zenilib.obj
 0002:00090890       ?deallocate@?$allocator@PAU_SDL_Joystick@@@std@@QAEXPAPAU_SDL_Joystick@@I@Z 00511890 f i Zenilib:zenilib.obj
 0002:000908f0       ?_Get_iter_from_vec@?$_Hash@V?$_Hmap_traits@V?$basic_string@DU?$char_traits@D@std@@V?$allocator@D@2@@std@@KV?$hash_compare@V?$basic_string@DU?$char_traits@D@std@@V?$allocator@D@2@@std@@U?$less@V?$basic_string@DU?$char_traits@D@std@@V?$allocator@D@2@@std@@@2@@stdext@@V?$allocator@U?$pair@$$CBV?$basic_string@DU?$char_traits@D@std@@V?$allocator@D@2@@std@@K@std@@@2@$0A@@stdext@@@stdext@@QBE?AV?$_Iterator@$00@?$list@U?$pair@$$CBV?$basic_string@DU?$char_traits@D@std@@V?$allocator@D@2@@std@@K@std@@V?$allocator@U?$pair@$$CBV?$basic_string@DU?$char_traits@D@std@@V?$allocator@D@2@@std@@K@std@@@2@@std@@ABV345@@Z 005118f0 f i Zenilib:zenilib.obj
 0002:00090970       ?get_allocator@?$_Hash@V?$_Hmap_traits@V?$basic_string@DU?$char_traits@D@std@@V?$allocator@D@2@@std@@KV?$hash_compare@V?$basic_string@DU?$char_traits@D@std@@V?$allocator@D@2@@std@@U?$less@V?$basic_string@DU?$char_traits@D@std@@V?$allocator@D@2@@std@@@2@@stdext@@V?$allocator@U?$pair@$$CBV?$basic_string@DU?$char_traits@D@std@@V?$allocator@D@2@@std@@K@std@@@2@$0A@@stdext@@@stdext@@QBE?AV?$allocator@U?$pair@$$CBV?$basic_string@DU?$char_traits@D@std@@V?$allocator@D@2@@std@@K@std@@@std@@XZ 00511970 f i Zenilib:zenilib.obj
 0002:000909d0       ?_Copy@?$_Hash@V?$_Hmap_traits@V?$basic_string@DU?$char_traits@D@std@@V?$allocator@D@2@@std@@KV?$hash_compare@V?$basic_string@DU?$char_traits@D@std@@V?$allocator@D@2@@std@@U?$less@V?$basic_string@DU?$char_traits@D@std@@V?$allocator@D@2@@std@@@2@@stdext@@V?$allocator@U?$pair@$$CBV?$basic_string@DU?$char_traits@D@std@@V?$allocator@D@2@@std@@K@std@@@2@$0A@@stdext@@@stdext@@IAEXABV12@@Z 005119d0 f i Zenilib:zenilib.obj
 0002:00090e10       ?_Insert@?$_Hash@V?$_Hmap_traits@V?$basic_string@DU?$char_traits@D@std@@V?$allocator@D@2@@std@@KV?$hash_compare@V?$basic_string@DU?$char_traits@D@std@@V?$allocator@D@2@@std@@U?$less@V?$basic_string@DU?$char_traits@D@std@@V?$allocator@D@2@@std@@@2@@stdext@@V?$allocator@U?$pair@$$CBV?$basic_string@DU?$char_traits@D@std@@V?$allocator@D@2@@std@@K@std@@@2@$0A@@stdext@@@stdext@@IAE?AU?$pair@V?$_Iterator@$00@?$list@U?$pair@$$CBV?$basic_string@DU?$char_traits@D@std@@V?$allocator@D@2@@std@@K@std@@V?$allocator@U?$pair@$$CBV?$basic_string@DU?$char_traits@D@std@@V?$allocator@D@2@@std@@K@std@@@2@@std@@_N@std@@ABU?$pair@$$CBV?$basic_string@DU?$char_traits@D@std@@V?$allocator@D@2@@std@@K@4@V?$_Iterator@$00@?$list@U?$pair@$$CBV?$basic_string@DU?$char_traits@D@std@@V?$allocator@D@2@@std@@K@std@@V?$allocator@U?$pair@$$CBV?$basic_string@DU?$char_traits@D@std@@V?$allocator@D@2@@std@@K@std@@@2@@4@@Z 00511e10 f i Zenilib:zenilib.obj
 0002:00091400       ??0?$_Hmap_traits@V?$basic_string@DU?$char_traits@D@std@@V?$allocator@D@2@@std@@KV?$hash_compare@V?$basic_string@DU?$char_traits@D@std@@V?$allocator@D@2@@std@@U?$less@V?$basic_string@DU?$char_traits@D@std@@V?$allocator@D@2@@std@@@2@@stdext@@V?$allocator@U?$pair@$$CBV?$basic_string@DU?$char_traits@D@std@@V?$allocator@D@2@@std@@K@std@@@2@$0A@@stdext@@QAE@ABV?$hash_compare@V?$basic_string@DU?$char_traits@D@std@@V?$allocator@D@2@@std@@U?$less@V?$basic_string@DU?$char_traits@D@std@@V?$allocator@D@2@@std@@@2@@1@@Z 00512400 f i Zenilib:zenilib.obj
 0002:00091470       ??R?$hash_compare@V?$basic_string@DU?$char_traits@D@std@@V?$allocator@D@2@@std@@U?$less@V?$basic_string@DU?$char_traits@D@std@@V?$allocator@D@2@@std@@@2@@stdext@@QBEIABV?$basic_string@DU?$char_traits@D@std@@V?$allocator@D@2@@std@@@Z 00512470 f i Zenilib:zenilib.obj
 0002:00091580       ??R?$hash_compare@V?$basic_string@DU?$char_traits@D@std@@V?$allocator@D@2@@std@@U?$less@V?$basic_string@DU?$char_traits@D@std@@V?$allocator@D@2@@std@@@2@@stdext@@QBE_NABV?$basic_string@DU?$char_traits@D@std@@V?$allocator@D@2@@std@@0@Z 00512580 f i Zenilib:zenilib.obj
 0002:000915e0       ?_Nextnode@?$list@U?$pair@$$CBV?$basic_string@DU?$char_traits@D@std@@V?$allocator@D@2@@std@@K@std@@V?$allocator@U?$pair@$$CBV?$basic_string@DU?$char_traits@D@std@@V?$allocator@D@2@@std@@K@std@@@2@@std@@KAAAPAU_Node@?$_List_nod@U?$pair@$$CBV?$basic_string@DU?$char_traits@D@std@@V?$allocator@D@2@@std@@K@std@@V?$allocator@U?$pair@$$CBV?$basic_string@DU?$char_traits@D@std@@V?$allocator@D@2@@std@@K@std@@@2@@2@PAU342@@Z 005125e0 f i Zenilib:zenilib.obj
 0002:00091620       ?_Prevnode@?$list@U?$pair@$$CBV?$basic_string@DU?$char_traits@D@std@@V?$allocator@D@2@@std@@K@std@@V?$allocator@U?$pair@$$CBV?$basic_string@DU?$char_traits@D@std@@V?$allocator@D@2@@std@@K@std@@@2@@std@@KAAAPAU_Node@?$_List_nod@U?$pair@$$CBV?$basic_string@DU?$char_traits@D@std@@V?$allocator@D@2@@std@@K@std@@V?$allocator@U?$pair@$$CBV?$basic_string@DU?$char_traits@D@std@@V?$allocator@D@2@@std@@K@std@@@2@@2@PAU342@@Z 00512620 f i Zenilib:zenilib.obj
 0002:00091660       ?_Myval@?$list@U?$pair@$$CBV?$basic_string@DU?$char_traits@D@std@@V?$allocator@D@2@@std@@K@std@@V?$allocator@U?$pair@$$CBV?$basic_string@DU?$char_traits@D@std@@V?$allocator@D@2@@std@@K@std@@@2@@std@@KAAAU?$pair@$$CBV?$basic_string@DU?$char_traits@D@std@@V?$allocator@D@2@@std@@K@2@PAU_Node@?$_List_nod@U?$pair@$$CBV?$basic_string@DU?$char_traits@D@std@@V?$allocator@D@2@@std@@K@std@@V?$allocator@U?$pair@$$CBV?$basic_string@DU?$char_traits@D@std@@V?$allocator@D@2@@std@@K@std@@@2@@2@@Z 00512660 f i Zenilib:zenilib.obj
 0002:000916a0       ??0?$list@U?$pair@$$CBV?$basic_string@DU?$char_traits@D@std@@V?$allocator@D@2@@std@@K@std@@V?$allocator@U?$pair@$$CBV?$basic_string@DU?$char_traits@D@std@@V?$allocator@D@2@@std@@K@std@@@2@@std@@QAE@ABV?$allocator@U?$pair@$$CBV?$basic_string@DU?$char_traits@D@std@@V?$allocator@D@2@@std@@K@std@@@1@@Z 005126a0 f i Zenilib:zenilib.obj
 0002:00091770       ?_Make_iter@?$list@U?$pair@$$CBV?$basic_string@DU?$char_traits@D@std@@V?$allocator@D@2@@std@@K@std@@V?$allocator@U?$pair@$$CBV?$basic_string@DU?$char_traits@D@std@@V?$allocator@D@2@@std@@K@std@@@2@@std@@QBE?AV?$_Iterator@$00@12@V?$_Const_iterator@$00@12@@Z 00512770 f i Zenilib:zenilib.obj
 0002:00091840       ?_Tidy@?$list@U?$pair@$$CBV?$basic_string@DU?$char_traits@D@std@@V?$allocator@D@2@@std@@K@std@@V?$allocator@U?$pair@$$CBV?$basic_string@DU?$char_traits@D@std@@V?$allocator@D@2@@std@@K@std@@@2@@std@@IAEXXZ 00512840 f i Zenilib:zenilib.obj
 0002:00091900       ?_Orphan_ptr@?$list@U?$pair@$$CBV?$basic_string@DU?$char_traits@D@std@@V?$allocator@D@2@@std@@K@std@@V?$allocator@U?$pair@$$CBV?$basic_string@DU?$char_traits@D@std@@V?$allocator@D@2@@std@@K@std@@@2@@std@@IBEXAAV12@PAU_Node@?$_List_nod@U?$pair@$$CBV?$basic_string@DU?$char_traits@D@std@@V?$allocator@D@2@@std@@K@std@@V?$allocator@U?$pair@$$CBV?$basic_string@DU?$char_traits@D@std@@V?$allocator@D@2@@std@@K@std@@@2@@2@@Z 00512900 f i Zenilib:zenilib.obj
 0002:00091a20       ??1?$_Container_base_aux_alloc_empty@V?$allocator@U?$pair@$$CBV?$basic_string@DU?$char_traits@D@std@@V?$allocator@D@2@@std@@K@std@@@std@@@std@@IAE@XZ 00512a20 f i Zenilib:zenilib.obj
 0002:00091a80       ?deallocate@?$allocator@U_Node@?$_List_nod@U?$pair@$$CBV?$basic_string@DU?$char_traits@D@std@@V?$allocator@D@2@@std@@K@std@@V?$allocator@U?$pair@$$CBV?$basic_string@DU?$char_traits@D@std@@V?$allocator@D@2@@std@@K@std@@@2@@std@@@std@@QAEXPAU_Node@?$_List_nod@U?$pair@$$CBV?$basic_string@DU?$char_traits@D@std@@V?$allocator@D@2@@std@@K@std@@V?$allocator@U?$pair@$$CBV?$basic_string@DU?$char_traits@D@std@@V?$allocator@D@2@@std@@K@std@@@2@@2@I@Z 00512a80 f i Zenilib:zenilib.obj
 0002:00091ae0       ?destroy@?$allocator@U_Node@?$_List_nod@U?$pair@$$CBV?$basic_string@DU?$char_traits@D@std@@V?$allocator@D@2@@std@@K@std@@V?$allocator@U?$pair@$$CBV?$basic_string@DU?$char_traits@D@std@@V?$allocator@D@2@@std@@K@std@@@2@@std@@@std@@QAEXPAU_Node@?$_List_nod@U?$pair@$$CBV?$basic_string@DU?$char_traits@D@std@@V?$allocator@D@2@@std@@K@std@@V?$allocator@U?$pair@$$CBV?$basic_string@DU?$char_traits@D@std@@V?$allocator@D@2@@std@@K@std@@@2@@2@@Z 00512ae0 f i Zenilib:zenilib.obj
 0002:00091b40       ??0?$vector@V?$_Iterator@$00@?$list@U?$pair@$$CBV?$basic_string@DU?$char_traits@D@std@@V?$allocator@D@2@@std@@K@std@@V?$allocator@U?$pair@$$CBV?$basic_string@DU?$char_traits@D@std@@V?$allocator@D@2@@std@@K@std@@@2@@std@@V?$allocator@V?$_Iterator@$00@?$list@U?$pair@$$CBV?$basic_string@DU?$char_traits@D@std@@V?$allocator@D@2@@std@@K@std@@V?$allocator@U?$pair@$$CBV?$basic_string@DU?$char_traits@D@std@@V?$allocator@D@2@@std@@K@std@@@2@@std@@@3@@std@@QAE@ABV?$allocator@V?$_Iterator@$00@?$list@U?$pair@$$CBV?$basic_string@DU?$char_traits@D@std@@V?$allocator@D@2@@std@@K@std@@V?$allocator@U?$pair@$$CBV?$basic_string@DU?$char_traits@D@std@@V?$allocator@D@2@@std@@K@std@@@2@@std@@@1@@Z 00512b40 f i Zenilib:zenilib.obj
 0002:00091c00       ?size@?$vector@V?$_Iterator@$00@?$list@U?$pair@$$CBV?$basic_string@DU?$char_traits@D@std@@V?$allocator@D@2@@std@@K@std@@V?$allocator@U?$pair@$$CBV?$basic_string@DU?$char_traits@D@std@@V?$allocator@D@2@@std@@K@std@@@2@@std@@V?$allocator@V?$_Iterator@$00@?$list@U?$pair@$$CBV?$basic_string@DU?$char_traits@D@std@@V?$allocator@D@2@@std@@K@std@@V?$allocator@U?$pair@$$CBV?$basic_string@DU?$char_traits@D@std@@V?$allocator@D@2@@std@@K@std@@@2@@std@@@3@@std@@QBEIXZ 00512c00 f i Zenilib:zenilib.obj
 0002:00091c50       ??A?$vector@V?$_Iterator@$00@?$list@U?$pair@$$CBV?$basic_string@DU?$char_traits@D@std@@V?$allocator@D@2@@std@@K@std@@V?$allocator@U?$pair@$$CBV?$basic_string@DU?$char_traits@D@std@@V?$allocator@D@2@@std@@K@std@@@2@@std@@V?$allocator@V?$_Iterator@$00@?$list@U?$pair@$$CBV?$basic_string@DU?$char_traits@D@std@@V?$allocator@D@2@@std@@K@std@@V?$allocator@U?$pair@$$CBV?$basic_string@DU?$char_traits@D@std@@V?$allocator@D@2@@std@@K@std@@@2@@std@@@3@@std@@QBEABV?$_Iterator@$00@?$list@U?$pair@$$CBV?$basic_string@DU?$char_traits@D@std@@V?$allocator@D@2@@std@@K@std@@V?$allocator@U?$pair@$$CBV?$basic_string@DU?$char_traits@D@std@@V?$allocator@D@2@@std@@K@std@@@2@@1@I@Z 00512c50 f i Zenilib:zenilib.obj
 0002:00091dd0       ?assign@?$vector@V?$_Iterator@$00@?$list@U?$pair@$$CBV?$basic_string@DU?$char_traits@D@std@@V?$allocator@D@2@@std@@K@std@@V?$allocator@U?$pair@$$CBV?$basic_string@DU?$char_traits@D@std@@V?$allocator@D@2@@std@@K@std@@@2@@std@@V?$allocator@V?$_Iterator@$00@?$list@U?$pair@$$CBV?$basic_string@DU?$char_traits@D@std@@V?$allocator@D@2@@std@@K@std@@V?$allocator@U?$pair@$$CBV?$basic_string@DU?$char_traits@D@std@@V?$allocator@D@2@@std@@K@std@@@2@@std@@@3@@std@@QAEXIABV?$_Iterator@$00@?$list@U?$pair@$$CBV?$basic_string@DU?$char_traits@D@std@@V?$allocator@D@2@@std@@K@std@@V?$allocator@U?$pair@$$CBV?$basic_string@DU?$char_traits@D@std@@V?$allocator@D@2@@std@@K@std@@@2@@2@@Z 00512dd0 f i Zenilib:zenilib.obj
 0002:00091e30       ?_Tidy@?$vector@V?$_Iterator@$00@?$list@U?$pair@$$CBV?$basic_string@DU?$char_traits@D@std@@V?$allocator@D@2@@std@@K@std@@V?$allocator@U?$pair@$$CBV?$basic_string@DU?$char_traits@D@std@@V?$allocator@D@2@@std@@K@std@@@2@@std@@V?$allocator@V?$_Iterator@$00@?$list@U?$pair@$$CBV?$basic_string@DU?$char_traits@D@std@@V?$allocator@D@2@@std@@K@std@@V?$allocator@U?$pair@$$CBV?$basic_string@DU?$char_traits@D@std@@V?$allocator@D@2@@std@@K@std@@@2@@std@@@3@@std@@IAEXXZ 00512e30 f i Zenilib:zenilib.obj
 0002:00091f10       ??1?$_Container_base_aux_alloc_empty@V?$allocator@V?$_Iterator@$00@?$list@U?$pair@$$CBV?$basic_string@DU?$char_traits@D@std@@V?$allocator@D@2@@std@@K@std@@V?$allocator@U?$pair@$$CBV?$basic_string@DU?$char_traits@D@std@@V?$allocator@D@2@@std@@K@std@@@2@@std@@@std@@@std@@IAE@XZ 00512f10 f i Zenilib:zenilib.obj
 0002:00091f70       ?_Get_iter_from_vec@?$_Hash@V?$_Hmap_traits@KVColor@Zeni@@V?$hash_compare@KU?$less@K@std@@@stdext@@V?$allocator@U?$pair@$$CBKVColor@Zeni@@@std@@@std@@$0A@@stdext@@@stdext@@QBE?AV?$_Iterator@$00@?$list@U?$pair@$$CBKVColor@Zeni@@@std@@V?$allocator@U?$pair@$$CBKVColor@Zeni@@@std@@@2@@std@@ABV345@@Z 00512f70 f i Zenilib:zenilib.obj
 0002:00091ff0       ?begin@?$_Hash@V?$_Hmap_traits@KVColor@Zeni@@V?$hash_compare@KU?$less@K@std@@@stdext@@V?$allocator@U?$pair@$$CBKVColor@Zeni@@@std@@@std@@$0A@@stdext@@@stdext@@QAE?AV?$_Iterator@$00@?$list@U?$pair@$$CBKVColor@Zeni@@@std@@V?$allocator@U?$pair@$$CBKVColor@Zeni@@@std@@@2@@std@@XZ 00512ff0 f i Zenilib:zenilib.obj
 0002:00092070       ?erase@?$_Hash@V?$_Hmap_traits@KVColor@Zeni@@V?$hash_compare@KU?$less@K@std@@@stdext@@V?$allocator@U?$pair@$$CBKVColor@Zeni@@@std@@@std@@$0A@@stdext@@@stdext@@QAE?AV?$_Iterator@$00@?$list@U?$pair@$$CBKVColor@Zeni@@@std@@V?$allocator@U?$pair@$$CBKVColor@Zeni@@@std@@@2@@std@@V?$_Const_iterator@$00@45@@Z 00513070 f i Zenilib:zenilib.obj
 0002:000921f0       ?_Hashval@?$_Hash@V?$_Hmap_traits@KVColor@Zeni@@V?$hash_compare@KU?$less@K@std@@@stdext@@V?$allocator@U?$pair@$$CBKVColor@Zeni@@@std@@@std@@$0A@@stdext@@@stdext@@IBEIABK@Z 005131f0 f i Zenilib:zenilib.obj
 0002:00092280       ?_Insert@?$_Hash@V?$_Hmap_traits@KVColor@Zeni@@V?$hash_compare@KU?$less@K@std@@@stdext@@V?$allocator@U?$pair@$$CBKVColor@Zeni@@@std@@@std@@$0A@@stdext@@@stdext@@IAE?AU?$pair@V?$_Iterator@$00@?$list@U?$pair@$$CBKVColor@Zeni@@@std@@V?$allocator@U?$pair@$$CBKVColor@Zeni@@@std@@@2@@std@@_N@std@@ABU?$pair@$$CBKVColor@Zeni@@@4@V?$_Iterator@$00@?$list@U?$pair@$$CBKVColor@Zeni@@@std@@V?$allocator@U?$pair@$$CBKVColor@Zeni@@@std@@@2@@4@@Z 00513280 f i Zenilib:zenilib.obj
 0002:00092870       ??0?$_Hmap_traits@KVColor@Zeni@@V?$hash_compare@KU?$less@K@std@@@stdext@@V?$allocator@U?$pair@$$CBKVColor@Zeni@@@std@@@std@@$0A@@stdext@@QAE@ABV?$hash_compare@KU?$less@K@std@@@1@@Z 00513870 f i Zenilib:zenilib.obj
 0002:000928e0       ?_Kfn@?$_Hmap_traits@KVColor@Zeni@@V?$hash_compare@KU?$less@K@std@@@stdext@@V?$allocator@U?$pair@$$CBKVColor@Zeni@@@std@@@std@@$0A@@stdext@@SAABKABU?$pair@$$CBKVColor@Zeni@@@std@@@Z 005138e0 f i Zenilib:zenilib.obj
 0002:00092920       ??R?$hash_compare@KU?$less@K@std@@@stdext@@QBEIABK@Z 00513920 f i Zenilib:zenilib.obj
 0002:00092a30       ??R?$hash_compare@KU?$less@K@std@@@stdext@@QBE_NABK0@Z 00513a30 f i Zenilib:zenilib.obj
 0002:00092a90       ?_Nextnode@?$list@U?$pair@$$CBKVColor@Zeni@@@std@@V?$allocator@U?$pair@$$CBKVColor@Zeni@@@std@@@2@@std@@KAAAPAU_Node@?$_List_nod@U?$pair@$$CBKVColor@Zeni@@@std@@V?$allocator@U?$pair@$$CBKVColor@Zeni@@@std@@@2@@2@PAU342@@Z 00513a90 f i Zenilib:zenilib.obj
 0002:00092ad0       ?_Prevnode@?$list@U?$pair@$$CBKVColor@Zeni@@@std@@V?$allocator@U?$pair@$$CBKVColor@Zeni@@@std@@@2@@std@@KAAAPAU_Node@?$_List_nod@U?$pair@$$CBKVColor@Zeni@@@std@@V?$allocator@U?$pair@$$CBKVColor@Zeni@@@std@@@2@@2@PAU342@@Z 00513ad0 f i Zenilib:zenilib.obj
 0002:00092b10       ?_Myval@?$list@U?$pair@$$CBKVColor@Zeni@@@std@@V?$allocator@U?$pair@$$CBKVColor@Zeni@@@std@@@2@@std@@KAAAU?$pair@$$CBKVColor@Zeni@@@2@PAU_Node@?$_List_nod@U?$pair@$$CBKVColor@Zeni@@@std@@V?$allocator@U?$pair@$$CBKVColor@Zeni@@@std@@@2@@2@@Z 00513b10 f i Zenilib:zenilib.obj
 0002:00092b50       ??0?$list@U?$pair@$$CBKVColor@Zeni@@@std@@V?$allocator@U?$pair@$$CBKVColor@Zeni@@@std@@@2@@std@@QAE@ABV?$allocator@U?$pair@$$CBKVColor@Zeni@@@std@@@1@@Z 00513b50 f i Zenilib:zenilib.obj
 0002:00092c20       ?end@?$list@U?$pair@$$CBKVColor@Zeni@@@std@@V?$allocator@U?$pair@$$CBKVColor@Zeni@@@std@@@2@@std@@QAE?AV?$_Iterator@$00@12@XZ 00513c20 f i Zenilib:zenilib.obj
 0002:00092cb0       ?_Make_iter@?$list@U?$pair@$$CBKVColor@Zeni@@@std@@V?$allocator@U?$pair@$$CBKVColor@Zeni@@@std@@@2@@std@@QBE?AV?$_Iterator@$00@12@V?$_Const_iterator@$00@12@@Z 00513cb0 f i Zenilib:zenilib.obj
 0002:00092d80       ?_Tidy@?$list@U?$pair@$$CBKVColor@Zeni@@@std@@V?$allocator@U?$pair@$$CBKVColor@Zeni@@@std@@@2@@std@@IAEXXZ 00513d80 f i Zenilib:zenilib.obj
 0002:00092e40       ?_Orphan_ptr@?$list@U?$pair@$$CBKVColor@Zeni@@@std@@V?$allocator@U?$pair@$$CBKVColor@Zeni@@@std@@@2@@std@@IBEXAAV12@PAU_Node@?$_List_nod@U?$pair@$$CBKVColor@Zeni@@@std@@V?$allocator@U?$pair@$$CBKVColor@Zeni@@@std@@@2@@2@@Z 00513e40 f i Zenilib:zenilib.obj
 0002:00092f60       ??1?$_Container_base_aux_alloc_empty@V?$allocator@U?$pair@$$CBKVColor@Zeni@@@std@@@std@@@std@@IAE@XZ 00513f60 f i Zenilib:zenilib.obj
 0002:00092fc0       ?deallocate@?$allocator@U_Node@?$_List_nod@U?$pair@$$CBKVColor@Zeni@@@std@@V?$allocator@U?$pair@$$CBKVColor@Zeni@@@std@@@2@@std@@@std@@QAEXPAU_Node@?$_List_nod@U?$pair@$$CBKVColor@Zeni@@@std@@V?$allocator@U?$pair@$$CBKVColor@Zeni@@@std@@@2@@2@I@Z 00513fc0 f i Zenilib:zenilib.obj
 0002:00093020       ?destroy@?$allocator@U_Node@?$_List_nod@U?$pair@$$CBKVColor@Zeni@@@std@@V?$allocator@U?$pair@$$CBKVColor@Zeni@@@std@@@2@@std@@@std@@QAEXPAU_Node@?$_List_nod@U?$pair@$$CBKVColor@Zeni@@@std@@V?$allocator@U?$pair@$$CBKVColor@Zeni@@@std@@@2@@2@@Z 00514020 f i Zenilib:zenilib.obj
 0002:00093080       ??0?$vector@V?$_Iterator@$00@?$list@U?$pair@$$CBKVColor@Zeni@@@std@@V?$allocator@U?$pair@$$CBKVColor@Zeni@@@std@@@2@@std@@V?$allocator@V?$_Iterator@$00@?$list@U?$pair@$$CBKVColor@Zeni@@@std@@V?$allocator@U?$pair@$$CBKVColor@Zeni@@@std@@@2@@std@@@3@@std@@QAE@ABV?$allocator@V?$_Iterator@$00@?$list@U?$pair@$$CBKVColor@Zeni@@@std@@V?$allocator@U?$pair@$$CBKVColor@Zeni@@@std@@@2@@std@@@1@@Z 00514080 f i Zenilib:zenilib.obj
 0002:00093140       ??A?$vector@V?$_Iterator@$00@?$list@U?$pair@$$CBKVColor@Zeni@@@std@@V?$allocator@U?$pair@$$CBKVColor@Zeni@@@std@@@2@@std@@V?$allocator@V?$_Iterator@$00@?$list@U?$pair@$$CBKVColor@Zeni@@@std@@V?$allocator@U?$pair@$$CBKVColor@Zeni@@@std@@@2@@std@@@3@@std@@QBEABV?$_Iterator@$00@?$list@U?$pair@$$CBKVColor@Zeni@@@std@@V?$allocator@U?$pair@$$CBKVColor@Zeni@@@std@@@2@@1@I@Z 00514140 f i Zenilib:zenilib.obj
 0002:000932c0       ??A?$vector@V?$_Iterator@$00@?$list@U?$pair@$$CBKVColor@Zeni@@@std@@V?$allocator@U?$pair@$$CBKVColor@Zeni@@@std@@@2@@std@@V?$allocator@V?$_Iterator@$00@?$list@U?$pair@$$CBKVColor@Zeni@@@std@@V?$allocator@U?$pair@$$CBKVColor@Zeni@@@std@@@2@@std@@@3@@std@@QAEAAV?$_Iterator@$00@?$list@U?$pair@$$CBKVColor@Zeni@@@std@@V?$allocator@U?$pair@$$CBKVColor@Zeni@@@std@@@2@@1@I@Z 005142c0 f i Zenilib:zenilib.obj
 0002:00093440       ?assign@?$vector@V?$_Iterator@$00@?$list@U?$pair@$$CBKVColor@Zeni@@@std@@V?$allocator@U?$pair@$$CBKVColor@Zeni@@@std@@@2@@std@@V?$allocator@V?$_Iterator@$00@?$list@U?$pair@$$CBKVColor@Zeni@@@std@@V?$allocator@U?$pair@$$CBKVColor@Zeni@@@std@@@2@@std@@@3@@std@@QAEXIABV?$_Iterator@$00@?$list@U?$pair@$$CBKVColor@Zeni@@@std@@V?$allocator@U?$pair@$$CBKVColor@Zeni@@@std@@@2@@2@@Z 00514440 f i Zenilib:zenilib.obj
 0002:000934a0       ?_Tidy@?$vector@V?$_Iterator@$00@?$list@U?$pair@$$CBKVColor@Zeni@@@std@@V?$allocator@U?$pair@$$CBKVColor@Zeni@@@std@@@2@@std@@V?$allocator@V?$_Iterator@$00@?$list@U?$pair@$$CBKVColor@Zeni@@@std@@V?$allocator@U?$pair@$$CBKVColor@Zeni@@@std@@@2@@std@@@3@@std@@IAEXXZ 005144a0 f i Zenilib:zenilib.obj
 0002:00093580       ??1?$_Container_base_aux_alloc_empty@V?$allocator@V?$_Iterator@$00@?$list@U?$pair@$$CBKVColor@Zeni@@@std@@V?$allocator@U?$pair@$$CBKVColor@Zeni@@@std@@@2@@std@@@std@@@std@@IAE@XZ 00514580 f i Zenilib:zenilib.obj
 0002:000935e0       ?_Get_iter_from_vec@?$_Hash@V?$_Hmap_traits@KPAVFont@Zeni@@V?$hash_compare@KU?$less@K@std@@@stdext@@V?$allocator@U?$pair@$$CBKPAVFont@Zeni@@@std@@@std@@$0A@@stdext@@@stdext@@QBE?AV?$_Iterator@$00@?$list@U?$pair@$$CBKPAVFont@Zeni@@@std@@V?$allocator@U?$pair@$$CBKPAVFont@Zeni@@@std@@@2@@std@@ABV345@@Z 005145e0 f i Zenilib:zenilib.obj
 0002:00093660       ?_Insert@?$_Hash@V?$_Hmap_traits@KPAVFont@Zeni@@V?$hash_compare@KU?$less@K@std@@@stdext@@V?$allocator@U?$pair@$$CBKPAVFont@Zeni@@@std@@@std@@$0A@@stdext@@@stdext@@IAE?AU?$pair@V?$_Iterator@$00@?$list@U?$pair@$$CBKPAVFont@Zeni@@@std@@V?$allocator@U?$pair@$$CBKPAVFont@Zeni@@@std@@@2@@std@@_N@std@@ABU?$pair@$$CBKPAVFont@Zeni@@@4@V?$_Iterator@$00@?$list@U?$pair@$$CBKPAVFont@Zeni@@@std@@V?$allocator@U?$pair@$$CBKPAVFont@Zeni@@@std@@@2@@4@@Z 00514660 f i Zenilib:zenilib.obj
 0002:00093c50       ??0?$_Hmap_traits@KPAVFont@Zeni@@V?$hash_compare@KU?$less@K@std@@@stdext@@V?$allocator@U?$pair@$$CBKPAVFont@Zeni@@@std@@@std@@$0A@@stdext@@QAE@ABV?$hash_compare@KU?$less@K@std@@@1@@Z 00514c50 f i Zenilib:zenilib.obj
 0002:00093cc0       ?_Nextnode@?$list@U?$pair@$$CBKPAVFont@Zeni@@@std@@V?$allocator@U?$pair@$$CBKPAVFont@Zeni@@@std@@@2@@std@@KAAAPAU_Node@?$_List_nod@U?$pair@$$CBKPAVFont@Zeni@@@std@@V?$allocator@U?$pair@$$CBKPAVFont@Zeni@@@std@@@2@@2@PAU342@@Z 00514cc0 f i Zenilib:zenilib.obj
 0002:00093d00       ?_Prevnode@?$list@U?$pair@$$CBKPAVFont@Zeni@@@std@@V?$allocator@U?$pair@$$CBKPAVFont@Zeni@@@std@@@2@@std@@KAAAPAU_Node@?$_List_nod@U?$pair@$$CBKPAVFont@Zeni@@@std@@V?$allocator@U?$pair@$$CBKPAVFont@Zeni@@@std@@@2@@2@PAU342@@Z 00514d00 f i Zenilib:zenilib.obj
 0002:00093d40       ?_Myval@?$list@U?$pair@$$CBKPAVFont@Zeni@@@std@@V?$allocator@U?$pair@$$CBKPAVFont@Zeni@@@std@@@2@@std@@KAAAU?$pair@$$CBKPAVFont@Zeni@@@2@PAU_Node@?$_List_nod@U?$pair@$$CBKPAVFont@Zeni@@@std@@V?$allocator@U?$pair@$$CBKPAVFont@Zeni@@@std@@@2@@2@@Z 00514d40 f i Zenilib:zenilib.obj
 0002:00093d80       ??0?$list@U?$pair@$$CBKPAVFont@Zeni@@@std@@V?$allocator@U?$pair@$$CBKPAVFont@Zeni@@@std@@@2@@std@@QAE@ABV?$allocator@U?$pair@$$CBKPAVFont@Zeni@@@std@@@1@@Z 00514d80 f i Zenilib:zenilib.obj
 0002:00093e50       ?_Make_iter@?$list@U?$pair@$$CBKPAVFont@Zeni@@@std@@V?$allocator@U?$pair@$$CBKPAVFont@Zeni@@@std@@@2@@std@@QBE?AV?$_Iterator@$00@12@V?$_Const_iterator@$00@12@@Z 00514e50 f i Zenilib:zenilib.obj
 0002:00093f20       ?_Tidy@?$list@U?$pair@$$CBKPAVFont@Zeni@@@std@@V?$allocator@U?$pair@$$CBKPAVFont@Zeni@@@std@@@2@@std@@IAEXXZ 00514f20 f i Zenilib:zenilib.obj
 0002:00093fe0       ?_Orphan_ptr@?$list@U?$pair@$$CBKPAVFont@Zeni@@@std@@V?$allocator@U?$pair@$$CBKPAVFont@Zeni@@@std@@@2@@std@@IBEXAAV12@PAU_Node@?$_List_nod@U?$pair@$$CBKPAVFont@Zeni@@@std@@V?$allocator@U?$pair@$$CBKPAVFont@Zeni@@@std@@@2@@2@@Z 00514fe0 f i Zenilib:zenilib.obj
 0002:00094100       ??1?$_Container_base_aux_alloc_empty@V?$allocator@U?$pair@$$CBKPAVFont@Zeni@@@std@@@std@@@std@@IAE@XZ 00515100 f i Zenilib:zenilib.obj
 0002:00094160       ?deallocate@?$allocator@U_Node@?$_List_nod@U?$pair@$$CBKPAVFont@Zeni@@@std@@V?$allocator@U?$pair@$$CBKPAVFont@Zeni@@@std@@@2@@std@@@std@@QAEXPAU_Node@?$_List_nod@U?$pair@$$CBKPAVFont@Zeni@@@std@@V?$allocator@U?$pair@$$CBKPAVFont@Zeni@@@std@@@2@@2@I@Z 00515160 f i Zenilib:zenilib.obj
 0002:000941c0       ?destroy@?$allocator@U_Node@?$_List_nod@U?$pair@$$CBKPAVFont@Zeni@@@std@@V?$allocator@U?$pair@$$CBKPAVFont@Zeni@@@std@@@2@@std@@@std@@QAEXPAU_Node@?$_List_nod@U?$pair@$$CBKPAVFont@Zeni@@@std@@V?$allocator@U?$pair@$$CBKPAVFont@Zeni@@@std@@@2@@2@@Z 005151c0 f i Zenilib:zenilib.obj
 0002:00094220       ??0?$vector@V?$_Iterator@$00@?$list@U?$pair@$$CBKPAVFont@Zeni@@@std@@V?$allocator@U?$pair@$$CBKPAVFont@Zeni@@@std@@@2@@std@@V?$allocator@V?$_Iterator@$00@?$list@U?$pair@$$CBKPAVFont@Zeni@@@std@@V?$allocator@U?$pair@$$CBKPAVFont@Zeni@@@std@@@2@@std@@@3@@std@@QAE@ABV?$allocator@V?$_Iterator@$00@?$list@U?$pair@$$CBKPAVFont@Zeni@@@std@@V?$allocator@U?$pair@$$CBKPAVFont@Zeni@@@std@@@2@@std@@@1@@Z 00515220 f i Zenilib:zenilib.obj
 0002:000942e0       ?size@?$vector@V?$_Iterator@$00@?$list@U?$pair@$$CBKPAVFont@Zeni@@@std@@V?$allocator@U?$pair@$$CBKPAVFont@Zeni@@@std@@@2@@std@@V?$allocator@V?$_Iterator@$00@?$list@U?$pair@$$CBKPAVFont@Zeni@@@std@@V?$allocator@U?$pair@$$CBKPAVFont@Zeni@@@std@@@2@@std@@@3@@std@@QBEIXZ 005152e0 f i Zenilib:zenilib.obj
 0002:00094330       ??A?$vector@V?$_Iterator@$00@?$list@U?$pair@$$CBKPAVFont@Zeni@@@std@@V?$allocator@U?$pair@$$CBKPAVFont@Zeni@@@std@@@2@@std@@V?$allocator@V?$_Iterator@$00@?$list@U?$pair@$$CBKPAVFont@Zeni@@@std@@V?$allocator@U?$pair@$$CBKPAVFont@Zeni@@@std@@@2@@std@@@3@@std@@QBEABV?$_Iterator@$00@?$list@U?$pair@$$CBKPAVFont@Zeni@@@std@@V?$allocator@U?$pair@$$CBKPAVFont@Zeni@@@std@@@2@@1@I@Z 00515330 f i Zenilib:zenilib.obj
 0002:000944b0       ?assign@?$vector@V?$_Iterator@$00@?$list@U?$pair@$$CBKPAVFont@Zeni@@@std@@V?$allocator@U?$pair@$$CBKPAVFont@Zeni@@@std@@@2@@std@@V?$allocator@V?$_Iterator@$00@?$list@U?$pair@$$CBKPAVFont@Zeni@@@std@@V?$allocator@U?$pair@$$CBKPAVFont@Zeni@@@std@@@2@@std@@@3@@std@@QAEXIABV?$_Iterator@$00@?$list@U?$pair@$$CBKPAVFont@Zeni@@@std@@V?$allocator@U?$pair@$$CBKPAVFont@Zeni@@@std@@@2@@2@@Z 005154b0 f i Zenilib:zenilib.obj
 0002:00094510       ?_Tidy@?$vector@V?$_Iterator@$00@?$list@U?$pair@$$CBKPAVFont@Zeni@@@std@@V?$allocator@U?$pair@$$CBKPAVFont@Zeni@@@std@@@2@@std@@V?$allocator@V?$_Iterator@$00@?$list@U?$pair@$$CBKPAVFont@Zeni@@@std@@V?$allocator@U?$pair@$$CBKPAVFont@Zeni@@@std@@@2@@std@@@3@@std@@IAEXXZ 00515510 f i Zenilib:zenilib.obj
 0002:000945f0       ??1?$_Container_base_aux_alloc_empty@V?$allocator@V?$_Iterator@$00@?$list@U?$pair@$$CBKPAVFont@Zeni@@@std@@V?$allocator@U?$pair@$$CBKPAVFont@Zeni@@@std@@@2@@std@@@std@@@std@@IAE@XZ 005155f0 f i Zenilib:zenilib.obj
 0002:00094650       ?_Isnil@?$_Tree@V?$_Tmap_traits@UZeni_Input_ID@Zeni@@HU?$less@UZeni_Input_ID@Zeni@@@std@@V?$allocator@U?$pair@$$CBUZeni_Input_ID@Zeni@@H@std@@@4@$0A@@std@@@std@@KAAADPAU_Node@?$_Tree_nod@V?$_Tmap_traits@UZeni_Input_ID@Zeni@@HU?$less@UZeni_Input_ID@Zeni@@@std@@V?$allocator@U?$pair@$$CBUZeni_Input_ID@Zeni@@H@std@@@4@$0A@@std@@@2@@Z 00515650 f i Zenilib:zenilib.obj
 0002:00094690       ?_Left@?$_Tree@V?$_Tmap_traits@UZeni_Input_ID@Zeni@@HU?$less@UZeni_Input_ID@Zeni@@@std@@V?$allocator@U?$pair@$$CBUZeni_Input_ID@Zeni@@H@std@@@4@$0A@@std@@@std@@KAAAPAU_Node@?$_Tree_nod@V?$_Tmap_traits@UZeni_Input_ID@Zeni@@HU?$less@UZeni_Input_ID@Zeni@@@std@@V?$allocator@U?$pair@$$CBUZeni_Input_ID@Zeni@@H@std@@@4@$0A@@std@@@2@PAU342@@Z 00515690 f i Zenilib:zenilib.obj
 0002:000946d0       ?_Parent@?$_Tree@V?$_Tmap_traits@UZeni_Input_ID@Zeni@@HU?$less@UZeni_Input_ID@Zeni@@@std@@V?$allocator@U?$pair@$$CBUZeni_Input_ID@Zeni@@H@std@@@4@$0A@@std@@@std@@KAAAPAU_Node@?$_Tree_nod@V?$_Tmap_traits@UZeni_Input_ID@Zeni@@HU?$less@UZeni_Input_ID@Zeni@@@std@@V?$allocator@U?$pair@$$CBUZeni_Input_ID@Zeni@@H@std@@@4@$0A@@std@@@2@PAU342@@Z 005156d0 f i Zenilib:zenilib.obj
 0002:00094710       ?_Right@?$_Tree@V?$_Tmap_traits@UZeni_Input_ID@Zeni@@HU?$less@UZeni_Input_ID@Zeni@@@std@@V?$allocator@U?$pair@$$CBUZeni_Input_ID@Zeni@@H@std@@@4@$0A@@std@@@std@@KAAAPAU_Node@?$_Tree_nod@V?$_Tmap_traits@UZeni_Input_ID@Zeni@@HU?$less@UZeni_Input_ID@Zeni@@@std@@V?$allocator@U?$pair@$$CBUZeni_Input_ID@Zeni@@H@std@@@4@$0A@@std@@@2@PAU342@@Z 00515710 f i Zenilib:zenilib.obj
 0002:00094750       ?_Myval@?$_Tree@V?$_Tmap_traits@UZeni_Input_ID@Zeni@@HU?$less@UZeni_Input_ID@Zeni@@@std@@V?$allocator@U?$pair@$$CBUZeni_Input_ID@Zeni@@H@std@@@4@$0A@@std@@@std@@KAAAU?$pair@$$CBUZeni_Input_ID@Zeni@@H@2@PAU_Node@?$_Tree_nod@V?$_Tmap_traits@UZeni_Input_ID@Zeni@@HU?$less@UZeni_Input_ID@Zeni@@@std@@V?$allocator@U?$pair@$$CBUZeni_Input_ID@Zeni@@H@std@@@4@$0A@@std@@@2@@Z 00515750 f i Zenilib:zenilib.obj
 0002:00094790       ?begin@?$_Tree@V?$_Tmap_traits@UZeni_Input_ID@Zeni@@HU?$less@UZeni_Input_ID@Zeni@@@std@@V?$allocator@U?$pair@$$CBUZeni_Input_ID@Zeni@@H@std@@@4@$0A@@std@@@std@@QAE?AViterator@12@XZ 00515790 f i Zenilib:zenilib.obj
 0002:00094820       ?size@?$_Tree@V?$_Tmap_traits@UZeni_Input_ID@Zeni@@HU?$less@UZeni_Input_ID@Zeni@@@std@@V?$allocator@U?$pair@$$CBUZeni_Input_ID@Zeni@@H@std@@@4@$0A@@std@@@std@@QBEIXZ 00515820 f i Zenilib:zenilib.obj
 0002:00094860       ?insert@?$_Tree@V?$_Tmap_traits@UZeni_Input_ID@Zeni@@HU?$less@UZeni_Input_ID@Zeni@@@std@@V?$allocator@U?$pair@$$CBUZeni_Input_ID@Zeni@@H@std@@@4@$0A@@std@@@std@@QAE?AU?$pair@Viterator@?$_Tree@V?$_Tmap_traits@UZeni_Input_ID@Zeni@@HU?$less@UZeni_Input_ID@Zeni@@@std@@V?$allocator@U?$pair@$$CBUZeni_Input_ID@Zeni@@H@std@@@4@$0A@@std@@@std@@_N@2@ABU?$pair@$$CBUZeni_Input_ID@Zeni@@H@2@@Z 00515860 f i Zenilib:zenilib.obj
 0002:00094d30       ?erase@?$_Tree@V?$_Tmap_traits@UZeni_Input_ID@Zeni@@HU?$less@UZeni_Input_ID@Zeni@@@std@@V?$allocator@U?$pair@$$CBUZeni_Input_ID@Zeni@@H@std@@@4@$0A@@std@@@std@@QAE?AViterator@12@Vconst_iterator@12@0@Z 00515d30 f i Zenilib:zenilib.obj
 0002:00095060       ?_Init@?$_Tree@V?$_Tmap_traits@UZeni_Input_ID@Zeni@@HU?$less@UZeni_Input_ID@Zeni@@@std@@V?$allocator@U?$pair@$$CBUZeni_Input_ID@Zeni@@H@std@@@4@$0A@@std@@@std@@IAEXXZ 00516060 f i Zenilib:zenilib.obj
 0002:00095120       ?_Insert@?$_Tree@V?$_Tmap_traits@UZeni_Input_ID@Zeni@@HU?$less@UZeni_Input_ID@Zeni@@@std@@V?$allocator@U?$pair@$$CBUZeni_Input_ID@Zeni@@H@std@@@4@$0A@@std@@@std@@IAE?AViterator@12@_NPAU_Node@?$_Tree_nod@V?$_Tmap_traits@UZeni_Input_ID@Zeni@@HU?$less@UZeni_Input_ID@Zeni@@@std@@V?$allocator@U?$pair@$$CBUZeni_Input_ID@Zeni@@H@std@@@4@$0A@@std@@@2@ABU?$pair@$$CBUZeni_Input_ID@Zeni@@H@2@@Z 00516120 f i Zenilib:zenilib.obj
 0002:00095730       ?_Lbound@?$_Tree@V?$_Tmap_traits@UZeni_Input_ID@Zeni@@HU?$less@UZeni_Input_ID@Zeni@@@std@@V?$allocator@U?$pair@$$CBUZeni_Input_ID@Zeni@@H@std@@@4@$0A@@std@@@std@@IBEPAU_Node@?$_Tree_nod@V?$_Tmap_traits@UZeni_Input_ID@Zeni@@HU?$less@UZeni_Input_ID@Zeni@@@std@@V?$allocator@U?$pair@$$CBUZeni_Input_ID@Zeni@@H@std@@@4@$0A@@std@@@2@ABUZeni_Input_ID@Zeni@@@Z 00516730 f i Zenilib:zenilib.obj
 0002:00095830       ?_Rmost@?$_Tree@V?$_Tmap_traits@UZeni_Input_ID@Zeni@@HU?$less@UZeni_Input_ID@Zeni@@@std@@V?$allocator@U?$pair@$$CBUZeni_Input_ID@Zeni@@H@std@@@4@$0A@@std@@@std@@IBEAAPAU_Node@?$_Tree_nod@V?$_Tmap_traits@UZeni_Input_ID@Zeni@@HU?$less@UZeni_Input_ID@Zeni@@@std@@V?$allocator@U?$pair@$$CBUZeni_Input_ID@Zeni@@H@std@@@4@$0A@@std@@@2@XZ 00516830 f i Zenilib:zenilib.obj
 0002:00095890       ??0?$_Tree_val@V?$_Tmap_traits@UZeni_Input_ID@Zeni@@HU?$less@UZeni_Input_ID@Zeni@@@std@@V?$allocator@U?$pair@$$CBUZeni_Input_ID@Zeni@@H@std@@@4@$0A@@std@@@std@@IAE@ABU?$less@UZeni_Input_ID@Zeni@@@1@V?$allocator@U?$pair@$$CBUZeni_Input_ID@Zeni@@H@std@@@1@@Z 00516890 f i Zenilib:zenilib.obj
 0002:00095920       ?_Kfn@?$_Tmap_traits@UZeni_Input_ID@Zeni@@HU?$less@UZeni_Input_ID@Zeni@@@std@@V?$allocator@U?$pair@$$CBUZeni_Input_ID@Zeni@@H@std@@@4@$0A@@std@@SAABUZeni_Input_ID@Zeni@@ABU?$pair@$$CBUZeni_Input_ID@Zeni@@H@2@@Z 00516920 f i Zenilib:zenilib.obj
 0002:00095960       ??0?$allocator@U?$pair@$$CBUZeni_Input_ID@Zeni@@H@std@@@std@@QAE@ABV01@@Z 00516960 f i Zenilib:zenilib.obj
 0002:000959a0       ?deallocate@?$allocator@U_Node@?$_Tree_nod@V?$_Tmap_traits@UZeni_Input_ID@Zeni@@HU?$less@UZeni_Input_ID@Zeni@@@std@@V?$allocator@U?$pair@$$CBUZeni_Input_ID@Zeni@@H@std@@@4@$0A@@std@@@std@@@std@@QAEXPAU_Node@?$_Tree_nod@V?$_Tmap_traits@UZeni_Input_ID@Zeni@@HU?$less@UZeni_Input_ID@Zeni@@@std@@V?$allocator@U?$pair@$$CBUZeni_Input_ID@Zeni@@H@std@@@4@$0A@@std@@@2@I@Z 005169a0 f i Zenilib:zenilib.obj
 0002:00095a00       ?destroy@?$allocator@PAU_Node@?$_Tree_nod@V?$_Tmap_traits@UZeni_Input_ID@Zeni@@HU?$less@UZeni_Input_ID@Zeni@@@std@@V?$allocator@U?$pair@$$CBUZeni_Input_ID@Zeni@@H@std@@@4@$0A@@std@@@std@@@std@@QAEXPAPAU_Node@?$_Tree_nod@V?$_Tmap_traits@UZeni_Input_ID@Zeni@@HU?$less@UZeni_Input_ID@Zeni@@@std@@V?$allocator@U?$pair@$$CBUZeni_Input_ID@Zeni@@H@std@@@4@$0A@@std@@@2@@Z 00516a00 f i Zenilib:zenilib.obj
 0002:00095a60       ?_Isnil@?$_Tree@V?$_Tmap_traits@HUZeni_Input_ID@Zeni@@U?$less@H@std@@V?$allocator@U?$pair@$$CBHUZeni_Input_ID@Zeni@@@std@@@4@$0A@@std@@@std@@KAAADPAU_Node@?$_Tree_nod@V?$_Tmap_traits@HUZeni_Input_ID@Zeni@@U?$less@H@std@@V?$allocator@U?$pair@$$CBHUZeni_Input_ID@Zeni@@@std@@@4@$0A@@std@@@2@@Z 00516a60 f i Zenilib:zenilib.obj
 0002:00095aa0       ?_Left@?$_Tree@V?$_Tmap_traits@HUZeni_Input_ID@Zeni@@U?$less@H@std@@V?$allocator@U?$pair@$$CBHUZeni_Input_ID@Zeni@@@std@@@4@$0A@@std@@@std@@KAAAPAU_Node@?$_Tree_nod@V?$_Tmap_traits@HUZeni_Input_ID@Zeni@@U?$less@H@std@@V?$allocator@U?$pair@$$CBHUZeni_Input_ID@Zeni@@@std@@@4@$0A@@std@@@2@PAU342@@Z 00516aa0 f i Zenilib:zenilib.obj
 0002:00095ae0       ?_Parent@?$_Tree@V?$_Tmap_traits@HUZeni_Input_ID@Zeni@@U?$less@H@std@@V?$allocator@U?$pair@$$CBHUZeni_Input_ID@Zeni@@@std@@@4@$0A@@std@@@std@@KAAAPAU_Node@?$_Tree_nod@V?$_Tmap_traits@HUZeni_Input_ID@Zeni@@U?$less@H@std@@V?$allocator@U?$pair@$$CBHUZeni_Input_ID@Zeni@@@std@@@4@$0A@@std@@@2@PAU342@@Z 00516ae0 f i Zenilib:zenilib.obj
 0002:00095b20       ?_Right@?$_Tree@V?$_Tmap_traits@HUZeni_Input_ID@Zeni@@U?$less@H@std@@V?$allocator@U?$pair@$$CBHUZeni_Input_ID@Zeni@@@std@@@4@$0A@@std@@@std@@KAAAPAU_Node@?$_Tree_nod@V?$_Tmap_traits@HUZeni_Input_ID@Zeni@@U?$less@H@std@@V?$allocator@U?$pair@$$CBHUZeni_Input_ID@Zeni@@@std@@@4@$0A@@std@@@2@PAU342@@Z 00516b20 f i Zenilib:zenilib.obj
 0002:00095b60       ?_Myval@?$_Tree@V?$_Tmap_traits@HUZeni_Input_ID@Zeni@@U?$less@H@std@@V?$allocator@U?$pair@$$CBHUZeni_Input_ID@Zeni@@@std@@@4@$0A@@std@@@std@@KAAAU?$pair@$$CBHUZeni_Input_ID@Zeni@@@2@PAU_Node@?$_Tree_nod@V?$_Tmap_traits@HUZeni_Input_ID@Zeni@@U?$less@H@std@@V?$allocator@U?$pair@$$CBHUZeni_Input_ID@Zeni@@@std@@@4@$0A@@std@@@2@@Z 00516b60 f i Zenilib:zenilib.obj
 0002:00095ba0       ?begin@?$_Tree@V?$_Tmap_traits@HUZeni_Input_ID@Zeni@@U?$less@H@std@@V?$allocator@U?$pair@$$CBHUZeni_Input_ID@Zeni@@@std@@@4@$0A@@std@@@std@@QAE?AViterator@12@XZ 00516ba0 f i Zenilib:zenilib.obj
 0002:00095c30       ?size@?$_Tree@V?$_Tmap_traits@HUZeni_Input_ID@Zeni@@U?$less@H@std@@V?$allocator@U?$pair@$$CBHUZeni_Input_ID@Zeni@@@std@@@4@$0A@@std@@@std@@QBEIXZ 00516c30 f i Zenilib:zenilib.obj
 0002:00095c70       ?insert@?$_Tree@V?$_Tmap_traits@HUZeni_Input_ID@Zeni@@U?$less@H@std@@V?$allocator@U?$pair@$$CBHUZeni_Input_ID@Zeni@@@std@@@4@$0A@@std@@@std@@QAE?AU?$pair@Viterator@?$_Tree@V?$_Tmap_traits@HUZeni_Input_ID@Zeni@@U?$less@H@std@@V?$allocator@U?$pair@$$CBHUZeni_Input_ID@Zeni@@@std@@@4@$0A@@std@@@std@@_N@2@ABU?$pair@$$CBHUZeni_Input_ID@Zeni@@@2@@Z 00516c70 f i Zenilib:zenilib.obj
 0002:00096140       ?erase@?$_Tree@V?$_Tmap_traits@HUZeni_Input_ID@Zeni@@U?$less@H@std@@V?$allocator@U?$pair@$$CBHUZeni_Input_ID@Zeni@@@std@@@4@$0A@@std@@@std@@QAE?AViterator@12@Vconst_iterator@12@0@Z 00517140 f i Zenilib:zenilib.obj
 0002:00096470       ?_Init@?$_Tree@V?$_Tmap_traits@HUZeni_Input_ID@Zeni@@U?$less@H@std@@V?$allocator@U?$pair@$$CBHUZeni_Input_ID@Zeni@@@std@@@4@$0A@@std@@@std@@IAEXXZ 00517470 f i Zenilib:zenilib.obj
 0002:00096530       ?_Insert@?$_Tree@V?$_Tmap_traits@HUZeni_Input_ID@Zeni@@U?$less@H@std@@V?$allocator@U?$pair@$$CBHUZeni_Input_ID@Zeni@@@std@@@4@$0A@@std@@@std@@IAE?AViterator@12@_NPAU_Node@?$_Tree_nod@V?$_Tmap_traits@HUZeni_Input_ID@Zeni@@U?$less@H@std@@V?$allocator@U?$pair@$$CBHUZeni_Input_ID@Zeni@@@std@@@4@$0A@@std@@@2@ABU?$pair@$$CBHUZeni_Input_ID@Zeni@@@2@@Z 00517530 f i Zenilib:zenilib.obj
 0002:00096b40       ?_Lbound@?$_Tree@V?$_Tmap_traits@HUZeni_Input_ID@Zeni@@U?$less@H@std@@V?$allocator@U?$pair@$$CBHUZeni_Input_ID@Zeni@@@std@@@4@$0A@@std@@@std@@IBEPAU_Node@?$_Tree_nod@V?$_Tmap_traits@HUZeni_Input_ID@Zeni@@U?$less@H@std@@V?$allocator@U?$pair@$$CBHUZeni_Input_ID@Zeni@@@std@@@4@$0A@@std@@@2@ABH@Z 00517b40 f i Zenilib:zenilib.obj
 0002:00096c40       ?_Rmost@?$_Tree@V?$_Tmap_traits@HUZeni_Input_ID@Zeni@@U?$less@H@std@@V?$allocator@U?$pair@$$CBHUZeni_Input_ID@Zeni@@@std@@@4@$0A@@std@@@std@@IBEAAPAU_Node@?$_Tree_nod@V?$_Tmap_traits@HUZeni_Input_ID@Zeni@@U?$less@H@std@@V?$allocator@U?$pair@$$CBHUZeni_Input_ID@Zeni@@@std@@@4@$0A@@std@@@2@XZ 00517c40 f i Zenilib:zenilib.obj
 0002:00096ca0       ??0?$_Tree_val@V?$_Tmap_traits@HUZeni_Input_ID@Zeni@@U?$less@H@std@@V?$allocator@U?$pair@$$CBHUZeni_Input_ID@Zeni@@@std@@@4@$0A@@std@@@std@@IAE@ABU?$less@H@1@V?$allocator@U?$pair@$$CBHUZeni_Input_ID@Zeni@@@std@@@1@@Z 00517ca0 f i Zenilib:zenilib.obj
 0002:00096d30       ?_Kfn@?$_Tmap_traits@HUZeni_Input_ID@Zeni@@U?$less@H@std@@V?$allocator@U?$pair@$$CBHUZeni_Input_ID@Zeni@@@std@@@4@$0A@@std@@SAABHABU?$pair@$$CBHUZeni_Input_ID@Zeni@@@2@@Z 00517d30 f i Zenilib:zenilib.obj
 0002:00096d70       ??0?$allocator@U?$pair@$$CBHUZeni_Input_ID@Zeni@@@std@@@std@@QAE@ABV01@@Z 00517d70 f i Zenilib:zenilib.obj
 0002:00096db0       ?deallocate@?$allocator@U_Node@?$_Tree_nod@V?$_Tmap_traits@HUZeni_Input_ID@Zeni@@U?$less@H@std@@V?$allocator@U?$pair@$$CBHUZeni_Input_ID@Zeni@@@std@@@4@$0A@@std@@@std@@@std@@QAEXPAU_Node@?$_Tree_nod@V?$_Tmap_traits@HUZeni_Input_ID@Zeni@@U?$less@H@std@@V?$allocator@U?$pair@$$CBHUZeni_Input_ID@Zeni@@@std@@@4@$0A@@std@@@2@I@Z 00517db0 f i Zenilib:zenilib.obj
 0002:00096e10       ?destroy@?$allocator@PAU_Node@?$_Tree_nod@V?$_Tmap_traits@HUZeni_Input_ID@Zeni@@U?$less@H@std@@V?$allocator@U?$pair@$$CBHUZeni_Input_ID@Zeni@@@std@@@4@$0A@@std@@@std@@@std@@QAEXPAPAU_Node@?$_Tree_nod@V?$_Tmap_traits@HUZeni_Input_ID@Zeni@@U?$less@H@std@@V?$allocator@U?$pair@$$CBHUZeni_Input_ID@Zeni@@@std@@@4@$0A@@std@@@2@@Z 00517e10 f i Zenilib:zenilib.obj
 0002:00096e70       ?allocate@?$allocator@H@std@@QAEPAHI@Z 00517e70 f i Zenilib:zenilib.obj
 0002:00096ed0       ??0?$_Deque_val@VGamestate@Zeni@@V?$allocator@VGamestate@Zeni@@@std@@@std@@IAE@V?$allocator@VGamestate@Zeni@@@1@@Z 00517ed0 f i Zenilib:zenilib.obj
 0002:00096f50       ??0?$allocator@VGamestate@Zeni@@@std@@QAE@XZ 00517f50 f i Zenilib:zenilib.obj
 0002:00096f90       ?deallocate@?$allocator@VGamestate@Zeni@@@std@@QAEXPAVGamestate@Zeni@@I@Z 00517f90 f i Zenilib:zenilib.obj
 0002:00096ff0       ?destroy@?$allocator@PAVGamestate@Zeni@@@std@@QAEXPAPAVGamestate@Zeni@@@Z 00517ff0 f i Zenilib:zenilib.obj
 0002:00097050       ?begin@?$vector@U?$pair@V?$basic_string@DU?$char_traits@D@std@@V?$allocator@D@2@@std@@K@std@@V?$allocator@U?$pair@V?$basic_string@DU?$char_traits@D@std@@V?$allocator@D@2@@std@@K@std@@@2@@std@@QAE?AV?$_Vector_iterator@U?$pair@V?$basic_string@DU?$char_traits@D@std@@V?$allocator@D@2@@std@@K@std@@V?$allocator@U?$pair@V?$basic_string@DU?$char_traits@D@std@@V?$allocator@D@2@@std@@K@std@@@2@@2@XZ 00518050 f i Zenilib:zenilib.obj
 0002:000970e0       ?max_size@?$vector@U?$pair@V?$basic_string@DU?$char_traits@D@std@@V?$allocator@D@2@@std@@K@std@@V?$allocator@U?$pair@V?$basic_string@DU?$char_traits@D@std@@V?$allocator@D@2@@std@@K@std@@@2@@std@@QBEIXZ 005180e0 f i Zenilib:zenilib.obj
 0002:00097140       ?_Insert_n@?$vector@U?$pair@V?$basic_string@DU?$char_traits@D@std@@V?$allocator@D@2@@std@@K@std@@V?$allocator@U?$pair@V?$basic_string@DU?$char_traits@D@std@@V?$allocator@D@2@@std@@K@std@@@2@@std@@IAEXV?$_Vector_const_iterator@U?$pair@V?$basic_string@DU?$char_traits@D@std@@V?$allocator@D@2@@std@@K@std@@V?$allocator@U?$pair@V?$basic_string@DU?$char_traits@D@std@@V?$allocator@D@2@@std@@K@std@@@2@@2@IABU?$pair@V?$basic_string@DU?$char_traits@D@std@@V?$allocator@D@2@@std@@K@2@@Z 00518140 f i Zenilib:zenilib.obj
 0002:00097720       ?_Xlen@?$vector@U?$pair@V?$basic_string@DU?$char_traits@D@std@@V?$allocator@D@2@@std@@K@std@@V?$allocator@U?$pair@V?$basic_string@DU?$char_traits@D@std@@V?$allocator@D@2@@std@@K@std@@@2@@std@@KAXXZ 00518720 f i Zenilib:zenilib.obj
 0002:00097810       ??0?$_Container_base_aux_alloc_empty@V?$allocator@U?$pair@V?$basic_string@DU?$char_traits@D@std@@V?$allocator@D@2@@std@@K@std@@@std@@@std@@IAE@V?$allocator@U?$pair@V?$basic_string@DU?$char_traits@D@std@@V?$allocator@D@2@@std@@K@std@@@1@@Z 00518810 f i Zenilib:zenilib.obj
 0002:00097880       ?allocate@?$allocator@U?$pair@V?$basic_string@DU?$char_traits@D@std@@V?$allocator@D@2@@std@@K@std@@@std@@QAEPAU?$pair@V?$basic_string@DU?$char_traits@D@std@@V?$allocator@D@2@@std@@K@2@I@Z 00518880 f i Zenilib:zenilib.obj
 0002:000978e0       ?_Get_iter_from_vec@?$_Hash@V?$_Hmap_traits@KPAVTexture@Zeni@@V?$hash_compare@KU?$less@K@std@@@stdext@@V?$allocator@U?$pair@$$CBKPAVTexture@Zeni@@@std@@@std@@$0A@@stdext@@@stdext@@QBE?AV?$_Iterator@$00@?$list@U?$pair@$$CBKPAVTexture@Zeni@@@std@@V?$allocator@U?$pair@$$CBKPAVTexture@Zeni@@@std@@@2@@std@@ABV345@@Z 005188e0 f i Zenilib:zenilib.obj
 0002:00097960       ?get_allocator@?$_Hash@V?$_Hmap_traits@KPAVTexture@Zeni@@V?$hash_compare@KU?$less@K@std@@@stdext@@V?$allocator@U?$pair@$$CBKPAVTexture@Zeni@@@std@@@std@@$0A@@stdext@@@stdext@@QBE?AV?$allocator@U?$pair@$$CBKPAVTexture@Zeni@@@std@@@std@@XZ 00518960 f i Zenilib:zenilib.obj
 0002:000979c0       ?_Copy@?$_Hash@V?$_Hmap_traits@KPAVTexture@Zeni@@V?$hash_compare@KU?$less@K@std@@@stdext@@V?$allocator@U?$pair@$$CBKPAVTexture@Zeni@@@std@@@std@@$0A@@stdext@@@stdext@@IAEXABV12@@Z 005189c0 f i Zenilib:zenilib.obj
 0002:00097e00       ?_Insert@?$_Hash@V?$_Hmap_traits@KPAVTexture@Zeni@@V?$hash_compare@KU?$less@K@std@@@stdext@@V?$allocator@U?$pair@$$CBKPAVTexture@Zeni@@@std@@@std@@$0A@@stdext@@@stdext@@IAE?AU?$pair@V?$_Iterator@$00@?$list@U?$pair@$$CBKPAVTexture@Zeni@@@std@@V?$allocator@U?$pair@$$CBKPAVTexture@Zeni@@@std@@@2@@std@@_N@std@@ABU?$pair@$$CBKPAVTexture@Zeni@@@4@V?$_Iterator@$00@?$list@U?$pair@$$CBKPAVTexture@Zeni@@@std@@V?$allocator@U?$pair@$$CBKPAVTexture@Zeni@@@std@@@2@@4@@Z 00518e00 f i Zenilib:zenilib.obj
 0002:000983f0       ??0?$_Hmap_traits@KPAVTexture@Zeni@@V?$hash_compare@KU?$less@K@std@@@stdext@@V?$allocator@U?$pair@$$CBKPAVTexture@Zeni@@@std@@@std@@$0A@@stdext@@QAE@ABV?$hash_compare@KU?$less@K@std@@@1@@Z 005193f0 f i Zenilib:zenilib.obj
 0002:00098460       ?_Nextnode@?$list@U?$pair@$$CBKPAVTexture@Zeni@@@std@@V?$allocator@U?$pair@$$CBKPAVTexture@Zeni@@@std@@@2@@std@@KAAAPAU_Node@?$_List_nod@U?$pair@$$CBKPAVTexture@Zeni@@@std@@V?$allocator@U?$pair@$$CBKPAVTexture@Zeni@@@std@@@2@@2@PAU342@@Z 00519460 f i Zenilib:zenilib.obj
 0002:000984a0       ?_Prevnode@?$list@U?$pair@$$CBKPAVTexture@Zeni@@@std@@V?$allocator@U?$pair@$$CBKPAVTexture@Zeni@@@std@@@2@@std@@KAAAPAU_Node@?$_List_nod@U?$pair@$$CBKPAVTexture@Zeni@@@std@@V?$allocator@U?$pair@$$CBKPAVTexture@Zeni@@@std@@@2@@2@PAU342@@Z 005194a0 f i Zenilib:zenilib.obj
 0002:000984e0       ?_Myval@?$list@U?$pair@$$CBKPAVTexture@Zeni@@@std@@V?$allocator@U?$pair@$$CBKPAVTexture@Zeni@@@std@@@2@@std@@KAAAU?$pair@$$CBKPAVTexture@Zeni@@@2@PAU_Node@?$_List_nod@U?$pair@$$CBKPAVTexture@Zeni@@@std@@V?$allocator@U?$pair@$$CBKPAVTexture@Zeni@@@std@@@2@@2@@Z 005194e0 f i Zenilib:zenilib.obj
 0002:00098520       ??0?$list@U?$pair@$$CBKPAVTexture@Zeni@@@std@@V?$allocator@U?$pair@$$CBKPAVTexture@Zeni@@@std@@@2@@std@@QAE@ABV?$allocator@U?$pair@$$CBKPAVTexture@Zeni@@@std@@@1@@Z 00519520 f i Zenilib:zenilib.obj
 0002:000985f0       ?_Make_iter@?$list@U?$pair@$$CBKPAVTexture@Zeni@@@std@@V?$allocator@U?$pair@$$CBKPAVTexture@Zeni@@@std@@@2@@std@@QBE?AV?$_Iterator@$00@12@V?$_Const_iterator@$00@12@@Z 005195f0 f i Zenilib:zenilib.obj
 0002:000986c0       ?_Tidy@?$list@U?$pair@$$CBKPAVTexture@Zeni@@@std@@V?$allocator@U?$pair@$$CBKPAVTexture@Zeni@@@std@@@2@@std@@IAEXXZ 005196c0 f i Zenilib:zenilib.obj
 0002:00098780       ?_Orphan_ptr@?$list@U?$pair@$$CBKPAVTexture@Zeni@@@std@@V?$allocator@U?$pair@$$CBKPAVTexture@Zeni@@@std@@@2@@std@@IBEXAAV12@PAU_Node@?$_List_nod@U?$pair@$$CBKPAVTexture@Zeni@@@std@@V?$allocator@U?$pair@$$CBKPAVTexture@Zeni@@@std@@@2@@2@@Z 00519780 f i Zenilib:zenilib.obj
 0002:000988a0       ??1?$_Container_base_aux_alloc_empty@V?$allocator@U?$pair@$$CBKPAVTexture@Zeni@@@std@@@std@@@std@@IAE@XZ 005198a0 f i Zenilib:zenilib.obj
 0002:00098900       ?deallocate@?$allocator@U_Node@?$_List_nod@U?$pair@$$CBKPAVTexture@Zeni@@@std@@V?$allocator@U?$pair@$$CBKPAVTexture@Zeni@@@std@@@2@@std@@@std@@QAEXPAU_Node@?$_List_nod@U?$pair@$$CBKPAVTexture@Zeni@@@std@@V?$allocator@U?$pair@$$CBKPAVTexture@Zeni@@@std@@@2@@2@I@Z 00519900 f i Zenilib:zenilib.obj
 0002:00098960       ?destroy@?$allocator@U_Node@?$_List_nod@U?$pair@$$CBKPAVTexture@Zeni@@@std@@V?$allocator@U?$pair@$$CBKPAVTexture@Zeni@@@std@@@2@@std@@@std@@QAEXPAU_Node@?$_List_nod@U?$pair@$$CBKPAVTexture@Zeni@@@std@@V?$allocator@U?$pair@$$CBKPAVTexture@Zeni@@@std@@@2@@2@@Z 00519960 f i Zenilib:zenilib.obj
 0002:000989c0       ??0?$vector@V?$_Iterator@$00@?$list@U?$pair@$$CBKPAVTexture@Zeni@@@std@@V?$allocator@U?$pair@$$CBKPAVTexture@Zeni@@@std@@@2@@std@@V?$allocator@V?$_Iterator@$00@?$list@U?$pair@$$CBKPAVTexture@Zeni@@@std@@V?$allocator@U?$pair@$$CBKPAVTexture@Zeni@@@std@@@2@@std@@@3@@std@@QAE@ABV?$allocator@V?$_Iterator@$00@?$list@U?$pair@$$CBKPAVTexture@Zeni@@@std@@V?$allocator@U?$pair@$$CBKPAVTexture@Zeni@@@std@@@2@@std@@@1@@Z 005199c0 f i Zenilib:zenilib.obj
 0002:00098a80       ?size@?$vector@V?$_Iterator@$00@?$list@U?$pair@$$CBKPAVTexture@Zeni@@@std@@V?$allocator@U?$pair@$$CBKPAVTexture@Zeni@@@std@@@2@@std@@V?$allocator@V?$_Iterator@$00@?$list@U?$pair@$$CBKPAVTexture@Zeni@@@std@@V?$allocator@U?$pair@$$CBKPAVTexture@Zeni@@@std@@@2@@std@@@3@@std@@QBEIXZ 00519a80 f i Zenilib:zenilib.obj
 0002:00098ad0       ??A?$vector@V?$_Iterator@$00@?$list@U?$pair@$$CBKPAVTexture@Zeni@@@std@@V?$allocator@U?$pair@$$CBKPAVTexture@Zeni@@@std@@@2@@std@@V?$allocator@V?$_Iterator@$00@?$list@U?$pair@$$CBKPAVTexture@Zeni@@@std@@V?$allocator@U?$pair@$$CBKPAVTexture@Zeni@@@std@@@2@@std@@@3@@std@@QBEABV?$_Iterator@$00@?$list@U?$pair@$$CBKPAVTexture@Zeni@@@std@@V?$allocator@U?$pair@$$CBKPAVTexture@Zeni@@@std@@@2@@1@I@Z 00519ad0 f i Zenilib:zenilib.obj
 0002:00098c50       ?assign@?$vector@V?$_Iterator@$00@?$list@U?$pair@$$CBKPAVTexture@Zeni@@@std@@V?$allocator@U?$pair@$$CBKPAVTexture@Zeni@@@std@@@2@@std@@V?$allocator@V?$_Iterator@$00@?$list@U?$pair@$$CBKPAVTexture@Zeni@@@std@@V?$allocator@U?$pair@$$CBKPAVTexture@Zeni@@@std@@@2@@std@@@3@@std@@QAEXIABV?$_Iterator@$00@?$list@U?$pair@$$CBKPAVTexture@Zeni@@@std@@V?$allocator@U?$pair@$$CBKPAVTexture@Zeni@@@std@@@2@@2@@Z 00519c50 f i Zenilib:zenilib.obj
 0002:00098cb0       ?_Tidy@?$vector@V?$_Iterator@$00@?$list@U?$pair@$$CBKPAVTexture@Zeni@@@std@@V?$allocator@U?$pair@$$CBKPAVTexture@Zeni@@@std@@@2@@std@@V?$allocator@V?$_Iterator@$00@?$list@U?$pair@$$CBKPAVTexture@Zeni@@@std@@V?$allocator@U?$pair@$$CBKPAVTexture@Zeni@@@std@@@2@@std@@@3@@std@@IAEXXZ 00519cb0 f i Zenilib:zenilib.obj
 0002:00098d90       ??1?$_Container_base_aux_alloc_empty@V?$allocator@V?$_Iterator@$00@?$list@U?$pair@$$CBKPAVTexture@Zeni@@@std@@V?$allocator@U?$pair@$$CBKPAVTexture@Zeni@@@std@@@2@@std@@@std@@@std@@IAE@XZ 00519d90 f i Zenilib:zenilib.obj
 0002:00098df0       ?max_size@?$vector@PAV?$Triangle@VVertex3f_Color@Zeni@@@Zeni@@V?$allocator@PAV?$Triangle@VVertex3f_Color@Zeni@@@Zeni@@@std@@@std@@QBEIXZ 00519df0 f i Zenilib:zenilib.obj
 0002:00098e50       ?_Destroy@?$vector@PAV?$Triangle@VVertex3f_Color@Zeni@@@Zeni@@V?$allocator@PAV?$Triangle@VVertex3f_Color@Zeni@@@Zeni@@@std@@@std@@IAEXPAPAV?$Triangle@VVertex3f_Color@Zeni@@@Zeni@@0@Z 00519e50 f i Zenilib:zenilib.obj
 0002:00098ec0       ?_Insert_n@?$vector@PAV?$Triangle@VVertex3f_Color@Zeni@@@Zeni@@V?$allocator@PAV?$Triangle@VVertex3f_Color@Zeni@@@Zeni@@@std@@@std@@IAEXV?$_Vector_const_iterator@PAV?$Triangle@VVertex3f_Color@Zeni@@@Zeni@@V?$allocator@PAV?$Triangle@VVertex3f_Color@Zeni@@@Zeni@@@std@@@2@IABQAV?$Triangle@VVertex3f_Color@Zeni@@@Zeni@@@Z 00519ec0 f i Zenilib:zenilib.obj
 0002:00099420       ?_Xlen@?$vector@PAV?$Triangle@VVertex3f_Color@Zeni@@@Zeni@@V?$allocator@PAV?$Triangle@VVertex3f_Color@Zeni@@@Zeni@@@std@@@std@@KAXXZ 0051a420 f i Zenilib:zenilib.obj
 0002:00099510       ??0?$_Container_base_aux_alloc_empty@V?$allocator@PAV?$Triangle@VVertex3f_Color@Zeni@@@Zeni@@@std@@@std@@IAE@V?$allocator@PAV?$Triangle@VVertex3f_Color@Zeni@@@Zeni@@@1@@Z 0051a510 f i Zenilib:zenilib.obj
 0002:00099580       ??0?$allocator@PAV?$Triangle@VVertex3f_Color@Zeni@@@Zeni@@@std@@QAE@ABV01@@Z 0051a580 f i Zenilib:zenilib.obj
 0002:000995c0       ?deallocate@?$allocator@PAV?$Triangle@VVertex3f_Color@Zeni@@@Zeni@@@std@@QAEXPAPAV?$Triangle@VVertex3f_Color@Zeni@@@Zeni@@I@Z 0051a5c0 f i Zenilib:zenilib.obj
 0002:00099620       ?allocate@?$allocator@PAV?$Triangle@VVertex3f_Color@Zeni@@@Zeni@@@std@@QAEPAPAV?$Triangle@VVertex3f_Color@Zeni@@@Zeni@@I@Z 0051a620 f i Zenilib:zenilib.obj
 0002:00099680       ?max_size@?$vector@PAV?$Triangle@VVertex3f_Texture@Zeni@@@Zeni@@V?$allocator@PAV?$Triangle@VVertex3f_Texture@Zeni@@@Zeni@@@std@@@std@@QBEIXZ 0051a680 f i Zenilib:zenilib.obj
 0002:000996e0       ?_Destroy@?$vector@PAV?$Triangle@VVertex3f_Texture@Zeni@@@Zeni@@V?$allocator@PAV?$Triangle@VVertex3f_Texture@Zeni@@@Zeni@@@std@@@std@@IAEXPAPAV?$Triangle@VVertex3f_Texture@Zeni@@@Zeni@@0@Z 0051a6e0 f i Zenilib:zenilib.obj
 0002:00099750       ?_Insert_n@?$vector@PAV?$Triangle@VVertex3f_Texture@Zeni@@@Zeni@@V?$allocator@PAV?$Triangle@VVertex3f_Texture@Zeni@@@Zeni@@@std@@@std@@IAEXV?$_Vector_const_iterator@PAV?$Triangle@VVertex3f_Texture@Zeni@@@Zeni@@V?$allocator@PAV?$Triangle@VVertex3f_Texture@Zeni@@@Zeni@@@std@@@2@IABQAV?$Triangle@VVertex3f_Texture@Zeni@@@Zeni@@@Z 0051a750 f i Zenilib:zenilib.obj
 0002:00099cb0       ?_Xlen@?$vector@PAV?$Triangle@VVertex3f_Texture@Zeni@@@Zeni@@V?$allocator@PAV?$Triangle@VVertex3f_Texture@Zeni@@@Zeni@@@std@@@std@@KAXXZ 0051acb0 f i Zenilib:zenilib.obj
 0002:00099da0       ??0?$_Container_base_aux_alloc_empty@V?$allocator@PAV?$Triangle@VVertex3f_Texture@Zeni@@@Zeni@@@std@@@std@@IAE@V?$allocator@PAV?$Triangle@VVertex3f_Texture@Zeni@@@Zeni@@@1@@Z 0051ada0 f i Zenilib:zenilib.obj
 0002:00099e10       ??0?$allocator@PAV?$Triangle@VVertex3f_Texture@Zeni@@@Zeni@@@std@@QAE@ABV01@@Z 0051ae10 f i Zenilib:zenilib.obj
 0002:00099e50       ?deallocate@?$allocator@PAV?$Triangle@VVertex3f_Texture@Zeni@@@Zeni@@@std@@QAEXPAPAV?$Triangle@VVertex3f_Texture@Zeni@@@Zeni@@I@Z 0051ae50 f i Zenilib:zenilib.obj
 0002:00099eb0       ?allocate@?$allocator@PAV?$Triangle@VVertex3f_Texture@Zeni@@@Zeni@@@std@@QAEPAPAV?$Triangle@VVertex3f_Texture@Zeni@@@Zeni@@I@Z 0051aeb0 f i Zenilib:zenilib.obj
 0002:00099f10       ?capacity@?$vector@PAUVertex_Buffer_Range@Vertex_Buffer@Zeni@@V?$allocator@PAUVertex_Buffer_Range@Vertex_Buffer@Zeni@@@std@@@std@@QBEIXZ 0051af10 f i Zenilib:zenilib.obj
 0002:00099f80       ?end@?$vector@PAUVertex_Buffer_Range@Vertex_Buffer@Zeni@@V?$allocator@PAUVertex_Buffer_Range@Vertex_Buffer@Zeni@@@std@@@std@@QAE?AV?$_Vector_iterator@PAUVertex_Buffer_Range@Vertex_Buffer@Zeni@@V?$allocator@PAUVertex_Buffer_Range@Vertex_Buffer@Zeni@@@std@@@2@XZ 0051af80 f i Zenilib:zenilib.obj
 0002:0009a010       ?max_size@?$vector@PAUVertex_Buffer_Range@Vertex_Buffer@Zeni@@V?$allocator@PAUVertex_Buffer_Range@Vertex_Buffer@Zeni@@@std@@@std@@QBEIXZ 0051b010 f i Zenilib:zenilib.obj
 0002:0009a070       ?insert@?$vector@PAUVertex_Buffer_Range@Vertex_Buffer@Zeni@@V?$allocator@PAUVertex_Buffer_Range@Vertex_Buffer@Zeni@@@std@@@std@@QAE?AV?$_Vector_iterator@PAUVertex_Buffer_Range@Vertex_Buffer@Zeni@@V?$allocator@PAUVertex_Buffer_Range@Vertex_Buffer@Zeni@@@std@@@2@V?$_Vector_const_iterator@PAUVertex_Buffer_Range@Vertex_Buffer@Zeni@@V?$allocator@PAUVertex_Buffer_Range@Vertex_Buffer@Zeni@@@std@@@2@ABQAUVertex_Buffer_Range@Vertex_Buffer@Zeni@@@Z 0051b070 f i Zenilib:zenilib.obj
 0002:0009a270       ?_Destroy@?$vector@PAUVertex_Buffer_Range@Vertex_Buffer@Zeni@@V?$allocator@PAUVertex_Buffer_Range@Vertex_Buffer@Zeni@@@std@@@std@@IAEXPAPAUVertex_Buffer_Range@Vertex_Buffer@Zeni@@0@Z 0051b270 f i Zenilib:zenilib.obj
 0002:0009a2e0       ?_Ufill@?$vector@PAUVertex_Buffer_Range@Vertex_Buffer@Zeni@@V?$allocator@PAUVertex_Buffer_Range@Vertex_Buffer@Zeni@@@std@@@std@@IAEPAPAUVertex_Buffer_Range@Vertex_Buffer@Zeni@@PAPAU345@IABQAU345@@Z 0051b2e0 f i Zenilib:zenilib.obj
 0002:0009a360       ?_Xlen@?$vector@PAUVertex_Buffer_Range@Vertex_Buffer@Zeni@@V?$allocator@PAUVertex_Buffer_Range@Vertex_Buffer@Zeni@@@std@@@std@@KAXXZ 0051b360 f i Zenilib:zenilib.obj
 0002:0009a450       ?_Orphan_range@?$vector@PAUVertex_Buffer_Range@Vertex_Buffer@Zeni@@V?$allocator@PAUVertex_Buffer_Range@Vertex_Buffer@Zeni@@@std@@@std@@IBEXPAPAUVertex_Buffer_Range@Vertex_Buffer@Zeni@@0@Z 0051b450 f i Zenilib:zenilib.obj
 0002:0009a560       ??0?$_Container_base_aux_alloc_empty@V?$allocator@PAUVertex_Buffer_Range@Vertex_Buffer@Zeni@@@std@@@std@@IAE@V?$allocator@PAUVertex_Buffer_Range@Vertex_Buffer@Zeni@@@1@@Z 0051b560 f i Zenilib:zenilib.obj
 0002:0009a5d0       ??0?$allocator@PAUVertex_Buffer_Range@Vertex_Buffer@Zeni@@@std@@QAE@ABV01@@Z 0051b5d0 f i Zenilib:zenilib.obj
 0002:0009a610       ?deallocate@?$allocator@PAUVertex_Buffer_Range@Vertex_Buffer@Zeni@@@std@@QAEXPAPAUVertex_Buffer_Range@Vertex_Buffer@Zeni@@I@Z 0051b610 f i Zenilib:zenilib.obj
 0002:0009a670       ?allocate@?$allocator@PAUVertex_Buffer_Range@Vertex_Buffer@Zeni@@@std@@QAEPAPAUVertex_Buffer_Range@Vertex_Buffer@Zeni@@I@Z 0051b670 f i Zenilib:zenilib.obj
 0002:0009a6d0       ?erase@?$_Tree@V?$_Tset_traits@PBVTask@Zeni@@U?$less@PBVTask@Zeni@@@std@@V?$allocator@PBVTask@Zeni@@@4@$0A@@std@@@std@@QAE?AViterator@12@Vconst_iterator@12@0@Z 0051b6d0 f i Zenilib:zenilib.obj
 0002:0009aa00       ?erase@?$_Tree@V?$_Tset_traits@PBVTask@Zeni@@U?$less@PBVTask@Zeni@@@std@@V?$allocator@PBVTask@Zeni@@@4@$0A@@std@@@std@@QAE?AViterator@12@Vconst_iterator@12@@Z 0051ba00 f i Zenilib:zenilib.obj
 0002:0009b460       ?clear@?$_Tree@V?$_Tset_traits@PBVTask@Zeni@@U?$less@PBVTask@Zeni@@@std@@V?$allocator@PBVTask@Zeni@@@4@$0A@@std@@@std@@QAEXXZ 0051c460 f i Zenilib:zenilib.obj
 0002:0009b520       ?_Color@?$_Tree@V?$_Tset_traits@PBVTask@Zeni@@U?$less@PBVTask@Zeni@@@std@@V?$allocator@PBVTask@Zeni@@@4@$0A@@std@@@std@@KAAADPAU_Node@?$_Tree_nod@V?$_Tset_traits@PBVTask@Zeni@@U?$less@PBVTask@Zeni@@@std@@V?$allocator@PBVTask@Zeni@@@4@$0A@@std@@@2@@Z 0051c520 f i Zenilib:zenilib.obj
 0002:0009b560       ?_Make_iter@?$_Tree@V?$_Tset_traits@PBVTask@Zeni@@U?$less@PBVTask@Zeni@@@std@@V?$allocator@PBVTask@Zeni@@@4@$0A@@std@@@std@@QBE?AViterator@12@Vconst_iterator@12@@Z 0051c560 f i Zenilib:zenilib.obj
 0002:0009b670       ??0iterator@?$_Tree@V?$_Tset_traits@PBVTask@Zeni@@U?$less@PBVTask@Zeni@@@std@@V?$allocator@PBVTask@Zeni@@@4@$0A@@std@@@std@@QAE@ABV012@@Z 0051c670 f i Zenilib:zenilib.obj
 0002:0009b6d0       ?_Erase@?$_Tree@V?$_Tset_traits@PBVTask@Zeni@@U?$less@PBVTask@Zeni@@@std@@V?$allocator@PBVTask@Zeni@@@4@$0A@@std@@@std@@IAEXPAU_Node@?$_Tree_nod@V?$_Tset_traits@PBVTask@Zeni@@U?$less@PBVTask@Zeni@@@std@@V?$allocator@PBVTask@Zeni@@@4@$0A@@std@@@2@@Z 0051c6d0 f i Zenilib:zenilib.obj
 0002:0009b7a0       ?_Lrotate@?$_Tree@V?$_Tset_traits@PBVTask@Zeni@@U?$less@PBVTask@Zeni@@@std@@V?$allocator@PBVTask@Zeni@@@4@$0A@@std@@@std@@IAEXPAU_Node@?$_Tree_nod@V?$_Tset_traits@PBVTask@Zeni@@U?$less@PBVTask@Zeni@@@std@@V?$allocator@PBVTask@Zeni@@@4@$0A@@std@@@2@@Z 0051c7a0 f i Zenilib:zenilib.obj
 0002:0009b950       ?_Max@?$_Tree@V?$_Tset_traits@PBVTask@Zeni@@U?$less@PBVTask@Zeni@@@std@@V?$allocator@PBVTask@Zeni@@@4@$0A@@std@@@std@@KAPAU_Node@?$_Tree_nod@V?$_Tset_traits@PBVTask@Zeni@@U?$less@PBVTask@Zeni@@@std@@V?$allocator@PBVTask@Zeni@@@4@$0A@@std@@@2@PAU342@@Z 0051c950 f i Zenilib:zenilib.obj
 0002:0009b9d0       ?_Rmost@?$_Tree@V?$_Tset_traits@PBVTask@Zeni@@U?$less@PBVTask@Zeni@@@std@@V?$allocator@PBVTask@Zeni@@@4@$0A@@std@@@std@@IBEAAPAU_Node@?$_Tree_nod@V?$_Tset_traits@PBVTask@Zeni@@U?$less@PBVTask@Zeni@@@std@@V?$allocator@PBVTask@Zeni@@@4@$0A@@std@@@2@XZ 0051c9d0 f i Zenilib:zenilib.obj
 0002:0009ba30       ?_Root@?$_Tree@V?$_Tset_traits@PBVTask@Zeni@@U?$less@PBVTask@Zeni@@@std@@V?$allocator@PBVTask@Zeni@@@4@$0A@@std@@@std@@IBEAAPAU_Node@?$_Tree_nod@V?$_Tset_traits@PBVTask@Zeni@@U?$less@PBVTask@Zeni@@@std@@V?$allocator@PBVTask@Zeni@@@4@$0A@@std@@@2@XZ 0051ca30 f i Zenilib:zenilib.obj
 0002:0009ba90       ?_Rrotate@?$_Tree@V?$_Tset_traits@PBVTask@Zeni@@U?$less@PBVTask@Zeni@@@std@@V?$allocator@PBVTask@Zeni@@@4@$0A@@std@@@std@@IAEXPAU_Node@?$_Tree_nod@V?$_Tset_traits@PBVTask@Zeni@@U?$less@PBVTask@Zeni@@@std@@V?$allocator@PBVTask@Zeni@@@4@$0A@@std@@@2@@Z 0051ca90 f i Zenilib:zenilib.obj
 0002:0009bc40       ?_Orphan_ptr@?$_Tree@V?$_Tset_traits@PBVTask@Zeni@@U?$less@PBVTask@Zeni@@@std@@V?$allocator@PBVTask@Zeni@@@4@$0A@@std@@@std@@IBEXAAV12@PAU_Node@?$_Tree_nod@V?$_Tset_traits@PBVTask@Zeni@@U?$less@PBVTask@Zeni@@@std@@V?$allocator@PBVTask@Zeni@@@4@$0A@@std@@@2@@Z 0051cc40 f i Zenilib:zenilib.obj
 0002:0009bd60       ?destroy@?$allocator@U_Node@?$_Tree_nod@V?$_Tset_traits@PBVTask@Zeni@@U?$less@PBVTask@Zeni@@@std@@V?$allocator@PBVTask@Zeni@@@4@$0A@@std@@@std@@@std@@QAEXPAU_Node@?$_Tree_nod@V?$_Tset_traits@PBVTask@Zeni@@U?$less@PBVTask@Zeni@@@std@@V?$allocator@PBVTask@Zeni@@@4@$0A@@std@@@2@@Z 0051cd60 f i Zenilib:zenilib.obj
 0002:0009bdc0       ?_Mynode@const_iterator@?$_Tree@V?$_Tset_traits@PBVTask@Zeni@@U?$less@PBVTask@Zeni@@@std@@V?$allocator@PBVTask@Zeni@@@4@$0A@@std@@@std@@QBEPAU_Node@?$_Tree_nod@V?$_Tset_traits@PBVTask@Zeni@@U?$less@PBVTask@Zeni@@@std@@V?$allocator@PBVTask@Zeni@@@4@$0A@@std@@@3@XZ 0051cdc0 f i Zenilib:zenilib.obj
 0002:0009be00       ?_Init@?$_Tree@V?$_Tset_traits@PBVTask@Zeni@@U?$less@PBVTask@Zeni@@@std@@V?$allocator@PBVTask@Zeni@@@4@$0A@@std@@@std@@IAEXXZ 0051ce00 f i Zenilib:zenilib.obj
 0002:0009bec0       ??0?$_Tree_val@V?$_Tset_traits@PBVTask@Zeni@@U?$less@PBVTask@Zeni@@@std@@V?$allocator@PBVTask@Zeni@@@4@$0A@@std@@@std@@IAE@ABU?$less@PBVTask@Zeni@@@1@V?$allocator@PBVTask@Zeni@@@1@@Z 0051cec0 f i Zenilib:zenilib.obj
 0002:0009bf50       ??0?$allocator@PBVTask@Zeni@@@std@@QAE@ABV01@@Z 0051cf50 f i Zenilib:zenilib.obj
 0002:0009bf90       ?destroy@?$allocator@PAU_Node@?$_Tree_nod@V?$_Tset_traits@PBVTask@Zeni@@U?$less@PBVTask@Zeni@@@std@@V?$allocator@PBVTask@Zeni@@@4@$0A@@std@@@std@@@std@@QAEXPAPAU_Node@?$_Tree_nod@V?$_Tset_traits@PBVTask@Zeni@@U?$less@PBVTask@Zeni@@@std@@V?$allocator@PBVTask@Zeni@@@4@$0A@@std@@@2@@Z 0051cf90 f i Zenilib:zenilib.obj
 0002:0009bff0       ??0const_iterator@?$_Tree@V?$_Tset_traits@PBVTask@Zeni@@U?$less@PBVTask@Zeni@@@std@@V?$allocator@PBVTask@Zeni@@@4@$0A@@std@@@std@@QAE@PAU_Node@?$_Tree_nod@V?$_Tset_traits@PBVTask@Zeni@@U?$less@PBVTask@Zeni@@@std@@V?$allocator@PBVTask@Zeni@@@4@$0A@@std@@@2@PBV12@@Z 0051cff0 f i Zenilib:zenilib.obj
 0002:0009c0b0       ?max_size@?$vector@UChunk@Split_UDP_Socket@Zeni@@V?$allocator@UChunk@Split_UDP_Socket@Zeni@@@std@@@std@@QBEIXZ 0051d0b0 f i Zenilib:zenilib.obj
 0002:0009c110       ?_Destroy@?$vector@UChunk@Split_UDP_Socket@Zeni@@V?$allocator@UChunk@Split_UDP_Socket@Zeni@@@std@@@std@@IAEXPAUChunk@Split_UDP_Socket@Zeni@@0@Z 0051d110 f i Zenilib:zenilib.obj
 0002:0009c180       ?_Ufill@?$vector@UChunk@Split_UDP_Socket@Zeni@@V?$allocator@UChunk@Split_UDP_Socket@Zeni@@@std@@@std@@IAEPAUChunk@Split_UDP_Socket@Zeni@@PAU345@IABU345@@Z 0051d180 f i Zenilib:zenilib.obj
 0002:0009c200       ?_Xlen@?$vector@UChunk@Split_UDP_Socket@Zeni@@V?$allocator@UChunk@Split_UDP_Socket@Zeni@@@std@@@std@@KAXXZ 0051d200 f i Zenilib:zenilib.obj
 0002:0009c2f0       ??0?$_Container_base_aux_alloc_empty@V?$allocator@UChunk@Split_UDP_Socket@Zeni@@@std@@@std@@IAE@V?$allocator@UChunk@Split_UDP_Socket@Zeni@@@1@@Z 0051d2f0 f i Zenilib:zenilib.obj
 0002:0009c360       ??0?$allocator@UChunk@Split_UDP_Socket@Zeni@@@std@@QAE@ABV01@@Z 0051d360 f i Zenilib:zenilib.obj
 0002:0009c3a0       ?deallocate@?$allocator@UChunk@Split_UDP_Socket@Zeni@@@std@@QAEXPAUChunk@Split_UDP_Socket@Zeni@@I@Z 0051d3a0 f i Zenilib:zenilib.obj
 0002:0009c400       ?allocate@?$allocator@UChunk@Split_UDP_Socket@Zeni@@@std@@QAEPAUChunk@Split_UDP_Socket@Zeni@@I@Z 0051d400 f i Zenilib:zenilib.obj
 0002:0009c460       ?_Prevnode@?$list@PAVChunk_Set@Split_UDP_Socket@Zeni@@V?$allocator@PAVChunk_Set@Split_UDP_Socket@Zeni@@@std@@@std@@KAAAPAU_Node@?$_List_nod@PAVChunk_Set@Split_UDP_Socket@Zeni@@V?$allocator@PAVChunk_Set@Split_UDP_Socket@Zeni@@@std@@@2@PAU342@@Z 0051d460 f i Zenilib:zenilib.obj
 0002:0009c4a0       ?_Myval@?$list@PAVChunk_Set@Split_UDP_Socket@Zeni@@V?$allocator@PAVChunk_Set@Split_UDP_Socket@Zeni@@@std@@@std@@KAAAPAVChunk_Set@Split_UDP_Socket@Zeni@@PAU_Node@?$_List_nod@PAVChunk_Set@Split_UDP_Socket@Zeni@@V?$allocator@PAVChunk_Set@Split_UDP_Socket@Zeni@@@std@@@2@@Z 0051d4a0 f i Zenilib:zenilib.obj
 0002:0009c4e0       ?_Make_iter@?$list@PAVChunk_Set@Split_UDP_Socket@Zeni@@V?$allocator@PAVChunk_Set@Split_UDP_Socket@Zeni@@@std@@@std@@QBE?AV?$_Iterator@$00@12@V?$_Const_iterator@$00@12@@Z 0051d4e0 f i Zenilib:zenilib.obj
 0002:0009c5b0       ?clear@?$list@PAVChunk_Set@Split_UDP_Socket@Zeni@@V?$allocator@PAVChunk_Set@Split_UDP_Socket@Zeni@@@std@@@std@@QAEXXZ 0051d5b0 f i Zenilib:zenilib.obj
 0002:0009c6c0       ?_Buynode@?$list@PAVChunk_Set@Split_UDP_Socket@Zeni@@V?$allocator@PAVChunk_Set@Split_UDP_Socket@Zeni@@@std@@@std@@IAEPAU_Node@?$_List_nod@PAVChunk_Set@Split_UDP_Socket@Zeni@@V?$allocator@PAVChunk_Set@Split_UDP_Socket@Zeni@@@std@@@2@PAU342@0ABQAVChunk_Set@Split_UDP_Socket@Zeni@@@Z 0051d6c0 f i Zenilib:zenilib.obj
 0002:0009c8a0       ?_Incsize@?$list@PAVChunk_Set@Split_UDP_Socket@Zeni@@V?$allocator@PAVChunk_Set@Split_UDP_Socket@Zeni@@@std@@@std@@IAEXI@Z 0051d8a0 f i Zenilib:zenilib.obj
 0002:0009c9c0       ?_Orphan_ptr@?$list@PAVChunk_Set@Split_UDP_Socket@Zeni@@V?$allocator@PAVChunk_Set@Split_UDP_Socket@Zeni@@@std@@@std@@IBEXAAV12@PAU_Node@?$_List_nod@PAVChunk_Set@Split_UDP_Socket@Zeni@@V?$allocator@PAVChunk_Set@Split_UDP_Socket@Zeni@@@std@@@2@@Z 0051d9c0 f i Zenilib:zenilib.obj
 0002:0009cae0       ??0?$_List_ptr@PAVChunk_Set@Split_UDP_Socket@Zeni@@V?$allocator@PAVChunk_Set@Split_UDP_Socket@Zeni@@@std@@@std@@IAE@V?$allocator@PAVChunk_Set@Split_UDP_Socket@Zeni@@@1@@Z 0051dae0 f i Zenilib:zenilib.obj
 0002:0009cb60       ??0?$allocator@PAVChunk_Set@Split_UDP_Socket@Zeni@@@std@@QAE@ABV01@@Z 0051db60 f i Zenilib:zenilib.obj
 0002:0009cba0       ?deallocate@?$allocator@U_Node@?$_List_nod@PAVChunk_Set@Split_UDP_Socket@Zeni@@V?$allocator@PAVChunk_Set@Split_UDP_Socket@Zeni@@@std@@@std@@@std@@QAEXPAU_Node@?$_List_nod@PAVChunk_Set@Split_UDP_Socket@Zeni@@V?$allocator@PAVChunk_Set@Split_UDP_Socket@Zeni@@@std@@@2@I@Z 0051dba0 f i Zenilib:zenilib.obj
 0002:0009cc00       ?allocate@?$allocator@U_Node@?$_List_nod@PAVChunk_Set@Split_UDP_Socket@Zeni@@V?$allocator@PAVChunk_Set@Split_UDP_Socket@Zeni@@@std@@@std@@@std@@QAEPAU_Node@?$_List_nod@PAVChunk_Set@Split_UDP_Socket@Zeni@@V?$allocator@PAVChunk_Set@Split_UDP_Socket@Zeni@@@std@@@2@I@Z 0051dc00 f i Zenilib:zenilib.obj
 0002:0009cc60       ?destroy@?$allocator@U_Node@?$_List_nod@PAVChunk_Set@Split_UDP_Socket@Zeni@@V?$allocator@PAVChunk_Set@Split_UDP_Socket@Zeni@@@std@@@std@@@std@@QAEXPAU_Node@?$_List_nod@PAVChunk_Set@Split_UDP_Socket@Zeni@@V?$allocator@PAVChunk_Set@Split_UDP_Socket@Zeni@@@std@@@2@@Z 0051dc60 f i Zenilib:zenilib.obj
 0002:0009ccc0       ?construct@?$allocator@PAU_Node@?$_List_nod@PAVChunk_Set@Split_UDP_Socket@Zeni@@V?$allocator@PAVChunk_Set@Split_UDP_Socket@Zeni@@@std@@@std@@@std@@QAEXPAPAU_Node@?$_List_nod@PAVChunk_Set@Split_UDP_Socket@Zeni@@V?$allocator@PAVChunk_Set@Split_UDP_Socket@Zeni@@@std@@@2@ABQAU342@@Z 0051dcc0 f i Zenilib:zenilib.obj
 0002:0009cd20       ?destroy@?$allocator@PAU_Node@?$_List_nod@PAVChunk_Set@Split_UDP_Socket@Zeni@@V?$allocator@PAVChunk_Set@Split_UDP_Socket@Zeni@@@std@@@std@@@std@@QAEXPAPAU_Node@?$_List_nod@PAVChunk_Set@Split_UDP_Socket@Zeni@@V?$allocator@PAVChunk_Set@Split_UDP_Socket@Zeni@@@std@@@2@@Z 0051dd20 f i Zenilib:zenilib.obj
 0002:0009cd80       ??0?$_Const_iterator@$00@?$list@PAVChunk_Set@Split_UDP_Socket@Zeni@@V?$allocator@PAVChunk_Set@Split_UDP_Socket@Zeni@@@std@@@std@@QAE@PAU_Node@?$_List_nod@PAVChunk_Set@Split_UDP_Socket@Zeni@@V?$allocator@PAVChunk_Set@Split_UDP_Socket@Zeni@@@std@@@2@PBV12@@Z 0051dd80 f i Zenilib:zenilib.obj
 0002:0009ce40       ??E?$_Const_iterator@$00@?$list@PAVChunk_Set@Split_UDP_Socket@Zeni@@V?$allocator@PAVChunk_Set@Split_UDP_Socket@Zeni@@@std@@@std@@QAE?AV012@H@Z 0051de40 f i Zenilib:zenilib.obj
 0002:0009cf60       ??F?$_Const_iterator@$00@?$list@PAVChunk_Set@Split_UDP_Socket@Zeni@@V?$allocator@PAVChunk_Set@Split_UDP_Socket@Zeni@@@std@@@std@@QAEAAV012@XZ 0051df60 f i Zenilib:zenilib.obj
 0002:0009d0a0       ?_Mynode@?$_Const_iterator@$00@?$list@PAVChunk_Set@Split_UDP_Socket@Zeni@@V?$allocator@PAVChunk_Set@Split_UDP_Socket@Zeni@@@std@@@std@@QBEPAU_Node@?$_List_nod@PAVChunk_Set@Split_UDP_Socket@Zeni@@V?$allocator@PAVChunk_Set@Split_UDP_Socket@Zeni@@@std@@@3@XZ 0051e0a0 f i Zenilib:zenilib.obj
 0002:0009d0e0       ?_Compat@?$_Const_iterator@$00@?$list@PAVChunk_Set@Split_UDP_Socket@Zeni@@V?$allocator@PAVChunk_Set@Split_UDP_Socket@Zeni@@@std@@@std@@QBEXABV123@@Z 0051e0e0 f i Zenilib:zenilib.obj
 0002:0009d1f0       ?_Get_iter_from_vec@?$_Hash@V?$_Hmap_traits@KVSound_Buffer@Zeni@@V?$hash_compare@KU?$less@K@std@@@stdext@@V?$allocator@U?$pair@$$CBKVSound_Buffer@Zeni@@@std@@@std@@$0A@@stdext@@@stdext@@QBE?AV?$_Iterator@$00@?$list@U?$pair@$$CBKVSound_Buffer@Zeni@@@std@@V?$allocator@U?$pair@$$CBKVSound_Buffer@Zeni@@@std@@@2@@std@@ABV345@@Z 0051e1f0 f i Zenilib:zenilib.obj
 0002:0009d270       ?begin@?$_Hash@V?$_Hmap_traits@KVSound_Buffer@Zeni@@V?$hash_compare@KU?$less@K@std@@@stdext@@V?$allocator@U?$pair@$$CBKVSound_Buffer@Zeni@@@std@@@std@@$0A@@stdext@@@stdext@@QAE?AV?$_Iterator@$00@?$list@U?$pair@$$CBKVSound_Buffer@Zeni@@@std@@V?$allocator@U?$pair@$$CBKVSound_Buffer@Zeni@@@std@@@2@@std@@XZ 0051e270 f i Zenilib:zenilib.obj
 0002:0009d2f0       ?erase@?$_Hash@V?$_Hmap_traits@KVSound_Buffer@Zeni@@V?$hash_compare@KU?$less@K@std@@@stdext@@V?$allocator@U?$pair@$$CBKVSound_Buffer@Zeni@@@std@@@std@@$0A@@stdext@@@stdext@@QAE?AV?$_Iterator@$00@?$list@U?$pair@$$CBKVSound_Buffer@Zeni@@@std@@V?$allocator@U?$pair@$$CBKVSound_Buffer@Zeni@@@std@@@2@@std@@V?$_Const_iterator@$00@45@@Z 0051e2f0 f i Zenilib:zenilib.obj
 0002:0009d470       ?_Hashval@?$_Hash@V?$_Hmap_traits@KVSound_Buffer@Zeni@@V?$hash_compare@KU?$less@K@std@@@stdext@@V?$allocator@U?$pair@$$CBKVSound_Buffer@Zeni@@@std@@@std@@$0A@@stdext@@@stdext@@IBEIABK@Z 0051e470 f i Zenilib:zenilib.obj
 0002:0009d500       ?_Insert@?$_Hash@V?$_Hmap_traits@KVSound_Buffer@Zeni@@V?$hash_compare@KU?$less@K@std@@@stdext@@V?$allocator@U?$pair@$$CBKVSound_Buffer@Zeni@@@std@@@std@@$0A@@stdext@@@stdext@@IAE?AU?$pair@V?$_Iterator@$00@?$list@U?$pair@$$CBKVSound_Buffer@Zeni@@@std@@V?$allocator@U?$pair@$$CBKVSound_Buffer@Zeni@@@std@@@2@@std@@_N@std@@ABU?$pair@$$CBKVSound_Buffer@Zeni@@@4@V?$_Iterator@$00@?$list@U?$pair@$$CBKVSound_Buffer@Zeni@@@std@@V?$allocator@U?$pair@$$CBKVSound_Buffer@Zeni@@@std@@@2@@4@@Z 0051e500 f i Zenilib:zenilib.obj
 0002:0009daf0       ??0?$_Hmap_traits@KVSound_Buffer@Zeni@@V?$hash_compare@KU?$less@K@std@@@stdext@@V?$allocator@U?$pair@$$CBKVSound_Buffer@Zeni@@@std@@@std@@$0A@@stdext@@QAE@ABV?$hash_compare@KU?$less@K@std@@@1@@Z 0051eaf0 f i Zenilib:zenilib.obj
 0002:0009db60       ?_Kfn@?$_Hmap_traits@KVSound_Buffer@Zeni@@V?$hash_compare@KU?$less@K@std@@@stdext@@V?$allocator@U?$pair@$$CBKVSound_Buffer@Zeni@@@std@@@std@@$0A@@stdext@@SAABKABU?$pair@$$CBKVSound_Buffer@Zeni@@@std@@@Z 0051eb60 f i Zenilib:zenilib.obj
 0002:0009dba0       ?_Nextnode@?$list@U?$pair@$$CBKVSound_Buffer@Zeni@@@std@@V?$allocator@U?$pair@$$CBKVSound_Buffer@Zeni@@@std@@@2@@std@@KAAAPAU_Node@?$_List_nod@U?$pair@$$CBKVSound_Buffer@Zeni@@@std@@V?$allocator@U?$pair@$$CBKVSound_Buffer@Zeni@@@std@@@2@@2@PAU342@@Z 0051eba0 f i Zenilib:zenilib.obj
 0002:0009dbe0       ?_Prevnode@?$list@U?$pair@$$CBKVSound_Buffer@Zeni@@@std@@V?$allocator@U?$pair@$$CBKVSound_Buffer@Zeni@@@std@@@2@@std@@KAAAPAU_Node@?$_List_nod@U?$pair@$$CBKVSound_Buffer@Zeni@@@std@@V?$allocator@U?$pair@$$CBKVSound_Buffer@Zeni@@@std@@@2@@2@PAU342@@Z 0051ebe0 f i Zenilib:zenilib.obj
 0002:0009dc20       ?_Myval@?$list@U?$pair@$$CBKVSound_Buffer@Zeni@@@std@@V?$allocator@U?$pair@$$CBKVSound_Buffer@Zeni@@@std@@@2@@std@@KAAAU?$pair@$$CBKVSound_Buffer@Zeni@@@2@PAU_Node@?$_List_nod@U?$pair@$$CBKVSound_Buffer@Zeni@@@std@@V?$allocator@U?$pair@$$CBKVSound_Buffer@Zeni@@@std@@@2@@2@@Z 0051ec20 f i Zenilib:zenilib.obj
 0002:0009dc60       ??0?$list@U?$pair@$$CBKVSound_Buffer@Zeni@@@std@@V?$allocator@U?$pair@$$CBKVSound_Buffer@Zeni@@@std@@@2@@std@@QAE@ABV?$allocator@U?$pair@$$CBKVSound_Buffer@Zeni@@@std@@@1@@Z 0051ec60 f i Zenilib:zenilib.obj
 0002:0009dd30       ?end@?$list@U?$pair@$$CBKVSound_Buffer@Zeni@@@std@@V?$allocator@U?$pair@$$CBKVSound_Buffer@Zeni@@@std@@@2@@std@@QAE?AV?$_Iterator@$00@12@XZ 0051ed30 f i Zenilib:zenilib.obj
 0002:0009ddc0       ?_Make_iter@?$list@U?$pair@$$CBKVSound_Buffer@Zeni@@@std@@V?$allocator@U?$pair@$$CBKVSound_Buffer@Zeni@@@std@@@2@@std@@QBE?AV?$_Iterator@$00@12@V?$_Const_iterator@$00@12@@Z 0051edc0 f i Zenilib:zenilib.obj
 0002:0009de90       ?_Tidy@?$list@U?$pair@$$CBKVSound_Buffer@Zeni@@@std@@V?$allocator@U?$pair@$$CBKVSound_Buffer@Zeni@@@std@@@2@@std@@IAEXXZ 0051ee90 f i Zenilib:zenilib.obj
 0002:0009df50       ?_Orphan_ptr@?$list@U?$pair@$$CBKVSound_Buffer@Zeni@@@std@@V?$allocator@U?$pair@$$CBKVSound_Buffer@Zeni@@@std@@@2@@std@@IBEXAAV12@PAU_Node@?$_List_nod@U?$pair@$$CBKVSound_Buffer@Zeni@@@std@@V?$allocator@U?$pair@$$CBKVSound_Buffer@Zeni@@@std@@@2@@2@@Z 0051ef50 f i Zenilib:zenilib.obj
 0002:0009e070       ??1?$_Container_base_aux_alloc_empty@V?$allocator@U?$pair@$$CBKVSound_Buffer@Zeni@@@std@@@std@@@std@@IAE@XZ 0051f070 f i Zenilib:zenilib.obj
 0002:0009e0d0       ?deallocate@?$allocator@U_Node@?$_List_nod@U?$pair@$$CBKVSound_Buffer@Zeni@@@std@@V?$allocator@U?$pair@$$CBKVSound_Buffer@Zeni@@@std@@@2@@std@@@std@@QAEXPAU_Node@?$_List_nod@U?$pair@$$CBKVSound_Buffer@Zeni@@@std@@V?$allocator@U?$pair@$$CBKVSound_Buffer@Zeni@@@std@@@2@@2@I@Z 0051f0d0 f i Zenilib:zenilib.obj
 0002:0009e130       ?destroy@?$allocator@U_Node@?$_List_nod@U?$pair@$$CBKVSound_Buffer@Zeni@@@std@@V?$allocator@U?$pair@$$CBKVSound_Buffer@Zeni@@@std@@@2@@std@@@std@@QAEXPAU_Node@?$_List_nod@U?$pair@$$CBKVSound_Buffer@Zeni@@@std@@V?$allocator@U?$pair@$$CBKVSound_Buffer@Zeni@@@std@@@2@@2@@Z 0051f130 f i Zenilib:zenilib.obj
 0002:0009e190       ??0?$vector@V?$_Iterator@$00@?$list@U?$pair@$$CBKVSound_Buffer@Zeni@@@std@@V?$allocator@U?$pair@$$CBKVSound_Buffer@Zeni@@@std@@@2@@std@@V?$allocator@V?$_Iterator@$00@?$list@U?$pair@$$CBKVSound_Buffer@Zeni@@@std@@V?$allocator@U?$pair@$$CBKVSound_Buffer@Zeni@@@std@@@2@@std@@@3@@std@@QAE@ABV?$allocator@V?$_Iterator@$00@?$list@U?$pair@$$CBKVSound_Buffer@Zeni@@@std@@V?$allocator@U?$pair@$$CBKVSound_Buffer@Zeni@@@std@@@2@@std@@@1@@Z 0051f190 f i Zenilib:zenilib.obj
 0002:0009e250       ??A?$vector@V?$_Iterator@$00@?$list@U?$pair@$$CBKVSound_Buffer@Zeni@@@std@@V?$allocator@U?$pair@$$CBKVSound_Buffer@Zeni@@@std@@@2@@std@@V?$allocator@V?$_Iterator@$00@?$list@U?$pair@$$CBKVSound_Buffer@Zeni@@@std@@V?$allocator@U?$pair@$$CBKVSound_Buffer@Zeni@@@std@@@2@@std@@@3@@std@@QBEABV?$_Iterator@$00@?$list@U?$pair@$$CBKVSound_Buffer@Zeni@@@std@@V?$allocator@U?$pair@$$CBKVSound_Buffer@Zeni@@@std@@@2@@1@I@Z 0051f250 f i Zenilib:zenilib.obj
 0002:0009e3d0       ??A?$vector@V?$_Iterator@$00@?$list@U?$pair@$$CBKVSound_Buffer@Zeni@@@std@@V?$allocator@U?$pair@$$CBKVSound_Buffer@Zeni@@@std@@@2@@std@@V?$allocator@V?$_Iterator@$00@?$list@U?$pair@$$CBKVSound_Buffer@Zeni@@@std@@V?$allocator@U?$pair@$$CBKVSound_Buffer@Zeni@@@std@@@2@@std@@@3@@std@@QAEAAV?$_Iterator@$00@?$list@U?$pair@$$CBKVSound_Buffer@Zeni@@@std@@V?$allocator@U?$pair@$$CBKVSound_Buffer@Zeni@@@std@@@2@@1@I@Z 0051f3d0 f i Zenilib:zenilib.obj
 0002:0009e550       ?assign@?$vector@V?$_Iterator@$00@?$list@U?$pair@$$CBKVSound_Buffer@Zeni@@@std@@V?$allocator@U?$pair@$$CBKVSound_Buffer@Zeni@@@std@@@2@@std@@V?$allocator@V?$_Iterator@$00@?$list@U?$pair@$$CBKVSound_Buffer@Zeni@@@std@@V?$allocator@U?$pair@$$CBKVSound_Buffer@Zeni@@@std@@@2@@std@@@3@@std@@QAEXIABV?$_Iterator@$00@?$list@U?$pair@$$CBKVSound_Buffer@Zeni@@@std@@V?$allocator@U?$pair@$$CBKVSound_Buffer@Zeni@@@std@@@2@@2@@Z 0051f550 f i Zenilib:zenilib.obj
 0002:0009e5b0       ?_Tidy@?$vector@V?$_Iterator@$00@?$list@U?$pair@$$CBKVSound_Buffer@Zeni@@@std@@V?$allocator@U?$pair@$$CBKVSound_Buffer@Zeni@@@std@@@2@@std@@V?$allocator@V?$_Iterator@$00@?$list@U?$pair@$$CBKVSound_Buffer@Zeni@@@std@@V?$allocator@U?$pair@$$CBKVSound_Buffer@Zeni@@@std@@@2@@std@@@3@@std@@IAEXXZ 0051f5b0 f i Zenilib:zenilib.obj
 0002:0009e690       ??1?$_Container_base_aux_alloc_empty@V?$allocator@V?$_Iterator@$00@?$list@U?$pair@$$CBKVSound_Buffer@Zeni@@@std@@V?$allocator@U?$pair@$$CBKVSound_Buffer@Zeni@@@std@@@2@@std@@@std@@@std@@IAE@XZ 0051f690 f i Zenilib:zenilib.obj
 0002:0009e6f0       ?_Parent@?$_Tree@V?$_Tset_traits@PAVRadio_Button@Zeni@@U?$less@PAVRadio_Button@Zeni@@@std@@V?$allocator@PAVRadio_Button@Zeni@@@4@$0A@@std@@@std@@KAAAPAU_Node@?$_Tree_nod@V?$_Tset_traits@PAVRadio_Button@Zeni@@U?$less@PAVRadio_Button@Zeni@@@std@@V?$allocator@PAVRadio_Button@Zeni@@@4@$0A@@std@@@2@PAU342@@Z 0051f6f0 f i Zenilib:zenilib.obj
 0002:0009e730       ?_Min@?$_Tree@V?$_Tset_traits@PAVRadio_Button@Zeni@@U?$less@PAVRadio_Button@Zeni@@@std@@V?$allocator@PAVRadio_Button@Zeni@@@4@$0A@@std@@@std@@KAPAU_Node@?$_Tree_nod@V?$_Tset_traits@PAVRadio_Button@Zeni@@U?$less@PAVRadio_Button@Zeni@@@std@@V?$allocator@PAVRadio_Button@Zeni@@@4@$0A@@std@@@2@PAU342@@Z 0051f730 f i Zenilib:zenilib.obj
 0002:0009e7b0       ?begin@?$vector@HV?$allocator@H@std@@@std@@QAE?AV?$_Vector_iterator@HV?$allocator@H@std@@@2@XZ 0051f7b0 f i Zenilib:zenilib.obj
 0002:0009e840       ?max_size@?$vector@HV?$allocator@H@std@@@std@@QBEIXZ 0051f840 f i Zenilib:zenilib.obj
 0002:0009e8a0       ?erase@?$vector@HV?$allocator@H@std@@@std@@QAE?AV?$_Vector_iterator@HV?$allocator@H@std@@@2@V?$_Vector_const_iterator@HV?$allocator@H@std@@@2@0@Z 0051f8a0 f i Zenilib:zenilib.obj
 0002:0009eb40       ?_Insert_n@?$vector@HV?$allocator@H@std@@@std@@IAEXV?$_Vector_const_iterator@HV?$allocator@H@std@@@2@IABH@Z 0051fb40 f i Zenilib:zenilib.obj
 0002:0009f0a0       ?_Xlen@?$vector@HV?$allocator@H@std@@@std@@KAXXZ 005200a0 f i Zenilib:zenilib.obj
 0002:0009f190       ?_Make_iter@?$vector@ULine@Text_Box@Zeni@@V?$allocator@ULine@Text_Box@Zeni@@@std@@@std@@QBE?AV?$_Vector_iterator@ULine@Text_Box@Zeni@@V?$allocator@ULine@Text_Box@Zeni@@@std@@@2@V?$_Vector_const_iterator@ULine@Text_Box@Zeni@@V?$allocator@ULine@Text_Box@Zeni@@@std@@@2@@Z 00520190 f i Zenilib:zenilib.obj
 0002:0009f260       ?max_size@?$vector@ULine@Text_Box@Zeni@@V?$allocator@ULine@Text_Box@Zeni@@@std@@@std@@QBEIXZ 00520260 f i Zenilib:zenilib.obj
 0002:0009f2c0       ?_Insert_n@?$vector@ULine@Text_Box@Zeni@@V?$allocator@ULine@Text_Box@Zeni@@@std@@@std@@IAEXV?$_Vector_const_iterator@ULine@Text_Box@Zeni@@V?$allocator@ULine@Text_Box@Zeni@@@std@@@2@IABULine@Text_Box@Zeni@@@Z 005202c0 f i Zenilib:zenilib.obj
 0002:0009f8b0       ?_Xlen@?$vector@ULine@Text_Box@Zeni@@V?$allocator@ULine@Text_Box@Zeni@@@std@@@std@@KAXXZ 005208b0 f i Zenilib:zenilib.obj
 0002:0009f9a0       ??0?$_Container_base_aux_alloc_empty@V?$allocator@ULine@Text_Box@Zeni@@@std@@@std@@IAE@V?$allocator@ULine@Text_Box@Zeni@@@1@@Z 005209a0 f i Zenilib:zenilib.obj
 0002:0009fa10       ??0?$allocator@ULine@Text_Box@Zeni@@@std@@QAE@ABV01@@Z 00520a10 f i Zenilib:zenilib.obj
 0002:0009fa50       ?allocate@?$allocator@ULine@Text_Box@Zeni@@@std@@QAEPAULine@Text_Box@Zeni@@I@Z 00520a50 f i Zenilib:zenilib.obj
 0002:0009fab0       ?_Parent@?$_Tree@V?$_Tset_traits@PAVWidget@Zeni@@U?$less@PAVWidget@Zeni@@@std@@V?$allocator@PAVWidget@Zeni@@@4@$0A@@std@@@std@@KAAAPAU_Node@?$_Tree_nod@V?$_Tset_traits@PAVWidget@Zeni@@U?$less@PAVWidget@Zeni@@@std@@V?$allocator@PAVWidget@Zeni@@@4@$0A@@std@@@2@PAU342@@Z 00520ab0 f i Zenilib:zenilib.obj
 0002:0009faf0       ?_Min@?$_Tree@V?$_Tset_traits@PAVWidget@Zeni@@U?$less@PAVWidget@Zeni@@@std@@V?$allocator@PAVWidget@Zeni@@@4@$0A@@std@@@std@@KAPAU_Node@?$_Tree_nod@V?$_Tset_traits@PAVWidget@Zeni@@U?$less@PAVWidget@Zeni@@@std@@V?$allocator@PAVWidget@Zeni@@@4@$0A@@std@@@2@PAU342@@Z 00520af0 f i Zenilib:zenilib.obj
 0002:0009fb70       ??0?$_Const_iterator@$00@?$list@U?$pair@$$CBV?$basic_string@DU?$char_traits@D@std@@V?$allocator@D@2@@std@@K@std@@V?$allocator@U?$pair@$$CBV?$basic_string@DU?$char_traits@D@std@@V?$allocator@D@2@@std@@K@std@@@2@@std@@QAE@XZ 00520b70 f i Zenilib:zenilib.obj
 0002:0009fbd0       ??0?$_Const_iterator@$00@?$list@U?$pair@$$CBV?$basic_string@DU?$char_traits@D@std@@V?$allocator@D@2@@std@@K@std@@V?$allocator@U?$pair@$$CBV?$basic_string@DU?$char_traits@D@std@@V?$allocator@D@2@@std@@K@std@@@2@@std@@QAE@PAU_Node@?$_List_nod@U?$pair@$$CBV?$basic_string@DU?$char_traits@D@std@@V?$allocator@D@2@@std@@K@std@@V?$allocator@U?$pair@$$CBV?$basic_string@DU?$char_traits@D@std@@V?$allocator@D@2@@std@@K@std@@@2@@2@PBV12@@Z 00520bd0 f i Zenilib:zenilib.obj
 0002:0009fc90       ??E?$_Const_iterator@$00@?$list@U?$pair@$$CBV?$basic_string@DU?$char_traits@D@std@@V?$allocator@D@2@@std@@K@std@@V?$allocator@U?$pair@$$CBV?$basic_string@DU?$char_traits@D@std@@V?$allocator@D@2@@std@@K@std@@@2@@std@@QAE?AV012@H@Z 00520c90 f i Zenilib:zenilib.obj
 0002:0009fdb0       ?_Mynode@?$_Const_iterator@$00@?$list@U?$pair@$$CBV?$basic_string@DU?$char_traits@D@std@@V?$allocator@D@2@@std@@K@std@@V?$allocator@U?$pair@$$CBV?$basic_string@DU?$char_traits@D@std@@V?$allocator@D@2@@std@@K@std@@@2@@std@@QBEPAU_Node@?$_List_nod@U?$pair@$$CBV?$basic_string@DU?$char_traits@D@std@@V?$allocator@D@2@@std@@K@std@@V?$allocator@U?$pair@$$CBV?$basic_string@DU?$char_traits@D@std@@V?$allocator@D@2@@std@@K@std@@@2@@3@XZ 00520db0 f i Zenilib:zenilib.obj
 0002:0009fdf0       ??0?$_Const_iterator@$00@?$list@U?$pair@$$CBKVColor@Zeni@@@std@@V?$allocator@U?$pair@$$CBKVColor@Zeni@@@std@@@2@@std@@QAE@XZ 00520df0 f i Zenilib:zenilib.obj
 0002:0009fe50       ??0?$_Const_iterator@$00@?$list@U?$pair@$$CBKVColor@Zeni@@@std@@V?$allocator@U?$pair@$$CBKVColor@Zeni@@@std@@@2@@std@@QAE@PAU_Node@?$_List_nod@U?$pair@$$CBKVColor@Zeni@@@std@@V?$allocator@U?$pair@$$CBKVColor@Zeni@@@std@@@2@@2@PBV12@@Z 00520e50 f i Zenilib:zenilib.obj
 0002:0009ff10       ??E?$_Const_iterator@$00@?$list@U?$pair@$$CBKVColor@Zeni@@@std@@V?$allocator@U?$pair@$$CBKVColor@Zeni@@@std@@@2@@std@@QAEAAV012@XZ 00520f10 f i Zenilib:zenilib.obj
 0002:000a0050       ??E?$_Const_iterator@$00@?$list@U?$pair@$$CBKVColor@Zeni@@@std@@V?$allocator@U?$pair@$$CBKVColor@Zeni@@@std@@@2@@std@@QAE?AV012@H@Z 00521050 f i Zenilib:zenilib.obj
 0002:000a0170       ??9?$_Const_iterator@$00@?$list@U?$pair@$$CBKVColor@Zeni@@@std@@V?$allocator@U?$pair@$$CBKVColor@Zeni@@@std@@@2@@std@@QBE_NABV012@@Z 00521170 f i Zenilib:zenilib.obj
 0002:000a01e0       ??0?$_Iterator@$00@?$list@U?$pair@$$CBV?$basic_string@DU?$char_traits@D@std@@V?$allocator@D@2@@std@@K@std@@V?$allocator@U?$pair@$$CBV?$basic_string@DU?$char_traits@D@std@@V?$allocator@D@2@@std@@K@std@@@2@@std@@QAE@XZ 005211e0 f i Zenilib:zenilib.obj
 0002:000a0240       ??0?$_Iterator@$00@?$list@U?$pair@$$CBV?$basic_string@DU?$char_traits@D@std@@V?$allocator@D@2@@std@@K@std@@V?$allocator@U?$pair@$$CBV?$basic_string@DU?$char_traits@D@std@@V?$allocator@D@2@@std@@K@std@@@2@@std@@QAE@PAU_Node@?$_List_nod@U?$pair@$$CBV?$basic_string@DU?$char_traits@D@std@@V?$allocator@D@2@@std@@K@std@@V?$allocator@U?$pair@$$CBV?$basic_string@DU?$char_traits@D@std@@V?$allocator@D@2@@std@@K@std@@@2@@2@PBV12@@Z 00521240 f i Zenilib:zenilib.obj
 0002:000a02a0       ??0?$_Const_iterator@$00@?$list@U?$pair@$$CBKPAVFont@Zeni@@@std@@V?$allocator@U?$pair@$$CBKPAVFont@Zeni@@@std@@@2@@std@@QAE@XZ 005212a0 f i Zenilib:zenilib.obj
 0002:000a0300       ??0?$_Const_iterator@$00@?$list@U?$pair@$$CBKPAVFont@Zeni@@@std@@V?$allocator@U?$pair@$$CBKPAVFont@Zeni@@@std@@@2@@std@@QAE@PAU_Node@?$_List_nod@U?$pair@$$CBKPAVFont@Zeni@@@std@@V?$allocator@U?$pair@$$CBKPAVFont@Zeni@@@std@@@2@@2@PBV12@@Z 00521300 f i Zenilib:zenilib.obj
 0002:000a03c0       ??E?$_Const_iterator@$00@?$list@U?$pair@$$CBKPAVFont@Zeni@@@std@@V?$allocator@U?$pair@$$CBKPAVFont@Zeni@@@std@@@2@@std@@QAE?AV012@H@Z 005213c0 f i Zenilib:zenilib.obj
 0002:000a04e0       ?_Mynode@?$_Const_iterator@$00@?$list@U?$pair@$$CBKPAVFont@Zeni@@@std@@V?$allocator@U?$pair@$$CBKPAVFont@Zeni@@@std@@@2@@std@@QBEPAU_Node@?$_List_nod@U?$pair@$$CBKPAVFont@Zeni@@@std@@V?$allocator@U?$pair@$$CBKPAVFont@Zeni@@@std@@@2@@3@XZ 005214e0 f i Zenilib:zenilib.obj
 0002:000a0520       ??0?$_Iterator@$00@?$list@U?$pair@$$CBKPAVFont@Zeni@@@std@@V?$allocator@U?$pair@$$CBKPAVFont@Zeni@@@std@@@2@@std@@QAE@XZ 00521520 f i Zenilib:zenilib.obj
 0002:000a0580       ??0?$_Iterator@$00@?$list@U?$pair@$$CBKPAVFont@Zeni@@@std@@V?$allocator@U?$pair@$$CBKPAVFont@Zeni@@@std@@@2@@std@@QAE@PAU_Node@?$_List_nod@U?$pair@$$CBKPAVFont@Zeni@@@std@@V?$allocator@U?$pair@$$CBKPAVFont@Zeni@@@std@@@2@@2@PBV12@@Z 00521580 f i Zenilib:zenilib.obj
 0002:000a05e0       ??0const_iterator@?$_Tree@V?$_Tmap_traits@UZeni_Input_ID@Zeni@@HU?$less@UZeni_Input_ID@Zeni@@@std@@V?$allocator@U?$pair@$$CBUZeni_Input_ID@Zeni@@H@std@@@4@$0A@@std@@@std@@QAE@XZ 005215e0 f i Zenilib:zenilib.obj
 0002:000a0640       ??0const_iterator@?$_Tree@V?$_Tmap_traits@UZeni_Input_ID@Zeni@@HU?$less@UZeni_Input_ID@Zeni@@@std@@V?$allocator@U?$pair@$$CBUZeni_Input_ID@Zeni@@H@std@@@4@$0A@@std@@@std@@QAE@PAU_Node@?$_Tree_nod@V?$_Tmap_traits@UZeni_Input_ID@Zeni@@HU?$less@UZeni_Input_ID@Zeni@@@std@@V?$allocator@U?$pair@$$CBUZeni_Input_ID@Zeni@@H@std@@@4@$0A@@std@@@2@PBV12@@Z 00521640 f i Zenilib:zenilib.obj
 0002:000a0700       ??Econst_iterator@?$_Tree@V?$_Tmap_traits@UZeni_Input_ID@Zeni@@HU?$less@UZeni_Input_ID@Zeni@@@std@@V?$allocator@U?$pair@$$CBUZeni_Input_ID@Zeni@@H@std@@@4@$0A@@std@@@std@@QAEAAV012@XZ 00521700 f i Zenilib:zenilib.obj
 0002:000a0760       ??Fconst_iterator@?$_Tree@V?$_Tmap_traits@UZeni_Input_ID@Zeni@@HU?$less@UZeni_Input_ID@Zeni@@@std@@V?$allocator@U?$pair@$$CBUZeni_Input_ID@Zeni@@H@std@@@4@$0A@@std@@@std@@QAEAAV012@XZ 00521760 f i Zenilib:zenilib.obj
 0002:000a07c0       ??0const_iterator@?$_Tree@V?$_Tmap_traits@HUZeni_Input_ID@Zeni@@U?$less@H@std@@V?$allocator@U?$pair@$$CBHUZeni_Input_ID@Zeni@@@std@@@4@$0A@@std@@@std@@QAE@XZ 005217c0 f i Zenilib:zenilib.obj
 0002:000a0820       ??0const_iterator@?$_Tree@V?$_Tmap_traits@HUZeni_Input_ID@Zeni@@U?$less@H@std@@V?$allocator@U?$pair@$$CBHUZeni_Input_ID@Zeni@@@std@@@4@$0A@@std@@@std@@QAE@PAU_Node@?$_Tree_nod@V?$_Tmap_traits@HUZeni_Input_ID@Zeni@@U?$less@H@std@@V?$allocator@U?$pair@$$CBHUZeni_Input_ID@Zeni@@@std@@@4@$0A@@std@@@2@PBV12@@Z 00521820 f i Zenilib:zenilib.obj
 0002:000a08e0       ??Econst_iterator@?$_Tree@V?$_Tmap_traits@HUZeni_Input_ID@Zeni@@U?$less@H@std@@V?$allocator@U?$pair@$$CBHUZeni_Input_ID@Zeni@@@std@@@4@$0A@@std@@@std@@QAEAAV012@XZ 005218e0 f i Zenilib:zenilib.obj
 0002:000a0940       ??Fconst_iterator@?$_Tree@V?$_Tmap_traits@HUZeni_Input_ID@Zeni@@U?$less@H@std@@V?$allocator@U?$pair@$$CBHUZeni_Input_ID@Zeni@@@std@@@4@$0A@@std@@@std@@QAEAAV012@XZ 00521940 f i Zenilib:zenilib.obj
 0002:000a09a0       ?_Ufill@?$vector@V?$basic_string@DU?$char_traits@D@std@@V?$allocator@D@2@@std@@V?$allocator@V?$basic_string@DU?$char_traits@D@std@@V?$allocator@D@2@@std@@@2@@std@@IAEPAV?$basic_string@DU?$char_traits@D@std@@V?$allocator@D@2@@2@PAV32@IABV32@@Z 005219a0 f i Zenilib:zenilib.obj
 0002:000a0a20       ?_Compat@?$_Vector_const_iterator@UChunk@Split_UDP_Socket@Zeni@@V?$allocator@UChunk@Split_UDP_Socket@Zeni@@@std@@@std@@QBEXABV12@@Z 00521a20 f i Zenilib:zenilib.obj
 0002:000a0b20       ?max_size@?$vector@DV?$allocator@D@std@@@std@@QBEIXZ 00521b20 f i Zenilib:zenilib.obj
 0002:000a0b80       ?_Destroy@?$vector@DV?$allocator@D@std@@@std@@IAEXPAD0@Z 00521b80 f i Zenilib:zenilib.obj
 0002:000a0bf0       ?_Xlen@?$vector@DV?$allocator@D@std@@@std@@KAXXZ 00521bf0 f i Zenilib:zenilib.obj
 0002:000a0ce0       ??0?$_Container_base_aux_alloc_empty@V?$allocator@D@std@@@std@@IAE@V?$allocator@D@1@@Z 00521ce0 f i Zenilib:zenilib.obj
 0002:000a0d50       ??0?$_Vector_const_iterator@DV?$allocator@D@std@@@std@@QAE@PADPBV_Container_base_secure@1@@Z 00521d50 f i Zenilib:zenilib.obj
 0002:000a0e90       ??0?$_Const_iterator@$00@?$list@U?$pair@$$CBKVSound_Buffer@Zeni@@@std@@V?$allocator@U?$pair@$$CBKVSound_Buffer@Zeni@@@std@@@2@@std@@QAE@XZ 00521e90 f i Zenilib:zenilib.obj
 0002:000a0ef0       ??0?$_Const_iterator@$00@?$list@U?$pair@$$CBKVSound_Buffer@Zeni@@@std@@V?$allocator@U?$pair@$$CBKVSound_Buffer@Zeni@@@std@@@2@@std@@QAE@PAU_Node@?$_List_nod@U?$pair@$$CBKVSound_Buffer@Zeni@@@std@@V?$allocator@U?$pair@$$CBKVSound_Buffer@Zeni@@@std@@@2@@2@PBV12@@Z 00521ef0 f i Zenilib:zenilib.obj
 0002:000a0fb0       ??E?$_Const_iterator@$00@?$list@U?$pair@$$CBKVSound_Buffer@Zeni@@@std@@V?$allocator@U?$pair@$$CBKVSound_Buffer@Zeni@@@std@@@2@@std@@QAEAAV012@XZ 00521fb0 f i Zenilib:zenilib.obj
 0002:000a10f0       ??E?$_Const_iterator@$00@?$list@U?$pair@$$CBKVSound_Buffer@Zeni@@@std@@V?$allocator@U?$pair@$$CBKVSound_Buffer@Zeni@@@std@@@2@@std@@QAE?AV012@H@Z 005220f0 f i Zenilib:zenilib.obj
 0002:000a1210       ??9?$_Const_iterator@$00@?$list@U?$pair@$$CBKVSound_Buffer@Zeni@@@std@@V?$allocator@U?$pair@$$CBKVSound_Buffer@Zeni@@@std@@@2@@std@@QBE_NABV012@@Z 00522210 f i Zenilib:zenilib.obj
 0002:000a1280       ??0?$_Iterator@$00@?$list@U?$pair@$$CBKPAVTexture@Zeni@@@std@@V?$allocator@U?$pair@$$CBKPAVTexture@Zeni@@@std@@@2@@std@@QAE@XZ 00522280 f i Zenilib:zenilib.obj
 0002:000a12e0       ??0?$_Iterator@$00@?$list@U?$pair@$$CBKPAVTexture@Zeni@@@std@@V?$allocator@U?$pair@$$CBKPAVTexture@Zeni@@@std@@@2@@std@@QAE@PAU_Node@?$_List_nod@U?$pair@$$CBKPAVTexture@Zeni@@@std@@V?$allocator@U?$pair@$$CBKPAVTexture@Zeni@@@std@@@2@@2@PBV12@@Z 005222e0 f i Zenilib:zenilib.obj
 0002:000a1340       ??0?$_Const_iterator@$00@?$list@U?$pair@$$CBKPAVTexture@Zeni@@@std@@V?$allocator@U?$pair@$$CBKPAVTexture@Zeni@@@std@@@2@@std@@QAE@XZ 00522340 f i Zenilib:zenilib.obj
 0002:000a13a0       ??0?$_Const_iterator@$00@?$list@U?$pair@$$CBKPAVTexture@Zeni@@@std@@V?$allocator@U?$pair@$$CBKPAVTexture@Zeni@@@std@@@2@@std@@QAE@PAU_Node@?$_List_nod@U?$pair@$$CBKPAVTexture@Zeni@@@std@@V?$allocator@U?$pair@$$CBKPAVTexture@Zeni@@@std@@@2@@2@PBV12@@Z 005223a0 f i Zenilib:zenilib.obj
 0002:000a1460       ??E?$_Const_iterator@$00@?$list@U?$pair@$$CBKPAVTexture@Zeni@@@std@@V?$allocator@U?$pair@$$CBKPAVTexture@Zeni@@@std@@@2@@std@@QAE?AV012@H@Z 00522460 f i Zenilib:zenilib.obj
 0002:000a1580       ?_Mynode@?$_Const_iterator@$00@?$list@U?$pair@$$CBKPAVTexture@Zeni@@@std@@V?$allocator@U?$pair@$$CBKPAVTexture@Zeni@@@std@@@2@@std@@QBEPAU_Node@?$_List_nod@U?$pair@$$CBKPAVTexture@Zeni@@@std@@V?$allocator@U?$pair@$$CBKPAVTexture@Zeni@@@std@@@2@@3@XZ 00522580 f i Zenilib:zenilib.obj
 0002:000a15c0       ??H?$_Vector_iterator@PAV?$Triangle@VVertex3f_Color@Zeni@@@Zeni@@V?$allocator@PAV?$Triangle@VVertex3f_Color@Zeni@@@Zeni@@@std@@@std@@QBE?AV01@H@Z 005225c0 f i Zenilib:zenilib.obj
 0002:000a16e0       ??0?$_Vector_const_iterator@PAV?$Triangle@VVertex3f_Color@Zeni@@@Zeni@@V?$allocator@PAV?$Triangle@VVertex3f_Color@Zeni@@@Zeni@@@std@@@std@@QAE@PAPAV?$Triangle@VVertex3f_Color@Zeni@@@Zeni@@PBV_Container_base_secure@1@@Z 005226e0 f i Zenilib:zenilib.obj
 0002:000a1820       ??G?$_Vector_const_iterator@PAV?$Triangle@VVertex3f_Color@Zeni@@@Zeni@@V?$allocator@PAV?$Triangle@VVertex3f_Color@Zeni@@@Zeni@@@std@@@std@@QBEHABV01@@Z 00522820 f i Zenilib:zenilib.obj
 0002:000a1890       ??H?$_Vector_iterator@PAV?$Triangle@VVertex3f_Texture@Zeni@@@Zeni@@V?$allocator@PAV?$Triangle@VVertex3f_Texture@Zeni@@@Zeni@@@std@@@std@@QBE?AV01@H@Z 00522890 f i Zenilib:zenilib.obj
 0002:000a19b0       ??0?$_Vector_const_iterator@PAV?$Triangle@VVertex3f_Texture@Zeni@@@Zeni@@V?$allocator@PAV?$Triangle@VVertex3f_Texture@Zeni@@@Zeni@@@std@@@std@@QAE@PAPAV?$Triangle@VVertex3f_Texture@Zeni@@@Zeni@@PBV_Container_base_secure@1@@Z 005229b0 f i Zenilib:zenilib.obj
 0002:000a1af0       ??G?$_Vector_const_iterator@PAV?$Triangle@VVertex3f_Texture@Zeni@@@Zeni@@V?$allocator@PAV?$Triangle@VVertex3f_Texture@Zeni@@@Zeni@@@std@@@std@@QBEHABV01@@Z 00522af0 f i Zenilib:zenilib.obj
 0002:000a1b60       ?_Prevnode@?$list@UWord@Text_Box@Zeni@@V?$allocator@UWord@Text_Box@Zeni@@@std@@@std@@KAAAPAU_Node@?$_List_nod@UWord@Text_Box@Zeni@@V?$allocator@UWord@Text_Box@Zeni@@@std@@@2@PAU342@@Z 00522b60 f i Zenilib:zenilib.obj
 0002:000a1ba0       ?_Myval@?$list@UWord@Text_Box@Zeni@@V?$allocator@UWord@Text_Box@Zeni@@@std@@@std@@KAAAUWord@Text_Box@Zeni@@PAU_Node@?$_List_nod@UWord@Text_Box@Zeni@@V?$allocator@UWord@Text_Box@Zeni@@@std@@@2@@Z 00522ba0 f i Zenilib:zenilib.obj
 0002:000a1be0       ?clear@?$list@UWord@Text_Box@Zeni@@V?$allocator@UWord@Text_Box@Zeni@@@std@@@std@@QAEXXZ 00522be0 f i Zenilib:zenilib.obj
 0002:000a1cf0       ?_Buynode@?$list@UWord@Text_Box@Zeni@@V?$allocator@UWord@Text_Box@Zeni@@@std@@@std@@IAEPAU_Node@?$_List_nod@UWord@Text_Box@Zeni@@V?$allocator@UWord@Text_Box@Zeni@@@std@@@2@PAU342@0ABUWord@Text_Box@Zeni@@@Z 00522cf0 f i Zenilib:zenilib.obj
 0002:000a1ed0       ?_Incsize@?$list@UWord@Text_Box@Zeni@@V?$allocator@UWord@Text_Box@Zeni@@@std@@@std@@IAEXI@Z 00522ed0 f i Zenilib:zenilib.obj
 0002:000a1ff0       ??0?$_List_ptr@UWord@Text_Box@Zeni@@V?$allocator@UWord@Text_Box@Zeni@@@std@@@std@@IAE@V?$allocator@UWord@Text_Box@Zeni@@@1@@Z 00522ff0 f i Zenilib:zenilib.obj
 0002:000a2070       ??0?$allocator@UWord@Text_Box@Zeni@@@std@@QAE@ABV01@@Z 00523070 f i Zenilib:zenilib.obj
 0002:000a20b0       ?deallocate@?$allocator@U_Node@?$_List_nod@UWord@Text_Box@Zeni@@V?$allocator@UWord@Text_Box@Zeni@@@std@@@std@@@std@@QAEXPAU_Node@?$_List_nod@UWord@Text_Box@Zeni@@V?$allocator@UWord@Text_Box@Zeni@@@std@@@2@I@Z 005230b0 f i Zenilib:zenilib.obj
 0002:000a2110       ?allocate@?$allocator@U_Node@?$_List_nod@UWord@Text_Box@Zeni@@V?$allocator@UWord@Text_Box@Zeni@@@std@@@std@@@std@@QAEPAU_Node@?$_List_nod@UWord@Text_Box@Zeni@@V?$allocator@UWord@Text_Box@Zeni@@@std@@@2@I@Z 00523110 f i Zenilib:zenilib.obj
 0002:000a2170       ?construct@?$allocator@PAU_Node@?$_List_nod@UWord@Text_Box@Zeni@@V?$allocator@UWord@Text_Box@Zeni@@@std@@@std@@@std@@QAEXPAPAU_Node@?$_List_nod@UWord@Text_Box@Zeni@@V?$allocator@UWord@Text_Box@Zeni@@@std@@@2@ABQAU342@@Z 00523170 f i Zenilib:zenilib.obj
 0002:000a21d0       ?destroy@?$allocator@PAU_Node@?$_List_nod@UWord@Text_Box@Zeni@@V?$allocator@UWord@Text_Box@Zeni@@@std@@@std@@@std@@QAEXPAPAU_Node@?$_List_nod@UWord@Text_Box@Zeni@@V?$allocator@UWord@Text_Box@Zeni@@@std@@@2@@Z 005231d0 f i Zenilib:zenilib.obj
 0002:000a2230       ??0?$_Const_iterator@$00@?$list@UWord@Text_Box@Zeni@@V?$allocator@UWord@Text_Box@Zeni@@@std@@@std@@QAE@PAU_Node@?$_List_nod@UWord@Text_Box@Zeni@@V?$allocator@UWord@Text_Box@Zeni@@@std@@@2@PBV12@@Z 00523230 f i Zenilib:zenilib.obj
 0002:000a22f0       ?_Mynode@?$_Const_iterator@$00@?$list@UWord@Text_Box@Zeni@@V?$allocator@UWord@Text_Box@Zeni@@@std@@@std@@QBEPAU_Node@?$_List_nod@UWord@Text_Box@Zeni@@V?$allocator@UWord@Text_Box@Zeni@@@std@@@3@XZ 005232f0 f i Zenilib:zenilib.obj
 0002:000a2330       ?_Compat@?$_Const_iterator@$00@?$list@UWord@Text_Box@Zeni@@V?$allocator@UWord@Text_Box@Zeni@@@std@@@std@@QBEXABV123@@Z 00523330 f i Zenilib:zenilib.obj
 0002:000a2440       ??H?$_Vector_iterator@ULine@Text_Box@Zeni@@V?$allocator@ULine@Text_Box@Zeni@@@std@@@std@@QBE?AV01@H@Z 00523440 f i Zenilib:zenilib.obj
 0002:000a2560       ??F?$_Vector_const_iterator@ULine@Text_Box@Zeni@@V?$allocator@ULine@Text_Box@Zeni@@@std@@@std@@QAEAAV01@XZ 00523560 f i Zenilib:zenilib.obj
 0002:000a2710       ??G?$_Vector_const_iterator@ULine@Text_Box@Zeni@@V?$allocator@ULine@Text_Box@Zeni@@@std@@@std@@QBEHABV01@@Z 00523710 f i Zenilib:zenilib.obj
 0002:000a2780       ??M?$_Vector_const_iterator@ULine@Text_Box@Zeni@@V?$allocator@ULine@Text_Box@Zeni@@@std@@@std@@QBE_NABV01@@Z 00523780 f i Zenilib:zenilib.obj
 0002:000a27f0       ?_Compat@?$_Vector_const_iterator@ULine@Text_Box@Zeni@@V?$allocator@ULine@Text_Box@Zeni@@@std@@@std@@QBEXABV12@@Z 005237f0 f i Zenilib:zenilib.obj
 0002:000a28f0       ??0?$_Revranit@V?$_Vector_iterator@ULine@Text_Box@Zeni@@V?$allocator@ULine@Text_Box@Zeni@@@std@@@std@@U?$iterator@Urandom_access_iterator_tag@std@@ULine@Text_Box@Zeni@@HPAU345@AAU345@@2@@std@@QAE@V?$_Vector_iterator@ULine@Text_Box@Zeni@@V?$allocator@ULine@Text_Box@Zeni@@@std@@@1@@Z 005238f0 f i Zenilib:zenilib.obj
 0002:000a29a0       ?_Compat@?$_String_const_iterator@DU?$char_traits@D@std@@V?$allocator@D@2@@std@@QBEXABV12@@Z 005239a0 f i Zenilib:zenilib.obj
 0002:000a2aa0       ??0?$_Vector_iterator@PAU_SDL_Joystick@@V?$allocator@PAU_SDL_Joystick@@@std@@@std@@QAE@PAPAU_SDL_Joystick@@PBV_Container_base_secure@1@@Z 00523aa0 f i Zenilib:zenilib.obj
 0002:000a2b00       ??H?$_Vector_iterator@PAU_SDL_Joystick@@V?$allocator@PAU_SDL_Joystick@@@std@@@std@@QBE?AV01@H@Z 00523b00 f i Zenilib:zenilib.obj
 0002:000a2c20       ??G?$_Vector_const_iterator@PAU_SDL_Joystick@@V?$allocator@PAU_SDL_Joystick@@@std@@@std@@QBEHABV01@@Z 00523c20 f i Zenilib:zenilib.obj
 0002:000a2c90       ??9?$_Vector_const_iterator@PAU_SDL_Joystick@@V?$allocator@PAU_SDL_Joystick@@@std@@@std@@QBE_NABV01@@Z 00523c90 f i Zenilib:zenilib.obj
 0002:000a2d00       ??M?$_Vector_const_iterator@PAU_SDL_Joystick@@V?$allocator@PAU_SDL_Joystick@@@std@@@std@@QBE_NABV01@@Z 00523d00 f i Zenilib:zenilib.obj
 0002:000a2d70       ??0?$_Iterator@$00@?$list@U?$pair@$$CBKVColor@Zeni@@@std@@V?$allocator@U?$pair@$$CBKVColor@Zeni@@@std@@@2@@std@@QAE@XZ 00523d70 f i Zenilib:zenilib.obj
 0002:000a2dd0       ??E?$_Iterator@$00@?$list@U?$pair@$$CBKVColor@Zeni@@@std@@V?$allocator@U?$pair@$$CBKVColor@Zeni@@@std@@@2@@std@@QAEAAV012@XZ 00523dd0 f i Zenilib:zenilib.obj
 0002:000a2e30       ??0?$pair@V?$_Iterator@$00@?$list@U?$pair@$$CBKVColor@Zeni@@@std@@V?$allocator@U?$pair@$$CBKVColor@Zeni@@@std@@@2@@std@@V123@@std@@QAE@ABV?$_Iterator@$00@?$list@U?$pair@$$CBKVColor@Zeni@@@std@@V?$allocator@U?$pair@$$CBKVColor@Zeni@@@std@@@2@@1@0@Z 00523e30 f i Zenilib:zenilib.obj
 0002:000a2ef0       ??0?$pair@V?$_Iterator@$00@?$list@U?$pair@$$CBKPAVFont@Zeni@@@std@@V?$allocator@U?$pair@$$CBKPAVFont@Zeni@@@std@@@2@@std@@V123@@std@@QAE@ABV?$_Iterator@$00@?$list@U?$pair@$$CBKPAVFont@Zeni@@@std@@V?$allocator@U?$pair@$$CBKPAVFont@Zeni@@@std@@@2@@1@0@Z 00523ef0 f i Zenilib:zenilib.obj
 0002:000a2fb0       ??0?$_Vector_const_iterator@U?$pair@V?$basic_string@DU?$char_traits@D@std@@V?$allocator@D@2@@std@@K@std@@V?$allocator@U?$pair@V?$basic_string@DU?$char_traits@D@std@@V?$allocator@D@2@@std@@K@std@@@2@@std@@QAE@PAU?$pair@V?$basic_string@DU?$char_traits@D@std@@V?$allocator@D@2@@std@@K@1@PBV_Container_base_secure@1@@Z 00523fb0 f i Zenilib:zenilib.obj
 0002:000a30f0       ??G?$_Vector_const_iterator@U?$pair@V?$basic_string@DU?$char_traits@D@std@@V?$allocator@D@2@@std@@K@std@@V?$allocator@U?$pair@V?$basic_string@DU?$char_traits@D@std@@V?$allocator@D@2@@std@@K@std@@@2@@std@@QBEHABV01@@Z 005240f0 f i Zenilib:zenilib.obj
 0002:000a3160       ??0?$_Vector_iterator@U?$pair@V?$basic_string@DU?$char_traits@D@std@@V?$allocator@D@2@@std@@K@std@@V?$allocator@U?$pair@V?$basic_string@DU?$char_traits@D@std@@V?$allocator@D@2@@std@@K@std@@@2@@std@@QAE@PAU?$pair@V?$basic_string@DU?$char_traits@D@std@@V?$allocator@D@2@@std@@K@1@PBV_Container_base_secure@1@@Z 00524160 f i Zenilib:zenilib.obj
 0002:000a31c0       ??H?$_Vector_iterator@U?$pair@V?$basic_string@DU?$char_traits@D@std@@V?$allocator@D@2@@std@@K@std@@V?$allocator@U?$pair@V?$basic_string@DU?$char_traits@D@std@@V?$allocator@D@2@@std@@K@std@@@2@@std@@QBE?AV01@H@Z 005241c0 f i Zenilib:zenilib.obj
 0002:000a32e0       ??0?$pair@V?$_Iterator@$00@?$list@U?$pair@$$CBKPAVTexture@Zeni@@@std@@V?$allocator@U?$pair@$$CBKPAVTexture@Zeni@@@std@@@2@@std@@V123@@std@@QAE@ABV?$_Iterator@$00@?$list@U?$pair@$$CBKPAVTexture@Zeni@@@std@@V?$allocator@U?$pair@$$CBKPAVTexture@Zeni@@@std@@@2@@1@0@Z 005242e0 f i Zenilib:zenilib.obj
 0002:000a33a0       ??0?$_Iterator@$00@?$list@U?$pair@$$CBKVSound_Buffer@Zeni@@@std@@V?$allocator@U?$pair@$$CBKVSound_Buffer@Zeni@@@std@@@2@@std@@QAE@XZ 005243a0 f i Zenilib:zenilib.obj
 0002:000a3400       ??E?$_Iterator@$00@?$list@U?$pair@$$CBKVSound_Buffer@Zeni@@@std@@V?$allocator@U?$pair@$$CBKVSound_Buffer@Zeni@@@std@@@2@@std@@QAEAAV012@XZ 00524400 f i Zenilib:zenilib.obj
 0002:000a3460       ??0?$pair@V?$_Iterator@$00@?$list@U?$pair@$$CBKVSound_Buffer@Zeni@@@std@@V?$allocator@U?$pair@$$CBKVSound_Buffer@Zeni@@@std@@@2@@std@@V123@@std@@QAE@ABV?$_Iterator@$00@?$list@U?$pair@$$CBKVSound_Buffer@Zeni@@@std@@V?$allocator@U?$pair@$$CBKVSound_Buffer@Zeni@@@std@@@2@@1@0@Z 00524460 f i Zenilib:zenilib.obj
 0002:000a3520       ??0?$_Vector_iterator@HV?$allocator@H@std@@@std@@QAE@PAHPBV_Container_base_secure@1@@Z 00524520 f i Zenilib:zenilib.obj
 0002:000a3580       ??H?$_Vector_iterator@HV?$allocator@H@std@@@std@@QBE?AV01@H@Z 00524580 f i Zenilib:zenilib.obj
 0002:000a36a0       ??G?$_Vector_const_iterator@HV?$allocator@H@std@@@std@@QBEHABV01@@Z 005246a0 f i Zenilib:zenilib.obj
 0002:000a3710       ??1?$_Vector_iterator@V?$_Iterator@$00@?$list@U?$pair@$$CBV?$basic_string@DU?$char_traits@D@std@@V?$allocator@D@2@@std@@K@std@@V?$allocator@U?$pair@$$CBV?$basic_string@DU?$char_traits@D@std@@V?$allocator@D@2@@std@@K@std@@@2@@std@@V?$allocator@V?$_Iterator@$00@?$list@U?$pair@$$CBV?$basic_string@DU?$char_traits@D@std@@V?$allocator@D@2@@std@@K@std@@V?$allocator@U?$pair@$$CBV?$basic_string@DU?$char_traits@D@std@@V?$allocator@D@2@@std@@K@std@@@2@@std@@@3@@std@@QAE@XZ 00524710 f i Zenilib:zenilib.obj
 0002:000a3760       ??0?$pair@V?$basic_string@DU?$char_traits@D@std@@V?$allocator@D@2@@std@@K@std@@QAE@ABU01@@Z 00524760 f i Zenilib:zenilib.obj
 0002:000a37e0       ??1?$_Vector_iterator@V?$_Iterator@$00@?$list@U?$pair@$$CBKPAVTexture@Zeni@@@std@@V?$allocator@U?$pair@$$CBKPAVTexture@Zeni@@@std@@@2@@std@@V?$allocator@V?$_Iterator@$00@?$list@U?$pair@$$CBKPAVTexture@Zeni@@@std@@V?$allocator@U?$pair@$$CBKPAVTexture@Zeni@@@std@@@2@@std@@@3@@std@@QAE@XZ 005247e0 f i Zenilib:zenilib.obj
 0002:000a3830       ??0?$_Bidit@PBVTask@Zeni@@HPBQBV12@ABQBV12@@std@@QAE@XZ 00524830 f i Zenilib:zenilib.obj
 0002:000a3890       ??0?$_Bidit@PAVChunk_Set@Split_UDP_Socket@Zeni@@HPBQAV123@ABQAV123@@std@@QAE@XZ 00524890 f i Zenilib:zenilib.obj
 0002:000a38f0       ??0Line@Text_Box@Zeni@@QAE@ABU012@@Z 005248f0 f i Zenilib:zenilib.obj
 0002:000a39e0       ??0?$_Bidit@U?$pair@$$CBV?$basic_string@DU?$char_traits@D@std@@V?$allocator@D@2@@std@@K@std@@HPBU12@ABU12@@std@@QAE@XZ 005249e0 f i Zenilib:zenilib.obj
 0002:000a3a40       ??0?$_Bidit@U?$pair@$$CBKVColor@Zeni@@@std@@HPBU12@ABU12@@std@@QAE@XZ 00524a40 f i Zenilib:zenilib.obj
 0002:000a3aa0       ??0?$_Bidit@U?$pair@$$CBKPAVFont@Zeni@@@std@@HPBU12@ABU12@@std@@QAE@XZ 00524aa0 f i Zenilib:zenilib.obj
 0002:000a3b00       ??0?$_Bidit@U?$pair@$$CBUZeni_Input_ID@Zeni@@H@std@@HPBU12@ABU12@@std@@QAE@XZ 00524b00 f i Zenilib:zenilib.obj
 0002:000a3b60       ??0?$_Bidit@U?$pair@$$CBHUZeni_Input_ID@Zeni@@@std@@HPBU12@ABU12@@std@@QAE@XZ 00524b60 f i Zenilib:zenilib.obj
 0002:000a3bc0       ??0?$_Ranit@DHPBDABD@std@@QAE@XZ 00524bc0 f i Zenilib:zenilib.obj
 0002:000a3c20       ??0?$_Bidit@U?$pair@$$CBKVSound_Buffer@Zeni@@@std@@HPBU12@ABU12@@std@@QAE@XZ 00524c20 f i Zenilib:zenilib.obj
 0002:000a3c80       ??0?$_Bidit@U?$pair@$$CBKPAVTexture@Zeni@@@std@@HPBU12@ABU12@@std@@QAE@XZ 00524c80 f i Zenilib:zenilib.obj
 0002:000a3ce0       ??0?$_Vector_iterator@PAV?$Triangle@VVertex3f_Color@Zeni@@@Zeni@@V?$allocator@PAV?$Triangle@VVertex3f_Color@Zeni@@@Zeni@@@std@@@std@@QAE@ABV01@@Z 00524ce0 f i Zenilib:zenilib.obj
 0002:000a3d40       ??0?$_Ranit@PAV?$Triangle@VVertex3f_Color@Zeni@@@Zeni@@HPBQAV12@ABQAV12@@std@@QAE@XZ 00524d40 f i Zenilib:zenilib.obj
 0002:000a3da0       ??0?$_Vector_iterator@PAV?$Triangle@VVertex3f_Texture@Zeni@@@Zeni@@V?$allocator@PAV?$Triangle@VVertex3f_Texture@Zeni@@@Zeni@@@std@@@std@@QAE@ABV01@@Z 00524da0 f i Zenilib:zenilib.obj
 0002:000a3e00       ??0?$_Ranit@PAV?$Triangle@VVertex3f_Texture@Zeni@@@Zeni@@HPBQAV12@ABQAV12@@std@@QAE@XZ 00524e00 f i Zenilib:zenilib.obj
 0002:000a3e60       ??0?$_Bidit@UWord@Text_Box@Zeni@@HPBU123@ABU123@@std@@QAE@XZ 00524e60 f i Zenilib:zenilib.obj
 0002:000a3ec0       ??0?$_Vector_iterator@PAU_SDL_Joystick@@V?$allocator@PAU_SDL_Joystick@@@std@@@std@@QAE@ABV01@@Z 00524ec0 f i Zenilib:zenilib.obj
 0002:000a3f20       ??0?$_Ranit@U?$pair@V?$basic_string@DU?$char_traits@D@std@@V?$allocator@D@2@@std@@K@std@@HPBU12@ABU12@@std@@QAE@XZ 00524f20 f i Zenilib:zenilib.obj
 0002:000a3f80       ??0?$_Vector_iterator@U?$pair@V?$basic_string@DU?$char_traits@D@std@@V?$allocator@D@2@@std@@K@std@@V?$allocator@U?$pair@V?$basic_string@DU?$char_traits@D@std@@V?$allocator@D@2@@std@@K@std@@@2@@std@@QAE@ABV01@@Z 00524f80 f i Zenilib:zenilib.obj
 0002:000a3fe0       ??0?$_Vector_iterator@HV?$allocator@H@std@@@std@@QAE@ABV01@@Z 00524fe0 f i Zenilib:zenilib.obj
 0002:000a4040       ??1?$_Vector_const_iterator@V?$_Iterator@$00@?$list@U?$pair@$$CBV?$basic_string@DU?$char_traits@D@std@@V?$allocator@D@2@@std@@K@std@@V?$allocator@U?$pair@$$CBV?$basic_string@DU?$char_traits@D@std@@V?$allocator@D@2@@std@@K@std@@@2@@std@@V?$allocator@V?$_Iterator@$00@?$list@U?$pair@$$CBV?$basic_string@DU?$char_traits@D@std@@V?$allocator@D@2@@std@@K@std@@V?$allocator@U?$pair@$$CBV?$basic_string@DU?$char_traits@D@std@@V?$allocator@D@2@@std@@K@std@@@2@@std@@@3@@std@@QAE@XZ 00525040 f i Zenilib:zenilib.obj
 0002:000a4090       ??1?$_Vector_const_iterator@V?$_Iterator@$00@?$list@U?$pair@$$CBKPAVTexture@Zeni@@@std@@V?$allocator@U?$pair@$$CBKPAVTexture@Zeni@@@std@@@2@@std@@V?$allocator@V?$_Iterator@$00@?$list@U?$pair@$$CBKPAVTexture@Zeni@@@std@@V?$allocator@U?$pair@$$CBKPAVTexture@Zeni@@@std@@@2@@std@@@3@@std@@QAE@XZ 00525090 f i Zenilib:zenilib.obj
 0002:000a40e0       ??0?$_Iterator_with_base@Ubidirectional_iterator_tag@std@@PBVTask@Zeni@@HPBQBV34@ABQBV34@V_Iterator_base@2@@std@@QAE@XZ 005250e0 f i Zenilib:zenilib.obj
 0002:000a4140       ??0?$_Iterator_with_base@Ubidirectional_iterator_tag@std@@PAVChunk_Set@Split_UDP_Socket@Zeni@@HPBQAV345@ABQAV345@V_Iterator_base@2@@std@@QAE@XZ 00525140 f i Zenilib:zenilib.obj
 0002:000a41a0       ??0Word@Text_Box@Zeni@@QAE@ABU012@@Z 005251a0 f i Zenilib:zenilib.obj
 0002:000a4290       ??0?$_Iterator_with_base@Ubidirectional_iterator_tag@std@@U?$pair@$$CBV?$basic_string@DU?$char_traits@D@std@@V?$allocator@D@2@@std@@K@2@HPBU32@ABU32@V_Iterator_base@2@@std@@QAE@XZ 00525290 f i Zenilib:zenilib.obj
 0002:000a42f0       ??0?$_Iterator_with_base@Ubidirectional_iterator_tag@std@@U?$pair@$$CBKVColor@Zeni@@@2@HPBU32@ABU32@V_Iterator_base@2@@std@@QAE@XZ 005252f0 f i Zenilib:zenilib.obj
 0002:000a4350       ??0?$_Iterator_with_base@Ubidirectional_iterator_tag@std@@U?$pair@$$CBKPAVFont@Zeni@@@2@HPBU32@ABU32@V_Iterator_base@2@@std@@QAE@XZ 00525350 f i Zenilib:zenilib.obj
 0002:000a43b0       ??0?$_Iterator_with_base@Ubidirectional_iterator_tag@std@@U?$pair@$$CBUZeni_Input_ID@Zeni@@H@2@HPBU32@ABU32@V_Iterator_base@2@@std@@QAE@XZ 005253b0 f i Zenilib:zenilib.obj
 0002:000a4410       ??0?$_Iterator_with_base@Ubidirectional_iterator_tag@std@@U?$pair@$$CBHUZeni_Input_ID@Zeni@@@2@HPBU32@ABU32@V_Iterator_base@2@@std@@QAE@XZ 00525410 f i Zenilib:zenilib.obj
 0002:000a4470       ??0?$_Iterator_with_base@Urandom_access_iterator_tag@std@@DHPBDABDV_Iterator_base@2@@std@@QAE@XZ 00525470 f i Zenilib:zenilib.obj
 0002:000a44d0       ??0?$_Iterator_with_base@Ubidirectional_iterator_tag@std@@U?$pair@$$CBKVSound_Buffer@Zeni@@@2@HPBU32@ABU32@V_Iterator_base@2@@std@@QAE@XZ 005254d0 f i Zenilib:zenilib.obj
 0002:000a4530       ??0?$_Iterator_with_base@Ubidirectional_iterator_tag@std@@U?$pair@$$CBKPAVTexture@Zeni@@@2@HPBU32@ABU32@V_Iterator_base@2@@std@@QAE@XZ 00525530 f i Zenilib:zenilib.obj
 0002:000a4590       ??0?$_Iterator_with_base@Urandom_access_iterator_tag@std@@PAV?$Triangle@VVertex3f_Color@Zeni@@@Zeni@@HPBQAV34@ABQAV34@V_Iterator_base@2@@std@@QAE@XZ 00525590 f i Zenilib:zenilib.obj
 0002:000a45f0       ??0?$_Iterator_with_base@Urandom_access_iterator_tag@std@@PAV?$Triangle@VVertex3f_Texture@Zeni@@@Zeni@@HPBQAV34@ABQAV34@V_Iterator_base@2@@std@@QAE@XZ 005255f0 f i Zenilib:zenilib.obj
 0002:000a4650       ??0?$_Iterator_with_base@Ubidirectional_iterator_tag@std@@UWord@Text_Box@Zeni@@HPBU345@ABU345@V_Iterator_base@2@@std@@QAE@XZ 00525650 f i Zenilib:zenilib.obj
 0002:000a46b0       ??0?$_Iterator_with_base@Urandom_access_iterator_tag@std@@U?$pair@V?$basic_string@DU?$char_traits@D@std@@V?$allocator@D@2@@std@@K@2@HPBU32@ABU32@V_Iterator_base@2@@std@@QAE@XZ 005256b0 f i Zenilib:zenilib.obj
 0002:000a4710       ??1?$_Ranit@V?$_Iterator@$00@?$list@U?$pair@$$CBV?$basic_string@DU?$char_traits@D@std@@V?$allocator@D@2@@std@@K@std@@V?$allocator@U?$pair@$$CBV?$basic_string@DU?$char_traits@D@std@@V?$allocator@D@2@@std@@K@std@@@2@@std@@HPBV123@ABV123@@std@@QAE@XZ 00525710 f i Zenilib:zenilib.obj
 0002:000a4760       ??1?$_Ranit@V?$_Iterator@$00@?$list@U?$pair@$$CBKPAVTexture@Zeni@@@std@@V?$allocator@U?$pair@$$CBKPAVTexture@Zeni@@@std@@@2@@std@@HPBV123@ABV123@@std@@QAE@XZ 00525760 f i Zenilib:zenilib.obj
 0002:000a47b0       ??1?$_Iterator_with_base@Urandom_access_iterator_tag@std@@V?$_Iterator@$00@?$list@U?$pair@$$CBV?$basic_string@DU?$char_traits@D@std@@V?$allocator@D@2@@std@@K@std@@V?$allocator@U?$pair@$$CBV?$basic_string@DU?$char_traits@D@std@@V?$allocator@D@2@@std@@K@std@@@2@@2@HPBV342@ABV342@V_Iterator_base@2@@std@@QAE@XZ 005257b0 f i Zenilib:zenilib.obj
 0002:000a4800       ??1?$_Iterator_with_base@Urandom_access_iterator_tag@std@@V?$_Iterator@$00@?$list@U?$pair@$$CBKPAVTexture@Zeni@@@std@@V?$allocator@U?$pair@$$CBKPAVTexture@Zeni@@@std@@@2@@2@HPBV342@ABV342@V_Iterator_base@2@@std@@QAE@XZ 00525800 f i Zenilib:zenilib.obj
 0002:000a4850       ?max_size@?$vector@PAU_SDL_Joystick@@V?$allocator@PAU_SDL_Joystick@@@std@@@std@@QBEIXZ 00525850 f i Zenilib:zenilib.obj
 0002:000a48b0       ?_Xlen@?$vector@PAU_SDL_Joystick@@V?$allocator@PAU_SDL_Joystick@@@std@@@std@@KAXXZ 005258b0 f i Zenilib:zenilib.obj
 0002:000a49a0       ?allocate@?$allocator@PAU_SDL_Joystick@@@std@@QAEPAPAU_SDL_Joystick@@I@Z 005259a0 f i Zenilib:zenilib.obj
 0002:000a4a00       ?begin@?$_Hash@V?$_Hmap_traits@V?$basic_string@DU?$char_traits@D@std@@V?$allocator@D@2@@std@@KV?$hash_compare@V?$basic_string@DU?$char_traits@D@std@@V?$allocator@D@2@@std@@U?$less@V?$basic_string@DU?$char_traits@D@std@@V?$allocator@D@2@@std@@@2@@stdext@@V?$allocator@U?$pair@$$CBV?$basic_string@DU?$char_traits@D@std@@V?$allocator@D@2@@std@@K@std@@@2@$0A@@stdext@@@stdext@@QBE?AV?$_Const_iterator@$00@?$list@U?$pair@$$CBV?$basic_string@DU?$char_traits@D@std@@V?$allocator@D@2@@std@@K@std@@V?$allocator@U?$pair@$$CBV?$basic_string@DU?$char_traits@D@std@@V?$allocator@D@2@@std@@K@std@@@2@@std@@XZ 00525a00 f i Zenilib:zenilib.obj
 0002:000a4a80       ?load_factor@?$_Hash@V?$_Hmap_traits@V?$basic_string@DU?$char_traits@D@std@@V?$allocator@D@2@@std@@KV?$hash_compare@V?$basic_string@DU?$char_traits@D@std@@V?$allocator@D@2@@std@@U?$less@V?$basic_string@DU?$char_traits@D@std@@V?$allocator@D@2@@std@@@2@@stdext@@V?$allocator@U?$pair@$$CBV?$basic_string@DU?$char_traits@D@std@@V?$allocator@D@2@@std@@K@std@@@2@$0A@@stdext@@@stdext@@QBEMXZ 00525a80 f i Zenilib:zenilib.obj
 0002:000a4b20       ?max_load_factor@?$_Hash@V?$_Hmap_traits@V?$basic_string@DU?$char_traits@D@std@@V?$allocator@D@2@@std@@KV?$hash_compare@V?$basic_string@DU?$char_traits@D@std@@V?$allocator@D@2@@std@@U?$less@V?$basic_string@DU?$char_traits@D@std@@V?$allocator@D@2@@std@@@2@@stdext@@V?$allocator@U?$pair@$$CBV?$basic_string@DU?$char_traits@D@std@@V?$allocator@D@2@@std@@K@std@@@2@$0A@@stdext@@@stdext@@QBEMXZ 00525b20 f i Zenilib:zenilib.obj
 0002:000a4b60       ?_Grow@?$_Hash@V?$_Hmap_traits@V?$basic_string@DU?$char_traits@D@std@@V?$allocator@D@2@@std@@KV?$hash_compare@V?$basic_string@DU?$char_traits@D@std@@V?$allocator@D@2@@std@@U?$less@V?$basic_string@DU?$char_traits@D@std@@V?$allocator@D@2@@std@@@2@@stdext@@V?$allocator@U?$pair@$$CBV?$basic_string@DU?$char_traits@D@std@@V?$allocator@D@2@@std@@K@std@@@2@$0A@@stdext@@@stdext@@IAEXXZ 00525b60 f i Zenilib:zenilib.obj
 0002:000a5350       ??0?$allocator@U?$pair@$$CBV?$basic_string@DU?$char_traits@D@std@@V?$allocator@D@2@@std@@K@std@@@std@@QAE@ABV01@@Z 00526350 f i Zenilib:zenilib.obj
 0002:000a5390       ??R?$less@V?$basic_string@DU?$char_traits@D@std@@V?$allocator@D@2@@std@@@std@@QBE_NABV?$basic_string@DU?$char_traits@D@std@@V?$allocator@D@2@@1@0@Z 00526390 f i Zenilib:zenilib.obj
 0002:000a5400       ?begin@?$list@U?$pair@$$CBV?$basic_string@DU?$char_traits@D@std@@V?$allocator@D@2@@std@@K@std@@V?$allocator@U?$pair@$$CBV?$basic_string@DU?$char_traits@D@std@@V?$allocator@D@2@@std@@K@std@@@2@@std@@QBE?AV?$_Const_iterator@$00@12@XZ 00526400 f i Zenilib:zenilib.obj
 0002:000a5490       ?get_allocator@?$list@U?$pair@$$CBV?$basic_string@DU?$char_traits@D@std@@V?$allocator@D@2@@std@@K@std@@V?$allocator@U?$pair@$$CBV?$basic_string@DU?$char_traits@D@std@@V?$allocator@D@2@@std@@K@std@@@2@@std@@QBE?AV?$allocator@U?$pair@$$CBV?$basic_string@DU?$char_traits@D@std@@V?$allocator@D@2@@std@@K@std@@@2@XZ 00526490 f i Zenilib:zenilib.obj
 0002:000a54f0       ?insert@?$list@U?$pair@$$CBV?$basic_string@DU?$char_traits@D@std@@V?$allocator@D@2@@std@@K@std@@V?$allocator@U?$pair@$$CBV?$basic_string@DU?$char_traits@D@std@@V?$allocator@D@2@@std@@K@std@@@2@@std@@QAE?AV?$_Iterator@$00@12@V?$_Const_iterator@$00@12@ABU?$pair@$$CBV?$basic_string@DU?$char_traits@D@std@@V?$allocator@D@2@@std@@K@2@@Z 005264f0 f i Zenilib:zenilib.obj
 0002:000a5620       ?splice@?$list@U?$pair@$$CBV?$basic_string@DU?$char_traits@D@std@@V?$allocator@D@2@@std@@K@std@@V?$allocator@U?$pair@$$CBV?$basic_string@DU?$char_traits@D@std@@V?$allocator@D@2@@std@@K@std@@@2@@std@@QAEXV?$_Const_iterator@$00@12@AAV12@0@Z 00526620 f i Zenilib:zenilib.obj
 0002:000a58b0       ?_Buynode@?$list@U?$pair@$$CBV?$basic_string@DU?$char_traits@D@std@@V?$allocator@D@2@@std@@K@std@@V?$allocator@U?$pair@$$CBV?$basic_string@DU?$char_traits@D@std@@V?$allocator@D@2@@std@@K@std@@@2@@std@@IAEPAU_Node@?$_List_nod@U?$pair@$$CBV?$basic_string@DU?$char_traits@D@std@@V?$allocator@D@2@@std@@K@std@@V?$allocator@U?$pair@$$CBV?$basic_string@DU?$char_traits@D@std@@V?$allocator@D@2@@std@@K@std@@@2@@2@XZ 005268b0 f i Zenilib:zenilib.obj
 0002:000a5a70       ??0?$_List_val@U?$pair@$$CBV?$basic_string@DU?$char_traits@D@std@@V?$allocator@D@2@@std@@K@std@@V?$allocator@U?$pair@$$CBV?$basic_string@DU?$char_traits@D@std@@V?$allocator@D@2@@std@@K@std@@@2@@std@@QAE@V?$allocator@U?$pair@$$CBV?$basic_string@DU?$char_traits@D@std@@V?$allocator@D@2@@std@@K@std@@@1@@Z 00526a70 f i Zenilib:zenilib.obj
 0002:000a5af0       ?destroy@?$allocator@PAU_Node@?$_List_nod@U?$pair@$$CBV?$basic_string@DU?$char_traits@D@std@@V?$allocator@D@2@@std@@K@std@@V?$allocator@U?$pair@$$CBV?$basic_string@DU?$char_traits@D@std@@V?$allocator@D@2@@std@@K@std@@@2@@std@@@std@@QAEXPAPAU_Node@?$_List_nod@U?$pair@$$CBV?$basic_string@DU?$char_traits@D@std@@V?$allocator@D@2@@std@@K@std@@V?$allocator@U?$pair@$$CBV?$basic_string@DU?$char_traits@D@std@@V?$allocator@D@2@@std@@K@std@@@2@@2@@Z 00526af0 f i Zenilib:zenilib.obj
 0002:000a5b50       ?begin@?$vector@V?$_Iterator@$00@?$list@U?$pair@$$CBV?$basic_string@DU?$char_traits@D@std@@V?$allocator@D@2@@std@@K@std@@V?$allocator@U?$pair@$$CBV?$basic_string@DU?$char_traits@D@std@@V?$allocator@D@2@@std@@K@std@@@2@@std@@V?$allocator@V?$_Iterator@$00@?$list@U?$pair@$$CBV?$basic_string@DU?$char_traits@D@std@@V?$allocator@D@2@@std@@K@std@@V?$allocator@U?$pair@$$CBV?$basic_string@DU?$char_traits@D@std@@V?$allocator@D@2@@std@@K@std@@@2@@std@@@3@@std@@QAE?AV?$_Vector_iterator@V?$_Iterator@$00@?$list@U?$pair@$$CBV?$basic_string@DU?$char_traits@D@std@@V?$allocator@D@2@@std@@K@std@@V?$allocator@U?$pair@$$CBV?$basic_string@DU?$char_traits@D@std@@V?$allocator@D@2@@std@@K@std@@@2@@std@@V?$allocator@V?$_Iterator@$00@?$list@U?$pair@$$CBV?$basic_string@DU?$char_traits@D@std@@V?$allocator@D@2@@std@@K@std@@V?$allocator@U?$pair@$$CBV?$basic_string@DU?$char_traits@D@std@@V?$allocator@D@2@@std@@K@std@@@2@@std@@@3@@2@XZ 00526b50 f i Zenilib:zenilib.obj
 0002:000a5be0       ?end@?$vector@V?$_Iterator@$00@?$list@U?$pair@$$CBV?$basic_string@DU?$char_traits@D@std@@V?$allocator@D@2@@std@@K@std@@V?$allocator@U?$pair@$$CBV?$basic_string@DU?$char_traits@D@std@@V?$allocator@D@2@@std@@K@std@@@2@@std@@V?$allocator@V?$_Iterator@$00@?$list@U?$pair@$$CBV?$basic_string@DU?$char_traits@D@std@@V?$allocator@D@2@@std@@K@std@@V?$allocator@U?$pair@$$CBV?$basic_string@DU?$char_traits@D@std@@V?$allocator@D@2@@std@@K@std@@@2@@std@@@3@@std@@QAE?AV?$_Vector_iterator@V?$_Iterator@$00@?$list@U?$pair@$$CBV?$basic_string@DU?$char_traits@D@std@@V?$allocator@D@2@@std@@K@std@@V?$allocator@U?$pair@$$CBV?$basic_string@DU?$char_traits@D@std@@V?$allocator@D@2@@std@@K@std@@@2@@std@@V?$allocator@V?$_Iterator@$00@?$list@U?$pair@$$CBV?$basic_string@DU?$char_traits@D@std@@V?$allocator@D@2@@std@@K@std@@V?$allocator@U?$pair@$$CBV?$basic_string@DU?$char_traits@D@std@@V?$allocator@D@2@@std@@K@std@@@2@@std@@@3@@2@XZ 00526be0 f i Zenilib:zenilib.obj
 0002:000a5c70       ?resize@?$vector@V?$_Iterator@$00@?$list@U?$pair@$$CBV?$basic_string@DU?$char_traits@D@std@@V?$allocator@D@2@@std@@K@std@@V?$allocator@U?$pair@$$CBV?$basic_string@DU?$char_traits@D@std@@V?$allocator@D@2@@std@@K@std@@@2@@std@@V?$allocator@V?$_Iterator@$00@?$list@U?$pair@$$CBV?$basic_string@DU?$char_traits@D@std@@V?$allocator@D@2@@std@@K@std@@V?$allocator@U?$pair@$$CBV?$basic_string@DU?$char_traits@D@std@@V?$allocator@D@2@@std@@K@std@@@2@@std@@@3@@std@@QAEXIV?$_Iterator@$00@?$list@U?$pair@$$CBV?$basic_string@DU?$char_traits@D@std@@V?$allocator@D@2@@std@@K@std@@V?$allocator@U?$pair@$$CBV?$basic_string@DU?$char_traits@D@std@@V?$allocator@D@2@@std@@K@std@@@2@@2@@Z 00526c70 f i Zenilib:zenilib.obj
 0002:000a5f10       ?_Assign_n@?$vector@V?$_Iterator@$00@?$list@U?$pair@$$CBV?$basic_string@DU?$char_traits@D@std@@V?$allocator@D@2@@std@@K@std@@V?$allocator@U?$pair@$$CBV?$basic_string@DU?$char_traits@D@std@@V?$allocator@D@2@@std@@K@std@@@2@@std@@V?$allocator@V?$_Iterator@$00@?$list@U?$pair@$$CBV?$basic_string@DU?$char_traits@D@std@@V?$allocator@D@2@@std@@K@std@@V?$allocator@U?$pair@$$CBV?$basic_string@DU?$char_traits@D@std@@V?$allocator@D@2@@std@@K@std@@@2@@std@@@3@@std@@IAEXIABV?$_Iterator@$00@?$list@U?$pair@$$CBV?$basic_string@DU?$char_traits@D@std@@V?$allocator@D@2@@std@@K@std@@V?$allocator@U?$pair@$$CBV?$basic_string@DU?$char_traits@D@std@@V?$allocator@D@2@@std@@K@std@@@2@@2@@Z 00526f10 f i Zenilib:zenilib.obj
 0002:000a6180       ?_Buy@?$vector@V?$_Iterator@$00@?$list@U?$pair@$$CBV?$basic_string@DU?$char_traits@D@std@@V?$allocator@D@2@@std@@K@std@@V?$allocator@U?$pair@$$CBV?$basic_string@DU?$char_traits@D@std@@V?$allocator@D@2@@std@@K@std@@@2@@std@@V?$allocator@V?$_Iterator@$00@?$list@U?$pair@$$CBV?$basic_string@DU?$char_traits@D@std@@V?$allocator@D@2@@std@@K@std@@V?$allocator@U?$pair@$$CBV?$basic_string@DU?$char_traits@D@std@@V?$allocator@D@2@@std@@K@std@@@2@@std@@@3@@std@@IAE_NI@Z 00527180 f i Zenilib:zenilib.obj
 0002:000a6260       ?_Destroy@?$vector@V?$_Iterator@$00@?$list@U?$pair@$$CBV?$basic_string@DU?$char_traits@D@std@@V?$allocator@D@2@@std@@K@std@@V?$allocator@U?$pair@$$CBV?$basic_string@DU?$char_traits@D@std@@V?$allocator@D@2@@std@@K@std@@@2@@std@@V?$allocator@V?$_Iterator@$00@?$list@U?$pair@$$CBV?$basic_string@DU?$char_traits@D@std@@V?$allocator@D@2@@std@@K@std@@V?$allocator@U?$pair@$$CBV?$basic_string@DU?$char_traits@D@std@@V?$allocator@D@2@@std@@K@std@@@2@@std@@@3@@std@@IAEXPAV?$_Iterator@$00@?$list@U?$pair@$$CBV?$basic_string@DU?$char_traits@D@std@@V?$allocator@D@2@@std@@K@std@@V?$allocator@U?$pair@$$CBV?$basic_string@DU?$char_traits@D@std@@V?$allocator@D@2@@std@@K@std@@@2@@2@0@Z 00527260 f i Zenilib:zenilib.obj
 0002:000a62d0       ??0?$_Vector_val@V?$_Iterator@$00@?$list@U?$pair@$$CBV?$basic_string@DU?$char_traits@D@std@@V?$allocator@D@2@@std@@K@std@@V?$allocator@U?$pair@$$CBV?$basic_string@DU?$char_traits@D@std@@V?$allocator@D@2@@std@@K@std@@@2@@std@@V?$allocator@V?$_Iterator@$00@?$list@U?$pair@$$CBV?$basic_string@DU?$char_traits@D@std@@V?$allocator@D@2@@std@@K@std@@V?$allocator@U?$pair@$$CBV?$basic_string@DU?$char_traits@D@std@@V?$allocator@D@2@@std@@K@std@@@2@@std@@@3@@std@@IAE@V?$allocator@V?$_Iterator@$00@?$list@U?$pair@$$CBV?$basic_string@DU?$char_traits@D@std@@V?$allocator@D@2@@std@@K@std@@V?$allocator@U?$pair@$$CBV?$basic_string@DU?$char_traits@D@std@@V?$allocator@D@2@@std@@K@std@@@2@@std@@@1@@Z 005272d0 f i Zenilib:zenilib.obj
 0002:000a6350       ??0?$allocator@V?$_Iterator@$00@?$list@U?$pair@$$CBV?$basic_string@DU?$char_traits@D@std@@V?$allocator@D@2@@std@@K@std@@V?$allocator@U?$pair@$$CBV?$basic_string@DU?$char_traits@D@std@@V?$allocator@D@2@@std@@K@std@@@2@@std@@@std@@QAE@ABV01@@Z 00527350 f i Zenilib:zenilib.obj
 0002:000a6390       ?deallocate@?$allocator@V?$_Iterator@$00@?$list@U?$pair@$$CBV?$basic_string@DU?$char_traits@D@std@@V?$allocator@D@2@@std@@K@std@@V?$allocator@U?$pair@$$CBV?$basic_string@DU?$char_traits@D@std@@V?$allocator@D@2@@std@@K@std@@@2@@std@@@std@@QAEXPAV?$_Iterator@$00@?$list@U?$pair@$$CBV?$basic_string@DU?$char_traits@D@std@@V?$allocator@D@2@@std@@K@std@@V?$allocator@U?$pair@$$CBV?$basic_string@DU?$char_traits@D@std@@V?$allocator@D@2@@std@@K@std@@@2@@2@I@Z 00527390 f i Zenilib:zenilib.obj
 0002:000a63f0       ?load_factor@?$_Hash@V?$_Hmap_traits@KVColor@Zeni@@V?$hash_compare@KU?$less@K@std@@@stdext@@V?$allocator@U?$pair@$$CBKVColor@Zeni@@@std@@@std@@$0A@@stdext@@@stdext@@QBEMXZ 005273f0 f i Zenilib:zenilib.obj
 0002:000a6490       ?max_load_factor@?$_Hash@V?$_Hmap_traits@KVColor@Zeni@@V?$hash_compare@KU?$less@K@std@@@stdext@@V?$allocator@U?$pair@$$CBKVColor@Zeni@@@std@@@std@@$0A@@stdext@@@stdext@@QBEMXZ 00527490 f i Zenilib:zenilib.obj
 0002:000a64d0       ?_Grow@?$_Hash@V?$_Hmap_traits@KVColor@Zeni@@V?$hash_compare@KU?$less@K@std@@@stdext@@V?$allocator@U?$pair@$$CBKVColor@Zeni@@@std@@@std@@$0A@@stdext@@@stdext@@IAEXXZ 005274d0 f i Zenilib:zenilib.obj
 0002:000a6cc0       ??0?$allocator@U?$pair@$$CBKVColor@Zeni@@@std@@@std@@QAE@ABV01@@Z 00527cc0 f i Zenilib:zenilib.obj
 0002:000a6d00       ??R?$less@K@std@@QBE_NABK0@Z 00527d00 f i Zenilib:zenilib.obj
 0002:000a6d50       ?begin@?$list@U?$pair@$$CBKVColor@Zeni@@@std@@V?$allocator@U?$pair@$$CBKVColor@Zeni@@@std@@@2@@std@@QAE?AV?$_Iterator@$00@12@XZ 00527d50 f i Zenilib:zenilib.obj
 0002:000a6de0       ?insert@?$list@U?$pair@$$CBKVColor@Zeni@@@std@@V?$allocator@U?$pair@$$CBKVColor@Zeni@@@std@@@2@@std@@QAE?AV?$_Iterator@$00@12@V?$_Const_iterator@$00@12@ABU?$pair@$$CBKVColor@Zeni@@@2@@Z 00527de0 f i Zenilib:zenilib.obj
 0002:000a6f10       ?erase@?$list@U?$pair@$$CBKVColor@Zeni@@@std@@V?$allocator@U?$pair@$$CBKVColor@Zeni@@@std@@@2@@std@@QAE?AV?$_Iterator@$00@12@V?$_Const_iterator@$00@12@@Z 00527f10 f i Zenilib:zenilib.obj
 0002:000a7160       ?splice@?$list@U?$pair@$$CBKVColor@Zeni@@@std@@V?$allocator@U?$pair@$$CBKVColor@Zeni@@@std@@@2@@std@@QAEXV?$_Const_iterator@$00@12@AAV12@0@Z 00528160 f i Zenilib:zenilib.obj
 0002:000a73f0       ?_Buynode@?$list@U?$pair@$$CBKVColor@Zeni@@@std@@V?$allocator@U?$pair@$$CBKVColor@Zeni@@@std@@@2@@std@@IAEPAU_Node@?$_List_nod@U?$pair@$$CBKVColor@Zeni@@@std@@V?$allocator@U?$pair@$$CBKVColor@Zeni@@@std@@@2@@2@XZ 005283f0 f i Zenilib:zenilib.obj
 0002:000a75b0       ??0?$_List_val@U?$pair@$$CBKVColor@Zeni@@@std@@V?$allocator@U?$pair@$$CBKVColor@Zeni@@@std@@@2@@std@@QAE@V?$allocator@U?$pair@$$CBKVColor@Zeni@@@std@@@1@@Z 005285b0 f i Zenilib:zenilib.obj
 0002:000a7630       ?destroy@?$allocator@PAU_Node@?$_List_nod@U?$pair@$$CBKVColor@Zeni@@@std@@V?$allocator@U?$pair@$$CBKVColor@Zeni@@@std@@@2@@std@@@std@@QAEXPAPAU_Node@?$_List_nod@U?$pair@$$CBKVColor@Zeni@@@std@@V?$allocator@U?$pair@$$CBKVColor@Zeni@@@std@@@2@@2@@Z 00528630 f i Zenilib:zenilib.obj
 0002:000a7690       ?size@?$vector@V?$_Iterator@$00@?$list@U?$pair@$$CBKVColor@Zeni@@@std@@V?$allocator@U?$pair@$$CBKVColor@Zeni@@@std@@@2@@std@@V?$allocator@V?$_Iterator@$00@?$list@U?$pair@$$CBKVColor@Zeni@@@std@@V?$allocator@U?$pair@$$CBKVColor@Zeni@@@std@@@2@@std@@@3@@std@@QBEIXZ 00528690 f i Zenilib:zenilib.obj
 0002:000a76e0       ?_Assign_n@?$vector@V?$_Iterator@$00@?$list@U?$pair@$$CBKVColor@Zeni@@@std@@V?$allocator@U?$pair@$$CBKVColor@Zeni@@@std@@@2@@std@@V?$allocator@V?$_Iterator@$00@?$list@U?$pair@$$CBKVColor@Zeni@@@std@@V?$allocator@U?$pair@$$CBKVColor@Zeni@@@std@@@2@@std@@@3@@std@@IAEXIABV?$_Iterator@$00@?$list@U?$pair@$$CBKVColor@Zeni@@@std@@V?$allocator@U?$pair@$$CBKVColor@Zeni@@@std@@@2@@2@@Z 005286e0 f i Zenilib:zenilib.obj
 0002:000a7950       ?_Buy@?$vector@V?$_Iterator@$00@?$list@U?$pair@$$CBKVColor@Zeni@@@std@@V?$allocator@U?$pair@$$CBKVColor@Zeni@@@std@@@2@@std@@V?$allocator@V?$_Iterator@$00@?$list@U?$pair@$$CBKVColor@Zeni@@@std@@V?$allocator@U?$pair@$$CBKVColor@Zeni@@@std@@@2@@std@@@3@@std@@IAE_NI@Z 00528950 f i Zenilib:zenilib.obj
 0002:000a7a30       ?_Destroy@?$vector@V?$_Iterator@$00@?$list@U?$pair@$$CBKVColor@Zeni@@@std@@V?$allocator@U?$pair@$$CBKVColor@Zeni@@@std@@@2@@std@@V?$allocator@V?$_Iterator@$00@?$list@U?$pair@$$CBKVColor@Zeni@@@std@@V?$allocator@U?$pair@$$CBKVColor@Zeni@@@std@@@2@@std@@@3@@std@@IAEXPAV?$_Iterator@$00@?$list@U?$pair@$$CBKVColor@Zeni@@@std@@V?$allocator@U?$pair@$$CBKVColor@Zeni@@@std@@@2@@2@0@Z 00528a30 f i Zenilib:zenilib.obj
 0002:000a7aa0       ??0?$_Vector_val@V?$_Iterator@$00@?$list@U?$pair@$$CBKVColor@Zeni@@@std@@V?$allocator@U?$pair@$$CBKVColor@Zeni@@@std@@@2@@std@@V?$allocator@V?$_Iterator@$00@?$list@U?$pair@$$CBKVColor@Zeni@@@std@@V?$allocator@U?$pair@$$CBKVColor@Zeni@@@std@@@2@@std@@@3@@std@@IAE@V?$allocator@V?$_Iterator@$00@?$list@U?$pair@$$CBKVColor@Zeni@@@std@@V?$allocator@U?$pair@$$CBKVColor@Zeni@@@std@@@2@@std@@@1@@Z 00528aa0 f i Zenilib:zenilib.obj
 0002:000a7b20       ??0?$allocator@V?$_Iterator@$00@?$list@U?$pair@$$CBKVColor@Zeni@@@std@@V?$allocator@U?$pair@$$CBKVColor@Zeni@@@std@@@2@@std@@@std@@QAE@ABV01@@Z 00528b20 f i Zenilib:zenilib.obj
 0002:000a7b60       ?deallocate@?$allocator@V?$_Iterator@$00@?$list@U?$pair@$$CBKVColor@Zeni@@@std@@V?$allocator@U?$pair@$$CBKVColor@Zeni@@@std@@@2@@std@@@std@@QAEXPAV?$_Iterator@$00@?$list@U?$pair@$$CBKVColor@Zeni@@@std@@V?$allocator@U?$pair@$$CBKVColor@Zeni@@@std@@@2@@2@I@Z 00528b60 f i Zenilib:zenilib.obj
 0002:000a7bc0       ?load_factor@?$_Hash@V?$_Hmap_traits@KPAVFont@Zeni@@V?$hash_compare@KU?$less@K@std@@@stdext@@V?$allocator@U?$pair@$$CBKPAVFont@Zeni@@@std@@@std@@$0A@@stdext@@@stdext@@QBEMXZ 00528bc0 f i Zenilib:zenilib.obj
 0002:000a7c60       ?max_load_factor@?$_Hash@V?$_Hmap_traits@KPAVFont@Zeni@@V?$hash_compare@KU?$less@K@std@@@stdext@@V?$allocator@U?$pair@$$CBKPAVFont@Zeni@@@std@@@std@@$0A@@stdext@@@stdext@@QBEMXZ 00528c60 f i Zenilib:zenilib.obj
 0002:000a7ca0       ?_Grow@?$_Hash@V?$_Hmap_traits@KPAVFont@Zeni@@V?$hash_compare@KU?$less@K@std@@@stdext@@V?$allocator@U?$pair@$$CBKPAVFont@Zeni@@@std@@@std@@$0A@@stdext@@@stdext@@IAEXXZ 00528ca0 f i Zenilib:zenilib.obj
 0002:000a8490       ??0?$allocator@U?$pair@$$CBKPAVFont@Zeni@@@std@@@std@@QAE@ABV01@@Z 00529490 f i Zenilib:zenilib.obj
 0002:000a84d0       ?insert@?$list@U?$pair@$$CBKPAVFont@Zeni@@@std@@V?$allocator@U?$pair@$$CBKPAVFont@Zeni@@@std@@@2@@std@@QAE?AV?$_Iterator@$00@12@V?$_Const_iterator@$00@12@ABU?$pair@$$CBKPAVFont@Zeni@@@2@@Z 005294d0 f i Zenilib:zenilib.obj
 0002:000a8600       ?splice@?$list@U?$pair@$$CBKPAVFont@Zeni@@@std@@V?$allocator@U?$pair@$$CBKPAVFont@Zeni@@@std@@@2@@std@@QAEXV?$_Const_iterator@$00@12@AAV12@0@Z 00529600 f i Zenilib:zenilib.obj
 0002:000a8890       ?_Buynode@?$list@U?$pair@$$CBKPAVFont@Zeni@@@std@@V?$allocator@U?$pair@$$CBKPAVFont@Zeni@@@std@@@2@@std@@IAEPAU_Node@?$_List_nod@U?$pair@$$CBKPAVFont@Zeni@@@std@@V?$allocator@U?$pair@$$CBKPAVFont@Zeni@@@std@@@2@@2@XZ 00529890 f i Zenilib:zenilib.obj
 0002:000a8a50       ??0?$_List_val@U?$pair@$$CBKPAVFont@Zeni@@@std@@V?$allocator@U?$pair@$$CBKPAVFont@Zeni@@@std@@@2@@std@@QAE@V?$allocator@U?$pair@$$CBKPAVFont@Zeni@@@std@@@1@@Z 00529a50 f i Zenilib:zenilib.obj
 0002:000a8ad0       ?destroy@?$allocator@PAU_Node@?$_List_nod@U?$pair@$$CBKPAVFont@Zeni@@@std@@V?$allocator@U?$pair@$$CBKPAVFont@Zeni@@@std@@@2@@std@@@std@@QAEXPAPAU_Node@?$_List_nod@U?$pair@$$CBKPAVFont@Zeni@@@std@@V?$allocator@U?$pair@$$CBKPAVFont@Zeni@@@std@@@2@@2@@Z 00529ad0 f i Zenilib:zenilib.obj
 0002:000a8b30       ?_Assign_n@?$vector@V?$_Iterator@$00@?$list@U?$pair@$$CBKPAVFont@Zeni@@@std@@V?$allocator@U?$pair@$$CBKPAVFont@Zeni@@@std@@@2@@std@@V?$allocator@V?$_Iterator@$00@?$list@U?$pair@$$CBKPAVFont@Zeni@@@std@@V?$allocator@U?$pair@$$CBKPAVFont@Zeni@@@std@@@2@@std@@@3@@std@@IAEXIABV?$_Iterator@$00@?$list@U?$pair@$$CBKPAVFont@Zeni@@@std@@V?$allocator@U?$pair@$$CBKPAVFont@Zeni@@@std@@@2@@2@@Z 00529b30 f i Zenilib:zenilib.obj
 0002:000a8da0       ?_Buy@?$vector@V?$_Iterator@$00@?$list@U?$pair@$$CBKPAVFont@Zeni@@@std@@V?$allocator@U?$pair@$$CBKPAVFont@Zeni@@@std@@@2@@std@@V?$allocator@V?$_Iterator@$00@?$list@U?$pair@$$CBKPAVFont@Zeni@@@std@@V?$allocator@U?$pair@$$CBKPAVFont@Zeni@@@std@@@2@@std@@@3@@std@@IAE_NI@Z 00529da0 f i Zenilib:zenilib.obj
 0002:000a8e80       ?_Destroy@?$vector@V?$_Iterator@$00@?$list@U?$pair@$$CBKPAVFont@Zeni@@@std@@V?$allocator@U?$pair@$$CBKPAVFont@Zeni@@@std@@@2@@std@@V?$allocator@V?$_Iterator@$00@?$list@U?$pair@$$CBKPAVFont@Zeni@@@std@@V?$allocator@U?$pair@$$CBKPAVFont@Zeni@@@std@@@2@@std@@@3@@std@@IAEXPAV?$_Iterator@$00@?$list@U?$pair@$$CBKPAVFont@Zeni@@@std@@V?$allocator@U?$pair@$$CBKPAVFont@Zeni@@@std@@@2@@2@0@Z 00529e80 f i Zenilib:zenilib.obj
 0002:000a8ef0       ??0?$_Vector_val@V?$_Iterator@$00@?$list@U?$pair@$$CBKPAVFont@Zeni@@@std@@V?$allocator@U?$pair@$$CBKPAVFont@Zeni@@@std@@@2@@std@@V?$allocator@V?$_Iterator@$00@?$list@U?$pair@$$CBKPAVFont@Zeni@@@std@@V?$allocator@U?$pair@$$CBKPAVFont@Zeni@@@std@@@2@@std@@@3@@std@@IAE@V?$allocator@V?$_Iterator@$00@?$list@U?$pair@$$CBKPAVFont@Zeni@@@std@@V?$allocator@U?$pair@$$CBKPAVFont@Zeni@@@std@@@2@@std@@@1@@Z 00529ef0 f i Zenilib:zenilib.obj
 0002:000a8f70       ??0?$allocator@V?$_Iterator@$00@?$list@U?$pair@$$CBKPAVFont@Zeni@@@std@@V?$allocator@U?$pair@$$CBKPAVFont@Zeni@@@std@@@2@@std@@@std@@QAE@ABV01@@Z 00529f70 f i Zenilib:zenilib.obj
 0002:000a8fb0       ?deallocate@?$allocator@V?$_Iterator@$00@?$list@U?$pair@$$CBKPAVFont@Zeni@@@std@@V?$allocator@U?$pair@$$CBKPAVFont@Zeni@@@std@@@2@@std@@@std@@QAEXPAV?$_Iterator@$00@?$list@U?$pair@$$CBKPAVFont@Zeni@@@std@@V?$allocator@U?$pair@$$CBKPAVFont@Zeni@@@std@@@2@@2@I@Z 00529fb0 f i Zenilib:zenilib.obj
 0002:000a9010       ?_Color@?$_Tree@V?$_Tmap_traits@UZeni_Input_ID@Zeni@@HU?$less@UZeni_Input_ID@Zeni@@@std@@V?$allocator@U?$pair@$$CBUZeni_Input_ID@Zeni@@H@std@@@4@$0A@@std@@@std@@KAAADPAU_Node@?$_Tree_nod@V?$_Tmap_traits@UZeni_Input_ID@Zeni@@HU?$less@UZeni_Input_ID@Zeni@@@std@@V?$allocator@U?$pair@$$CBUZeni_Input_ID@Zeni@@H@std@@@4@$0A@@std@@@2@@Z 0052a010 f i Zenilib:zenilib.obj
 0002:000a9050       ?_Make_iter@?$_Tree@V?$_Tmap_traits@UZeni_Input_ID@Zeni@@HU?$less@UZeni_Input_ID@Zeni@@@std@@V?$allocator@U?$pair@$$CBUZeni_Input_ID@Zeni@@H@std@@@4@$0A@@std@@@std@@QBE?AViterator@12@Vconst_iterator@12@@Z 0052a050 f i Zenilib:zenilib.obj
 0002:000a9160       ?max_size@?$_Tree@V?$_Tmap_traits@UZeni_Input_ID@Zeni@@HU?$less@UZeni_Input_ID@Zeni@@@std@@V?$allocator@U?$pair@$$CBUZeni_Input_ID@Zeni@@H@std@@@4@$0A@@std@@@std@@QBEIXZ 0052a160 f i Zenilib:zenilib.obj
 0002:000a91c0       ?erase@?$_Tree@V?$_Tmap_traits@UZeni_Input_ID@Zeni@@HU?$less@UZeni_Input_ID@Zeni@@@std@@V?$allocator@U?$pair@$$CBUZeni_Input_ID@Zeni@@H@std@@@4@$0A@@std@@@std@@QAE?AViterator@12@Vconst_iterator@12@@Z 0052a1c0 f i Zenilib:zenilib.obj
 0002:000a9c20       ?clear@?$_Tree@V?$_Tmap_traits@UZeni_Input_ID@Zeni@@HU?$less@UZeni_Input_ID@Zeni@@@std@@V?$allocator@U?$pair@$$CBUZeni_Input_ID@Zeni@@H@std@@@4@$0A@@std@@@std@@QAEXXZ 0052ac20 f i Zenilib:zenilib.obj
 0002:000a9ce0       ?_Lmost@?$_Tree@V?$_Tmap_traits@UZeni_Input_ID@Zeni@@HU?$less@UZeni_Input_ID@Zeni@@@std@@V?$allocator@U?$pair@$$CBUZeni_Input_ID@Zeni@@H@std@@@4@$0A@@std@@@std@@IBEAAPAU_Node@?$_Tree_nod@V?$_Tmap_traits@UZeni_Input_ID@Zeni@@HU?$less@UZeni_Input_ID@Zeni@@@std@@V?$allocator@U?$pair@$$CBUZeni_Input_ID@Zeni@@H@std@@@4@$0A@@std@@@2@XZ 0052ace0 f i Zenilib:zenilib.obj
 0002:000a9d40       ?_Lrotate@?$_Tree@V?$_Tmap_traits@UZeni_Input_ID@Zeni@@HU?$less@UZeni_Input_ID@Zeni@@@std@@V?$allocator@U?$pair@$$CBUZeni_Input_ID@Zeni@@H@std@@@4@$0A@@std@@@std@@IAEXPAU_Node@?$_Tree_nod@V?$_Tmap_traits@UZeni_Input_ID@Zeni@@HU?$less@UZeni_Input_ID@Zeni@@@std@@V?$allocator@U?$pair@$$CBUZeni_Input_ID@Zeni@@H@std@@@4@$0A@@std@@@2@@Z 0052ad40 f i Zenilib:zenilib.obj
 0002:000a9ef0       ?_Root@?$_Tree@V?$_Tmap_traits@UZeni_Input_ID@Zeni@@HU?$less@UZeni_Input_ID@Zeni@@@std@@V?$allocator@U?$pair@$$CBUZeni_Input_ID@Zeni@@H@std@@@4@$0A@@std@@@std@@IBEAAPAU_Node@?$_Tree_nod@V?$_Tmap_traits@UZeni_Input_ID@Zeni@@HU?$less@UZeni_Input_ID@Zeni@@@std@@V?$allocator@U?$pair@$$CBUZeni_Input_ID@Zeni@@H@std@@@4@$0A@@std@@@2@XZ 0052aef0 f i Zenilib:zenilib.obj
 0002:000a9f50       ?_Rrotate@?$_Tree@V?$_Tmap_traits@UZeni_Input_ID@Zeni@@HU?$less@UZeni_Input_ID@Zeni@@@std@@V?$allocator@U?$pair@$$CBUZeni_Input_ID@Zeni@@H@std@@@4@$0A@@std@@@std@@IAEXPAU_Node@?$_Tree_nod@V?$_Tmap_traits@UZeni_Input_ID@Zeni@@HU?$less@UZeni_Input_ID@Zeni@@@std@@V?$allocator@U?$pair@$$CBUZeni_Input_ID@Zeni@@H@std@@@4@$0A@@std@@@2@@Z 0052af50 f i Zenilib:zenilib.obj
 0002:000aa100       ?_Buynode@?$_Tree@V?$_Tmap_traits@UZeni_Input_ID@Zeni@@HU?$less@UZeni_Input_ID@Zeni@@@std@@V?$allocator@U?$pair@$$CBUZeni_Input_ID@Zeni@@H@std@@@4@$0A@@std@@@std@@IAEPAU_Node@?$_Tree_nod@V?$_Tmap_traits@UZeni_Input_ID@Zeni@@HU?$less@UZeni_Input_ID@Zeni@@@std@@V?$allocator@U?$pair@$$CBUZeni_Input_ID@Zeni@@H@std@@@4@$0A@@std@@@2@XZ 0052b100 f i Zenilib:zenilib.obj
 0002:000aa340       ?_Buynode@?$_Tree@V?$_Tmap_traits@UZeni_Input_ID@Zeni@@HU?$less@UZeni_Input_ID@Zeni@@@std@@V?$allocator@U?$pair@$$CBUZeni_Input_ID@Zeni@@H@std@@@4@$0A@@std@@@std@@IAEPAU_Node@?$_Tree_nod@V?$_Tmap_traits@UZeni_Input_ID@Zeni@@HU?$less@UZeni_Input_ID@Zeni@@@std@@V?$allocator@U?$pair@$$CBUZeni_Input_ID@Zeni@@H@std@@@4@$0A@@std@@@2@PAU342@00ABU?$pair@$$CBUZeni_Input_ID@Zeni@@H@2@D@Z 0052b340 f i Zenilib:zenilib.obj
 0002:000aa4b0       ??0?$_Tree_ptr@V?$_Tmap_traits@UZeni_Input_ID@Zeni@@HU?$less@UZeni_Input_ID@Zeni@@@std@@V?$allocator@U?$pair@$$CBUZeni_Input_ID@Zeni@@H@std@@@4@$0A@@std@@@std@@QAE@ABU?$less@UZeni_Input_ID@Zeni@@@1@V?$allocator@U?$pair@$$CBUZeni_Input_ID@Zeni@@H@std@@@1@@Z 0052b4b0 f i Zenilib:zenilib.obj
 0002:000aa540       ?_Color@?$_Tree@V?$_Tmap_traits@HUZeni_Input_ID@Zeni@@U?$less@H@std@@V?$allocator@U?$pair@$$CBHUZeni_Input_ID@Zeni@@@std@@@4@$0A@@std@@@std@@KAAADPAU_Node@?$_Tree_nod@V?$_Tmap_traits@HUZeni_Input_ID@Zeni@@U?$less@H@std@@V?$allocator@U?$pair@$$CBHUZeni_Input_ID@Zeni@@@std@@@4@$0A@@std@@@2@@Z 0052b540 f i Zenilib:zenilib.obj
 0002:000aa580       ?_Make_iter@?$_Tree@V?$_Tmap_traits@HUZeni_Input_ID@Zeni@@U?$less@H@std@@V?$allocator@U?$pair@$$CBHUZeni_Input_ID@Zeni@@@std@@@4@$0A@@std@@@std@@QBE?AViterator@12@Vconst_iterator@12@@Z 0052b580 f i Zenilib:zenilib.obj
 0002:000aa690       ?max_size@?$_Tree@V?$_Tmap_traits@HUZeni_Input_ID@Zeni@@U?$less@H@std@@V?$allocator@U?$pair@$$CBHUZeni_Input_ID@Zeni@@@std@@@4@$0A@@std@@@std@@QBEIXZ 0052b690 f i Zenilib:zenilib.obj
 0002:000aa6f0       ?erase@?$_Tree@V?$_Tmap_traits@HUZeni_Input_ID@Zeni@@U?$less@H@std@@V?$allocator@U?$pair@$$CBHUZeni_Input_ID@Zeni@@@std@@@4@$0A@@std@@@std@@QAE?AViterator@12@Vconst_iterator@12@@Z 0052b6f0 f i Zenilib:zenilib.obj
 0002:000ab150       ?clear@?$_Tree@V?$_Tmap_traits@HUZeni_Input_ID@Zeni@@U?$less@H@std@@V?$allocator@U?$pair@$$CBHUZeni_Input_ID@Zeni@@@std@@@4@$0A@@std@@@std@@QAEXXZ 0052c150 f i Zenilib:zenilib.obj
 0002:000ab210       ?_Lmost@?$_Tree@V?$_Tmap_traits@HUZeni_Input_ID@Zeni@@U?$less@H@std@@V?$allocator@U?$pair@$$CBHUZeni_Input_ID@Zeni@@@std@@@4@$0A@@std@@@std@@IBEAAPAU_Node@?$_Tree_nod@V?$_Tmap_traits@HUZeni_Input_ID@Zeni@@U?$less@H@std@@V?$allocator@U?$pair@$$CBHUZeni_Input_ID@Zeni@@@std@@@4@$0A@@std@@@2@XZ 0052c210 f i Zenilib:zenilib.obj
 0002:000ab270       ?_Lrotate@?$_Tree@V?$_Tmap_traits@HUZeni_Input_ID@Zeni@@U?$less@H@std@@V?$allocator@U?$pair@$$CBHUZeni_Input_ID@Zeni@@@std@@@4@$0A@@std@@@std@@IAEXPAU_Node@?$_Tree_nod@V?$_Tmap_traits@HUZeni_Input_ID@Zeni@@U?$less@H@std@@V?$allocator@U?$pair@$$CBHUZeni_Input_ID@Zeni@@@std@@@4@$0A@@std@@@2@@Z 0052c270 f i Zenilib:zenilib.obj
 0002:000ab420       ?_Root@?$_Tree@V?$_Tmap_traits@HUZeni_Input_ID@Zeni@@U?$less@H@std@@V?$allocator@U?$pair@$$CBHUZeni_Input_ID@Zeni@@@std@@@4@$0A@@std@@@std@@IBEAAPAU_Node@?$_Tree_nod@V?$_Tmap_traits@HUZeni_Input_ID@Zeni@@U?$less@H@std@@V?$allocator@U?$pair@$$CBHUZeni_Input_ID@Zeni@@@std@@@4@$0A@@std@@@2@XZ 0052c420 f i Zenilib:zenilib.obj
 0002:000ab480       ?_Rrotate@?$_Tree@V?$_Tmap_traits@HUZeni_Input_ID@Zeni@@U?$less@H@std@@V?$allocator@U?$pair@$$CBHUZeni_Input_ID@Zeni@@@std@@@4@$0A@@std@@@std@@IAEXPAU_Node@?$_Tree_nod@V?$_Tmap_traits@HUZeni_Input_ID@Zeni@@U?$less@H@std@@V?$allocator@U?$pair@$$CBHUZeni_Input_ID@Zeni@@@std@@@4@$0A@@std@@@2@@Z 0052c480 f i Zenilib:zenilib.obj
 0002:000ab630       ?_Buynode@?$_Tree@V?$_Tmap_traits@HUZeni_Input_ID@Zeni@@U?$less@H@std@@V?$allocator@U?$pair@$$CBHUZeni_Input_ID@Zeni@@@std@@@4@$0A@@std@@@std@@IAEPAU_Node@?$_Tree_nod@V?$_Tmap_traits@HUZeni_Input_ID@Zeni@@U?$less@H@std@@V?$allocator@U?$pair@$$CBHUZeni_Input_ID@Zeni@@@std@@@4@$0A@@std@@@2@XZ 0052c630 f i Zenilib:zenilib.obj
 0002:000ab870       ?_Buynode@?$_Tree@V?$_Tmap_traits@HUZeni_Input_ID@Zeni@@U?$less@H@std@@V?$allocator@U?$pair@$$CBHUZeni_Input_ID@Zeni@@@std@@@4@$0A@@std@@@std@@IAEPAU_Node@?$_Tree_nod@V?$_Tmap_traits@HUZeni_Input_ID@Zeni@@U?$less@H@std@@V?$allocator@U?$pair@$$CBHUZeni_Input_ID@Zeni@@@std@@@4@$0A@@std@@@2@PAU342@00ABU?$pair@$$CBHUZeni_Input_ID@Zeni@@@2@D@Z 0052c870 f i Zenilib:zenilib.obj
 0002:000ab9e0       ??0?$_Tree_ptr@V?$_Tmap_traits@HUZeni_Input_ID@Zeni@@U?$less@H@std@@V?$allocator@U?$pair@$$CBHUZeni_Input_ID@Zeni@@@std@@@4@$0A@@std@@@std@@QAE@ABU?$less@H@1@V?$allocator@U?$pair@$$CBHUZeni_Input_ID@Zeni@@@std@@@1@@Z 0052c9e0 f i Zenilib:zenilib.obj
 0002:000aba70       ?max_size@?$allocator@H@std@@QBEIXZ 0052ca70 f i Zenilib:zenilib.obj
 0002:000abae0       ??0?$_Deque_map@VGamestate@Zeni@@V?$allocator@VGamestate@Zeni@@@std@@@std@@IAE@V?$allocator@VGamestate@Zeni@@@1@@Z 0052cae0 f i Zenilib:zenilib.obj
 0002:000abb60       ??0?$allocator@VGamestate@Zeni@@@std@@QAE@ABV01@@Z 0052cb60 f i Zenilib:zenilib.obj
 0002:000abba0       ?max_size@?$allocator@U?$pair@V?$basic_string@DU?$char_traits@D@std@@V?$allocator@D@2@@std@@K@std@@@std@@QBEIXZ 0052cba0 f i Zenilib:zenilib.obj
 0002:000abc10       ?begin@?$_Hash@V?$_Hmap_traits@KPAVTexture@Zeni@@V?$hash_compare@KU?$less@K@std@@@stdext@@V?$allocator@U?$pair@$$CBKPAVTexture@Zeni@@@std@@@std@@$0A@@stdext@@@stdext@@QBE?AV?$_Const_iterator@$00@?$list@U?$pair@$$CBKPAVTexture@Zeni@@@std@@V?$allocator@U?$pair@$$CBKPAVTexture@Zeni@@@std@@@2@@std@@XZ 0052cc10 f i Zenilib:zenilib.obj
 0002:000abc90       ?load_factor@?$_Hash@V?$_Hmap_traits@KPAVTexture@Zeni@@V?$hash_compare@KU?$less@K@std@@@stdext@@V?$allocator@U?$pair@$$CBKPAVTexture@Zeni@@@std@@@std@@$0A@@stdext@@@stdext@@QBEMXZ 0052cc90 f i Zenilib:zenilib.obj
 0002:000abd30       ?max_load_factor@?$_Hash@V?$_Hmap_traits@KPAVTexture@Zeni@@V?$hash_compare@KU?$less@K@std@@@stdext@@V?$allocator@U?$pair@$$CBKPAVTexture@Zeni@@@std@@@std@@$0A@@stdext@@@stdext@@QBEMXZ 0052cd30 f i Zenilib:zenilib.obj
 0002:000abd70       ?_Grow@?$_Hash@V?$_Hmap_traits@KPAVTexture@Zeni@@V?$hash_compare@KU?$less@K@std@@@stdext@@V?$allocator@U?$pair@$$CBKPAVTexture@Zeni@@@std@@@std@@$0A@@stdext@@@stdext@@IAEXXZ 0052cd70 f i Zenilib:zenilib.obj
 0002:000ac560       ??0?$allocator@U?$pair@$$CBKPAVTexture@Zeni@@@std@@@std@@QAE@ABV01@@Z 0052d560 f i Zenilib:zenilib.obj
 0002:000ac5a0       ?begin@?$list@U?$pair@$$CBKPAVTexture@Zeni@@@std@@V?$allocator@U?$pair@$$CBKPAVTexture@Zeni@@@std@@@2@@std@@QBE?AV?$_Const_iterator@$00@12@XZ 0052d5a0 f i Zenilib:zenilib.obj
 0002:000ac630       ?get_allocator@?$list@U?$pair@$$CBKPAVTexture@Zeni@@@std@@V?$allocator@U?$pair@$$CBKPAVTexture@Zeni@@@std@@@2@@std@@QBE?AV?$allocator@U?$pair@$$CBKPAVTexture@Zeni@@@std@@@2@XZ 0052d630 f i Zenilib:zenilib.obj
 0002:000ac690       ?insert@?$list@U?$pair@$$CBKPAVTexture@Zeni@@@std@@V?$allocator@U?$pair@$$CBKPAVTexture@Zeni@@@std@@@2@@std@@QAE?AV?$_Iterator@$00@12@V?$_Const_iterator@$00@12@ABU?$pair@$$CBKPAVTexture@Zeni@@@2@@Z 0052d690 f i Zenilib:zenilib.obj
 0002:000ac7c0       ?splice@?$list@U?$pair@$$CBKPAVTexture@Zeni@@@std@@V?$allocator@U?$pair@$$CBKPAVTexture@Zeni@@@std@@@2@@std@@QAEXV?$_Const_iterator@$00@12@AAV12@0@Z 0052d7c0 f i Zenilib:zenilib.obj
 0002:000aca50       ?_Buynode@?$list@U?$pair@$$CBKPAVTexture@Zeni@@@std@@V?$allocator@U?$pair@$$CBKPAVTexture@Zeni@@@std@@@2@@std@@IAEPAU_Node@?$_List_nod@U?$pair@$$CBKPAVTexture@Zeni@@@std@@V?$allocator@U?$pair@$$CBKPAVTexture@Zeni@@@std@@@2@@2@XZ 0052da50 f i Zenilib:zenilib.obj
 0002:000acc10       ??0?$_List_val@U?$pair@$$CBKPAVTexture@Zeni@@@std@@V?$allocator@U?$pair@$$CBKPAVTexture@Zeni@@@std@@@2@@std@@QAE@V?$allocator@U?$pair@$$CBKPAVTexture@Zeni@@@std@@@1@@Z 0052dc10 f i Zenilib:zenilib.obj
 0002:000acc90       ?destroy@?$allocator@PAU_Node@?$_List_nod@U?$pair@$$CBKPAVTexture@Zeni@@@std@@V?$allocator@U?$pair@$$CBKPAVTexture@Zeni@@@std@@@2@@std@@@std@@QAEXPAPAU_Node@?$_List_nod@U?$pair@$$CBKPAVTexture@Zeni@@@std@@V?$allocator@U?$pair@$$CBKPAVTexture@Zeni@@@std@@@2@@2@@Z 0052dc90 f i Zenilib:zenilib.obj
 0002:000accf0       ?begin@?$vector@V?$_Iterator@$00@?$list@U?$pair@$$CBKPAVTexture@Zeni@@@std@@V?$allocator@U?$pair@$$CBKPAVTexture@Zeni@@@std@@@2@@std@@V?$allocator@V?$_Iterator@$00@?$list@U?$pair@$$CBKPAVTexture@Zeni@@@std@@V?$allocator@U?$pair@$$CBKPAVTexture@Zeni@@@std@@@2@@std@@@3@@std@@QAE?AV?$_Vector_iterator@V?$_Iterator@$00@?$list@U?$pair@$$CBKPAVTexture@Zeni@@@std@@V?$allocator@U?$pair@$$CBKPAVTexture@Zeni@@@std@@@2@@std@@V?$allocator@V?$_Iterator@$00@?$list@U?$pair@$$CBKPAVTexture@Zeni@@@std@@V?$allocator@U?$pair@$$CBKPAVTexture@Zeni@@@std@@@2@@std@@@3@@2@XZ 0052dcf0 f i Zenilib:zenilib.obj
 0002:000acd80       ?end@?$vector@V?$_Iterator@$00@?$list@U?$pair@$$CBKPAVTexture@Zeni@@@std@@V?$allocator@U?$pair@$$CBKPAVTexture@Zeni@@@std@@@2@@std@@V?$allocator@V?$_Iterator@$00@?$list@U?$pair@$$CBKPAVTexture@Zeni@@@std@@V?$allocator@U?$pair@$$CBKPAVTexture@Zeni@@@std@@@2@@std@@@3@@std@@QAE?AV?$_Vector_iterator@V?$_Iterator@$00@?$list@U?$pair@$$CBKPAVTexture@Zeni@@@std@@V?$allocator@U?$pair@$$CBKPAVTexture@Zeni@@@std@@@2@@std@@V?$allocator@V?$_Iterator@$00@?$list@U?$pair@$$CBKPAVTexture@Zeni@@@std@@V?$allocator@U?$pair@$$CBKPAVTexture@Zeni@@@std@@@2@@std@@@3@@2@XZ 0052dd80 f i Zenilib:zenilib.obj
 0002:000ace10       ?resize@?$vector@V?$_Iterator@$00@?$list@U?$pair@$$CBKPAVTexture@Zeni@@@std@@V?$allocator@U?$pair@$$CBKPAVTexture@Zeni@@@std@@@2@@std@@V?$allocator@V?$_Iterator@$00@?$list@U?$pair@$$CBKPAVTexture@Zeni@@@std@@V?$allocator@U?$pair@$$CBKPAVTexture@Zeni@@@std@@@2@@std@@@3@@std@@QAEXIV?$_Iterator@$00@?$list@U?$pair@$$CBKPAVTexture@Zeni@@@std@@V?$allocator@U?$pair@$$CBKPAVTexture@Zeni@@@std@@@2@@2@@Z 0052de10 f i Zenilib:zenilib.obj
 0002:000ad0b0       ?_Assign_n@?$vector@V?$_Iterator@$00@?$list@U?$pair@$$CBKPAVTexture@Zeni@@@std@@V?$allocator@U?$pair@$$CBKPAVTexture@Zeni@@@std@@@2@@std@@V?$allocator@V?$_Iterator@$00@?$list@U?$pair@$$CBKPAVTexture@Zeni@@@std@@V?$allocator@U?$pair@$$CBKPAVTexture@Zeni@@@std@@@2@@std@@@3@@std@@IAEXIABV?$_Iterator@$00@?$list@U?$pair@$$CBKPAVTexture@Zeni@@@std@@V?$allocator@U?$pair@$$CBKPAVTexture@Zeni@@@std@@@2@@2@@Z 0052e0b0 f i Zenilib:zenilib.obj
 0002:000ad320       ?_Buy@?$vector@V?$_Iterator@$00@?$list@U?$pair@$$CBKPAVTexture@Zeni@@@std@@V?$allocator@U?$pair@$$CBKPAVTexture@Zeni@@@std@@@2@@std@@V?$allocator@V?$_Iterator@$00@?$list@U?$pair@$$CBKPAVTexture@Zeni@@@std@@V?$allocator@U?$pair@$$CBKPAVTexture@Zeni@@@std@@@2@@std@@@3@@std@@IAE_NI@Z 0052e320 f i Zenilib:zenilib.obj
 0002:000ad400       ?_Destroy@?$vector@V?$_Iterator@$00@?$list@U?$pair@$$CBKPAVTexture@Zeni@@@std@@V?$allocator@U?$pair@$$CBKPAVTexture@Zeni@@@std@@@2@@std@@V?$allocator@V?$_Iterator@$00@?$list@U?$pair@$$CBKPAVTexture@Zeni@@@std@@V?$allocator@U?$pair@$$CBKPAVTexture@Zeni@@@std@@@2@@std@@@3@@std@@IAEXPAV?$_Iterator@$00@?$list@U?$pair@$$CBKPAVTexture@Zeni@@@std@@V?$allocator@U?$pair@$$CBKPAVTexture@Zeni@@@std@@@2@@2@0@Z 0052e400 f i Zenilib:zenilib.obj
 0002:000ad470       ??0?$_Vector_val@V?$_Iterator@$00@?$list@U?$pair@$$CBKPAVTexture@Zeni@@@std@@V?$allocator@U?$pair@$$CBKPAVTexture@Zeni@@@std@@@2@@std@@V?$allocator@V?$_Iterator@$00@?$list@U?$pair@$$CBKPAVTexture@Zeni@@@std@@V?$allocator@U?$pair@$$CBKPAVTexture@Zeni@@@std@@@2@@std@@@3@@std@@IAE@V?$allocator@V?$_Iterator@$00@?$list@U?$pair@$$CBKPAVTexture@Zeni@@@std@@V?$allocator@U?$pair@$$CBKPAVTexture@Zeni@@@std@@@2@@std@@@1@@Z 0052e470 f i Zenilib:zenilib.obj
 0002:000ad4f0       ??0?$allocator@V?$_Iterator@$00@?$list@U?$pair@$$CBKPAVTexture@Zeni@@@std@@V?$allocator@U?$pair@$$CBKPAVTexture@Zeni@@@std@@@2@@std@@@std@@QAE@ABV01@@Z 0052e4f0 f i Zenilib:zenilib.obj
 0002:000ad530       ?deallocate@?$allocator@V?$_Iterator@$00@?$list@U?$pair@$$CBKPAVTexture@Zeni@@@std@@V?$allocator@U?$pair@$$CBKPAVTexture@Zeni@@@std@@@2@@std@@@std@@QAEXPAV?$_Iterator@$00@?$list@U?$pair@$$CBKPAVTexture@Zeni@@@std@@V?$allocator@U?$pair@$$CBKPAVTexture@Zeni@@@std@@@2@@2@I@Z 0052e530 f i Zenilib:zenilib.obj
 0002:000ad590       ?max_size@?$allocator@PAV?$Triangle@VVertex3f_Color@Zeni@@@Zeni@@@std@@QBEIXZ 0052e590 f i Zenilib:zenilib.obj
 0002:000ad600       ?max_size@?$allocator@PAV?$Triangle@VVertex3f_Texture@Zeni@@@Zeni@@@std@@QBEIXZ 0052e600 f i Zenilib:zenilib.obj
 0002:000ad670       ?begin@?$vector@PAUVertex_Buffer_Range@Vertex_Buffer@Zeni@@V?$allocator@PAUVertex_Buffer_Range@Vertex_Buffer@Zeni@@@std@@@std@@QAE?AV?$_Vector_iterator@PAUVertex_Buffer_Range@Vertex_Buffer@Zeni@@V?$allocator@PAUVertex_Buffer_Range@Vertex_Buffer@Zeni@@@std@@@2@XZ 0052e670 f i Zenilib:zenilib.obj
 0002:000ad700       ?_Insert_n@?$vector@PAUVertex_Buffer_Range@Vertex_Buffer@Zeni@@V?$allocator@PAUVertex_Buffer_Range@Vertex_Buffer@Zeni@@@std@@@std@@IAEXV?$_Vector_const_iterator@PAUVertex_Buffer_Range@Vertex_Buffer@Zeni@@V?$allocator@PAUVertex_Buffer_Range@Vertex_Buffer@Zeni@@@std@@@2@IABQAUVertex_Buffer_Range@Vertex_Buffer@Zeni@@@Z 0052e700 f i Zenilib:zenilib.obj
 0002:000adc60       ?max_size@?$allocator@PAUVertex_Buffer_Range@Vertex_Buffer@Zeni@@@std@@QBEIXZ 0052ec60 f i Zenilib:zenilib.obj
 0002:000adcd0       ?_Buynode@?$_Tree@V?$_Tset_traits@PBVTask@Zeni@@U?$less@PBVTask@Zeni@@@std@@V?$allocator@PBVTask@Zeni@@@4@$0A@@std@@@std@@IAEPAU_Node@?$_Tree_nod@V?$_Tset_traits@PBVTask@Zeni@@U?$less@PBVTask@Zeni@@@std@@V?$allocator@PBVTask@Zeni@@@4@$0A@@std@@@2@XZ 0052ecd0 f i Zenilib:zenilib.obj
 0002:000adf10       ??0?$_Tree_ptr@V?$_Tset_traits@PBVTask@Zeni@@U?$less@PBVTask@Zeni@@@std@@V?$allocator@PBVTask@Zeni@@@4@$0A@@std@@@std@@QAE@ABU?$less@PBVTask@Zeni@@@1@V?$allocator@PBVTask@Zeni@@@1@@Z 0052ef10 f i Zenilib:zenilib.obj
 0002:000adfa0       ?allocate@?$allocator@U_Node@?$_Tree_nod@V?$_Tset_traits@PBVTask@Zeni@@U?$less@PBVTask@Zeni@@@std@@V?$allocator@PBVTask@Zeni@@@4@$0A@@std@@@std@@@std@@QAEPAU_Node@?$_Tree_nod@V?$_Tset_traits@PBVTask@Zeni@@U?$less@PBVTask@Zeni@@@std@@V?$allocator@PBVTask@Zeni@@@4@$0A@@std@@@2@I@Z 0052efa0 f i Zenilib:zenilib.obj
 0002:000ae000       ??Econst_iterator@?$_Tree@V?$_Tset_traits@PBVTask@Zeni@@U?$less@PBVTask@Zeni@@@std@@V?$allocator@PBVTask@Zeni@@@4@$0A@@std@@@std@@QAE?AV012@H@Z 0052f000 f i Zenilib:zenilib.obj
 0002:000ae120       ?max_size@?$allocator@UChunk@Split_UDP_Socket@Zeni@@@std@@QBEIXZ 0052f120 f i Zenilib:zenilib.obj
 0002:000ae190       ?max_size@?$list@PAVChunk_Set@Split_UDP_Socket@Zeni@@V?$allocator@PAVChunk_Set@Split_UDP_Socket@Zeni@@@std@@@std@@QBEIXZ 0052f190 f i Zenilib:zenilib.obj
 0002:000ae1f0       ??0?$_List_nod@PAVChunk_Set@Split_UDP_Socket@Zeni@@V?$allocator@PAVChunk_Set@Split_UDP_Socket@Zeni@@@std@@@std@@IAE@V?$allocator@PAVChunk_Set@Split_UDP_Socket@Zeni@@@1@@Z 0052f1f0 f i Zenilib:zenilib.obj
 0002:000ae270       ?construct@?$allocator@PAVChunk_Set@Split_UDP_Socket@Zeni@@@std@@QAEXPAPAVChunk_Set@Split_UDP_Socket@Zeni@@ABQAV345@@Z 0052f270 f i Zenilib:zenilib.obj
 0002:000ae2d0       ?load_factor@?$_Hash@V?$_Hmap_traits@KVSound_Buffer@Zeni@@V?$hash_compare@KU?$less@K@std@@@stdext@@V?$allocator@U?$pair@$$CBKVSound_Buffer@Zeni@@@std@@@std@@$0A@@stdext@@@stdext@@QBEMXZ 0052f2d0 f i Zenilib:zenilib.obj
 0002:000ae370       ?max_load_factor@?$_Hash@V?$_Hmap_traits@KVSound_Buffer@Zeni@@V?$hash_compare@KU?$less@K@std@@@stdext@@V?$allocator@U?$pair@$$CBKVSound_Buffer@Zeni@@@std@@@std@@$0A@@stdext@@@stdext@@QBEMXZ 0052f370 f i Zenilib:zenilib.obj
 0002:000ae3b0       ?_Grow@?$_Hash@V?$_Hmap_traits@KVSound_Buffer@Zeni@@V?$hash_compare@KU?$less@K@std@@@stdext@@V?$allocator@U?$pair@$$CBKVSound_Buffer@Zeni@@@std@@@std@@$0A@@stdext@@@stdext@@IAEXXZ 0052f3b0 f i Zenilib:zenilib.obj
 0002:000aeba0       ??0?$allocator@U?$pair@$$CBKVSound_Buffer@Zeni@@@std@@@std@@QAE@ABV01@@Z 0052fba0 f i Zenilib:zenilib.obj
 0002:000aebe0       ?begin@?$list@U?$pair@$$CBKVSound_Buffer@Zeni@@@std@@V?$allocator@U?$pair@$$CBKVSound_Buffer@Zeni@@@std@@@2@@std@@QAE?AV?$_Iterator@$00@12@XZ 0052fbe0 f i Zenilib:zenilib.obj
 0002:000aec70       ?insert@?$list@U?$pair@$$CBKVSound_Buffer@Zeni@@@std@@V?$allocator@U?$pair@$$CBKVSound_Buffer@Zeni@@@std@@@2@@std@@QAE?AV?$_Iterator@$00@12@V?$_Const_iterator@$00@12@ABU?$pair@$$CBKVSound_Buffer@Zeni@@@2@@Z 0052fc70 f i Zenilib:zenilib.obj
 0002:000aeda0       ?erase@?$list@U?$pair@$$CBKVSound_Buffer@Zeni@@@std@@V?$allocator@U?$pair@$$CBKVSound_Buffer@Zeni@@@std@@@2@@std@@QAE?AV?$_Iterator@$00@12@V?$_Const_iterator@$00@12@@Z 0052fda0 f i Zenilib:zenilib.obj
 0002:000aeff0       ?splice@?$list@U?$pair@$$CBKVSound_Buffer@Zeni@@@std@@V?$allocator@U?$pair@$$CBKVSound_Buffer@Zeni@@@std@@@2@@std@@QAEXV?$_Const_iterator@$00@12@AAV12@0@Z 0052fff0 f i Zenilib:zenilib.obj
 0002:000af280       ?_Buynode@?$list@U?$pair@$$CBKVSound_Buffer@Zeni@@@std@@V?$allocator@U?$pair@$$CBKVSound_Buffer@Zeni@@@std@@@2@@std@@IAEPAU_Node@?$_List_nod@U?$pair@$$CBKVSound_Buffer@Zeni@@@std@@V?$allocator@U?$pair@$$CBKVSound_Buffer@Zeni@@@std@@@2@@2@XZ 00530280 f i Zenilib:zenilib.obj
 0002:000af440       ??0?$_List_val@U?$pair@$$CBKVSound_Buffer@Zeni@@@std@@V?$allocator@U?$pair@$$CBKVSound_Buffer@Zeni@@@std@@@2@@std@@QAE@V?$allocator@U?$pair@$$CBKVSound_Buffer@Zeni@@@std@@@1@@Z 00530440 f i Zenilib:zenilib.obj
 0002:000af4c0       ?destroy@?$allocator@PAU_Node@?$_List_nod@U?$pair@$$CBKVSound_Buffer@Zeni@@@std@@V?$allocator@U?$pair@$$CBKVSound_Buffer@Zeni@@@std@@@2@@std@@@std@@QAEXPAPAU_Node@?$_List_nod@U?$pair@$$CBKVSound_Buffer@Zeni@@@std@@V?$allocator@U?$pair@$$CBKVSound_Buffer@Zeni@@@std@@@2@@2@@Z 005304c0 f i Zenilib:zenilib.obj
 0002:000af520       ?size@?$vector@V?$_Iterator@$00@?$list@U?$pair@$$CBKVSound_Buffer@Zeni@@@std@@V?$allocator@U?$pair@$$CBKVSound_Buffer@Zeni@@@std@@@2@@std@@V?$allocator@V?$_Iterator@$00@?$list@U?$pair@$$CBKVSound_Buffer@Zeni@@@std@@V?$allocator@U?$pair@$$CBKVSound_Buffer@Zeni@@@std@@@2@@std@@@3@@std@@QBEIXZ 00530520 f i Zenilib:zenilib.obj
 0002:000af570       ?_Assign_n@?$vector@V?$_Iterator@$00@?$list@U?$pair@$$CBKVSound_Buffer@Zeni@@@std@@V?$allocator@U?$pair@$$CBKVSound_Buffer@Zeni@@@std@@@2@@std@@V?$allocator@V?$_Iterator@$00@?$list@U?$pair@$$CBKVSound_Buffer@Zeni@@@std@@V?$allocator@U?$pair@$$CBKVSound_Buffer@Zeni@@@std@@@2@@std@@@3@@std@@IAEXIABV?$_Iterator@$00@?$list@U?$pair@$$CBKVSound_Buffer@Zeni@@@std@@V?$allocator@U?$pair@$$CBKVSound_Buffer@Zeni@@@std@@@2@@2@@Z 00530570 f i Zenilib:zenilib.obj
 0002:000af7e0       ?_Buy@?$vector@V?$_Iterator@$00@?$list@U?$pair@$$CBKVSound_Buffer@Zeni@@@std@@V?$allocator@U?$pair@$$CBKVSound_Buffer@Zeni@@@std@@@2@@std@@V?$allocator@V?$_Iterator@$00@?$list@U?$pair@$$CBKVSound_Buffer@Zeni@@@std@@V?$allocator@U?$pair@$$CBKVSound_Buffer@Zeni@@@std@@@2@@std@@@3@@std@@IAE_NI@Z 005307e0 f i Zenilib:zenilib.obj
 0002:000af8c0       ?_Destroy@?$vector@V?$_Iterator@$00@?$list@U?$pair@$$CBKVSound_Buffer@Zeni@@@std@@V?$allocator@U?$pair@$$CBKVSound_Buffer@Zeni@@@std@@@2@@std@@V?$allocator@V?$_Iterator@$00@?$list@U?$pair@$$CBKVSound_Buffer@Zeni@@@std@@V?$allocator@U?$pair@$$CBKVSound_Buffer@Zeni@@@std@@@2@@std@@@3@@std@@IAEXPAV?$_Iterator@$00@?$list@U?$pair@$$CBKVSound_Buffer@Zeni@@@std@@V?$allocator@U?$pair@$$CBKVSound_Buffer@Zeni@@@std@@@2@@2@0@Z 005308c0 f i Zenilib:zenilib.obj
 0002:000af930       ??0?$_Vector_val@V?$_Iterator@$00@?$list@U?$pair@$$CBKVSound_Buffer@Zeni@@@std@@V?$allocator@U?$pair@$$CBKVSound_Buffer@Zeni@@@std@@@2@@std@@V?$allocator@V?$_Iterator@$00@?$list@U?$pair@$$CBKVSound_Buffer@Zeni@@@std@@V?$allocator@U?$pair@$$CBKVSound_Buffer@Zeni@@@std@@@2@@std@@@3@@std@@IAE@V?$allocator@V?$_Iterator@$00@?$list@U?$pair@$$CBKVSound_Buffer@Zeni@@@std@@V?$allocator@U?$pair@$$CBKVSound_Buffer@Zeni@@@std@@@2@@std@@@1@@Z 00530930 f i Zenilib:zenilib.obj
 0002:000af9b0       ??0?$allocator@V?$_Iterator@$00@?$list@U?$pair@$$CBKVSound_Buffer@Zeni@@@std@@V?$allocator@U?$pair@$$CBKVSound_Buffer@Zeni@@@std@@@2@@std@@@std@@QAE@ABV01@@Z 005309b0 f i Zenilib:zenilib.obj
 0002:000af9f0       ?deallocate@?$allocator@V?$_Iterator@$00@?$list@U?$pair@$$CBKVSound_Buffer@Zeni@@@std@@V?$allocator@U?$pair@$$CBKVSound_Buffer@Zeni@@@std@@@2@@std@@@std@@QAEXPAV?$_Iterator@$00@?$list@U?$pair@$$CBKVSound_Buffer@Zeni@@@std@@V?$allocator@U?$pair@$$CBKVSound_Buffer@Zeni@@@std@@@2@@2@I@Z 005309f0 f i Zenilib:zenilib.obj
 0002:000afa50       ??0?$vector@HV?$allocator@H@std@@@std@@QAE@ABV01@@Z 00530a50 f i Zenilib:zenilib.obj
 0002:000afbf0       ?_Make_iter@?$vector@HV?$allocator@H@std@@@std@@QBE?AV?$_Vector_iterator@HV?$allocator@H@std@@@2@V?$_Vector_const_iterator@HV?$allocator@H@std@@@2@@Z 00530bf0 f i Zenilib:zenilib.obj
 0002:000afcc0       ?max_size@?$allocator@ULine@Text_Box@Zeni@@@std@@QBEIXZ 00530cc0 f i Zenilib:zenilib.obj
 0002:000afd30       ??F?$_Iterator@$00@?$list@U?$pair@$$CBV?$basic_string@DU?$char_traits@D@std@@V?$allocator@D@2@@std@@K@std@@V?$allocator@U?$pair@$$CBV?$basic_string@DU?$char_traits@D@std@@V?$allocator@D@2@@std@@K@std@@@2@@std@@QAEAAV012@XZ 00530d30 f i Zenilib:zenilib.obj
 0002:000afd90       ??F?$_Iterator@$00@?$list@U?$pair@$$CBKPAVFont@Zeni@@@std@@V?$allocator@U?$pair@$$CBKPAVFont@Zeni@@@std@@@2@@std@@QAEAAV012@XZ 00530d90 f i Zenilib:zenilib.obj
 0002:000afdf0       ??Fiterator@?$_Tree@V?$_Tmap_traits@UZeni_Input_ID@Zeni@@HU?$less@UZeni_Input_ID@Zeni@@@std@@V?$allocator@U?$pair@$$CBUZeni_Input_ID@Zeni@@H@std@@@4@$0A@@std@@@std@@QAEAAV012@XZ 00530df0 f i Zenilib:zenilib.obj
 0002:000afe50       ??Econst_iterator@?$_Tree@V?$_Tmap_traits@UZeni_Input_ID@Zeni@@HU?$less@UZeni_Input_ID@Zeni@@@std@@V?$allocator@U?$pair@$$CBUZeni_Input_ID@Zeni@@H@std@@@4@$0A@@std@@@std@@QAE?AV012@H@Z 00530e50 f i Zenilib:zenilib.obj
 0002:000aff70       ?_Dec@const_iterator@?$_Tree@V?$_Tmap_traits@UZeni_Input_ID@Zeni@@HU?$less@UZeni_Input_ID@Zeni@@@std@@V?$allocator@U?$pair@$$CBUZeni_Input_ID@Zeni@@H@std@@@4@$0A@@std@@@std@@QAEXXZ 00530f70 f i Zenilib:zenilib.obj
 0002:000b02d0       ?_Inc@const_iterator@?$_Tree@V?$_Tmap_traits@UZeni_Input_ID@Zeni@@HU?$less@UZeni_Input_ID@Zeni@@@std@@V?$allocator@U?$pair@$$CBUZeni_Input_ID@Zeni@@H@std@@@4@$0A@@std@@@std@@QAEXXZ 005312d0 f i Zenilib:zenilib.obj
 0002:000b04a0       ??Econst_iterator@?$_Tree@V?$_Tmap_traits@HUZeni_Input_ID@Zeni@@U?$less@H@std@@V?$allocator@U?$pair@$$CBHUZeni_Input_ID@Zeni@@@std@@@4@$0A@@std@@@std@@QAE?AV012@H@Z 005314a0 f i Zenilib:zenilib.obj
 0002:000b05c0       ?_Dec@const_iterator@?$_Tree@V?$_Tmap_traits@HUZeni_Input_ID@Zeni@@U?$less@H@std@@V?$allocator@U?$pair@$$CBHUZeni_Input_ID@Zeni@@@std@@@4@$0A@@std@@@std@@QAEXXZ 005315c0 f i Zenilib:zenilib.obj
 0002:000b0920       ?_Inc@const_iterator@?$_Tree@V?$_Tmap_traits@HUZeni_Input_ID@Zeni@@U?$less@H@std@@V?$allocator@U?$pair@$$CBHUZeni_Input_ID@Zeni@@@std@@@4@$0A@@std@@@std@@QAEXXZ 00531920 f i Zenilib:zenilib.obj
 0002:000b0af0       ??Fiterator@?$_Tree@V?$_Tmap_traits@HUZeni_Input_ID@Zeni@@U?$less@H@std@@V?$allocator@U?$pair@$$CBHUZeni_Input_ID@Zeni@@@std@@@4@$0A@@std@@@std@@QAEAAV012@XZ 00531af0 f i Zenilib:zenilib.obj
 0002:000b0b50       ??F?$_Iterator@$00@?$list@U?$pair@$$CBKPAVTexture@Zeni@@@std@@V?$allocator@U?$pair@$$CBKPAVTexture@Zeni@@@std@@@2@@std@@QAEAAV012@XZ 00531b50 f i Zenilib:zenilib.obj
 0002:000b0bb0       ??Y?$_Vector_iterator@PAV?$Triangle@VVertex3f_Color@Zeni@@@Zeni@@V?$allocator@PAV?$Triangle@VVertex3f_Color@Zeni@@@Zeni@@@std@@@std@@QAEAAV01@H@Z 00531bb0 f i Zenilib:zenilib.obj
 0002:000b0c10       ?_Compat@?$_Vector_const_iterator@PAV?$Triangle@VVertex3f_Color@Zeni@@@Zeni@@V?$allocator@PAV?$Triangle@VVertex3f_Color@Zeni@@@Zeni@@@std@@@std@@QBEXABV12@@Z 00531c10 f i Zenilib:zenilib.obj
 0002:000b0d10       ??Y?$_Vector_iterator@PAV?$Triangle@VVertex3f_Texture@Zeni@@@Zeni@@V?$allocator@PAV?$Triangle@VVertex3f_Texture@Zeni@@@Zeni@@@std@@@std@@QAEAAV01@H@Z 00531d10 f i Zenilib:zenilib.obj
 0002:000b0d70       ?_Compat@?$_Vector_const_iterator@PAV?$Triangle@VVertex3f_Texture@Zeni@@@Zeni@@V?$allocator@PAV?$Triangle@VVertex3f_Texture@Zeni@@@Zeni@@@std@@@std@@QBEXABV12@@Z 00531d70 f i Zenilib:zenilib.obj
 0002:000b0e70       ?max_size@?$list@UWord@Text_Box@Zeni@@V?$allocator@UWord@Text_Box@Zeni@@@std@@@std@@QBEIXZ 00531e70 f i Zenilib:zenilib.obj
 0002:000b0ed0       ?_Orphan_ptr@?$list@UWord@Text_Box@Zeni@@V?$allocator@UWord@Text_Box@Zeni@@@std@@@std@@IBEXAAV12@PAU_Node@?$_List_nod@UWord@Text_Box@Zeni@@V?$allocator@UWord@Text_Box@Zeni@@@std@@@2@@Z 00531ed0 f i Zenilib:zenilib.obj
 0002:000b0ff0       ??0?$_List_nod@UWord@Text_Box@Zeni@@V?$allocator@UWord@Text_Box@Zeni@@@std@@@std@@IAE@V?$allocator@UWord@Text_Box@Zeni@@@1@@Z 00531ff0 f i Zenilib:zenilib.obj
 0002:000b1070       ?construct@?$allocator@UWord@Text_Box@Zeni@@@std@@QAEXPAUWord@Text_Box@Zeni@@ABU345@@Z 00532070 f i Zenilib:zenilib.obj
 0002:000b10d0       ?destroy@?$allocator@U_Node@?$_List_nod@UWord@Text_Box@Zeni@@V?$allocator@UWord@Text_Box@Zeni@@@std@@@std@@@std@@QAEXPAU_Node@?$_List_nod@UWord@Text_Box@Zeni@@V?$allocator@UWord@Text_Box@Zeni@@@std@@@2@@Z 005320d0 f i Zenilib:zenilib.obj
 0002:000b1130       ??Y?$_Vector_iterator@ULine@Text_Box@Zeni@@V?$allocator@ULine@Text_Box@Zeni@@@std@@@std@@QAEAAV01@H@Z 00532130 f i Zenilib:zenilib.obj
 0002:000b1190       ??Y?$_Vector_iterator@PAU_SDL_Joystick@@V?$allocator@PAU_SDL_Joystick@@@std@@@std@@QAEAAV01@H@Z 00532190 f i Zenilib:zenilib.obj
 0002:000b11f0       ??0?$_Vector_const_iterator@PAU_SDL_Joystick@@V?$allocator@PAU_SDL_Joystick@@@std@@@std@@QAE@PAPAU_SDL_Joystick@@PBV_Container_base_secure@1@@Z 005321f0 f i Zenilib:zenilib.obj
 0002:000b1330       ??8?$_Vector_const_iterator@PAU_SDL_Joystick@@V?$allocator@PAU_SDL_Joystick@@@std@@@std@@QBE_NABV01@@Z 00532330 f i Zenilib:zenilib.obj
 0002:000b13a0       ?_Compat@?$_Vector_const_iterator@PAU_SDL_Joystick@@V?$allocator@PAU_SDL_Joystick@@@std@@@std@@QBEXABV12@@Z 005323a0 f i Zenilib:zenilib.obj
 0002:000b14a0       ??0?$pair@V?$_Iterator@$00@?$list@U?$pair@$$CBV?$basic_string@DU?$char_traits@D@std@@V?$allocator@D@2@@std@@K@std@@V?$allocator@U?$pair@$$CBV?$basic_string@DU?$char_traits@D@std@@V?$allocator@D@2@@std@@K@std@@@2@@std@@_N@std@@QAE@ABV?$_Iterator@$00@?$list@U?$pair@$$CBV?$basic_string@DU?$char_traits@D@std@@V?$allocator@D@2@@std@@K@std@@V?$allocator@U?$pair@$$CBV?$basic_string@DU?$char_traits@D@std@@V?$allocator@D@2@@std@@K@std@@@2@@1@AB_N@Z 005324a0 f i Zenilib:zenilib.obj
 0002:000b1510       ??0?$_Iterator@$00@?$list@U?$pair@$$CBKVColor@Zeni@@@std@@V?$allocator@U?$pair@$$CBKVColor@Zeni@@@std@@@2@@std@@QAE@PAU_Node@?$_List_nod@U?$pair@$$CBKVColor@Zeni@@@std@@V?$allocator@U?$pair@$$CBKVColor@Zeni@@@std@@@2@@2@PBV12@@Z 00532510 f i Zenilib:zenilib.obj
 0002:000b1570       ??F?$_Iterator@$00@?$list@U?$pair@$$CBKVColor@Zeni@@@std@@V?$allocator@U?$pair@$$CBKVColor@Zeni@@@std@@@2@@std@@QAEAAV012@XZ 00532570 f i Zenilib:zenilib.obj
 0002:000b15d0       ??0?$pair@V?$_Iterator@$00@?$list@U?$pair@$$CBKVColor@Zeni@@@std@@V?$allocator@U?$pair@$$CBKVColor@Zeni@@@std@@@2@@std@@_N@std@@QAE@ABV?$_Iterator@$00@?$list@U?$pair@$$CBKVColor@Zeni@@@std@@V?$allocator@U?$pair@$$CBKVColor@Zeni@@@std@@@2@@1@AB_N@Z 005325d0 f i Zenilib:zenilib.obj
 0002:000b1640       ??0?$pair@V?$_Iterator@$00@?$list@U?$pair@$$CBKPAVFont@Zeni@@@std@@V?$allocator@U?$pair@$$CBKPAVFont@Zeni@@@std@@@2@@std@@_N@std@@QAE@ABV?$_Iterator@$00@?$list@U?$pair@$$CBKPAVFont@Zeni@@@std@@V?$allocator@U?$pair@$$CBKPAVFont@Zeni@@@std@@@2@@1@AB_N@Z 00532640 f i Zenilib:zenilib.obj
 0002:000b16b0       ?_Compat@?$_Vector_const_iterator@U?$pair@V?$basic_string@DU?$char_traits@D@std@@V?$allocator@D@2@@std@@K@std@@V?$allocator@U?$pair@V?$basic_string@DU?$char_traits@D@std@@V?$allocator@D@2@@std@@K@std@@@2@@std@@QBEXABV12@@Z 005326b0 f i Zenilib:zenilib.obj
 0002:000b17b0       ??Y?$_Vector_iterator@U?$pair@V?$basic_string@DU?$char_traits@D@std@@V?$allocator@D@2@@std@@K@std@@V?$allocator@U?$pair@V?$basic_string@DU?$char_traits@D@std@@V?$allocator@D@2@@std@@K@std@@@2@@std@@QAEAAV01@H@Z 005327b0 f i Zenilib:zenilib.obj
 0002:000b1810       ??0?$pair@V?$_Iterator@$00@?$list@U?$pair@$$CBKPAVTexture@Zeni@@@std@@V?$allocator@U?$pair@$$CBKPAVTexture@Zeni@@@std@@@2@@std@@_N@std@@QAE@ABV?$_Iterator@$00@?$list@U?$pair@$$CBKPAVTexture@Zeni@@@std@@V?$allocator@U?$pair@$$CBKPAVTexture@Zeni@@@std@@@2@@1@AB_N@Z 00532810 f i Zenilib:zenilib.obj
 0002:000b1880       ??0?$_Iterator@$00@?$list@U?$pair@$$CBKVSound_Buffer@Zeni@@@std@@V?$allocator@U?$pair@$$CBKVSound_Buffer@Zeni@@@std@@@2@@std@@QAE@PAU_Node@?$_List_nod@U?$pair@$$CBKVSound_Buffer@Zeni@@@std@@V?$allocator@U?$pair@$$CBKVSound_Buffer@Zeni@@@std@@@2@@2@PBV12@@Z 00532880 f i Zenilib:zenilib.obj
 0002:000b18e0       ??F?$_Iterator@$00@?$list@U?$pair@$$CBKVSound_Buffer@Zeni@@@std@@V?$allocator@U?$pair@$$CBKVSound_Buffer@Zeni@@@std@@@2@@std@@QAEAAV012@XZ 005328e0 f i Zenilib:zenilib.obj
 0002:000b1940       ??0?$pair@V?$_Iterator@$00@?$list@U?$pair@$$CBKVSound_Buffer@Zeni@@@std@@V?$allocator@U?$pair@$$CBKVSound_Buffer@Zeni@@@std@@@2@@std@@_N@std@@QAE@ABV?$_Iterator@$00@?$list@U?$pair@$$CBKVSound_Buffer@Zeni@@@std@@V?$allocator@U?$pair@$$CBKVSound_Buffer@Zeni@@@std@@@2@@1@AB_N@Z 00532940 f i Zenilib:zenilib.obj
 0002:000b19b0       ??Y?$_Vector_iterator@HV?$allocator@H@std@@@std@@QAEAAV01@H@Z 005329b0 f i Zenilib:zenilib.obj
 0002:000b1a10       ??0?$_Vector_const_iterator@HV?$allocator@H@std@@@std@@QAE@PAHPBV_Container_base_secure@1@@Z 00532a10 f i Zenilib:zenilib.obj
 0002:000b1b50       ??9?$_Vector_const_iterator@HV?$allocator@H@std@@@std@@QBE_NABV01@@Z 00532b50 f i Zenilib:zenilib.obj
 0002:000b1bc0       ??M?$_Vector_const_iterator@HV?$allocator@H@std@@@std@@QBE_NABV01@@Z 00532bc0 f i Zenilib:zenilib.obj
 0002:000b1c30       ?_Compat@?$_Vector_const_iterator@HV?$allocator@H@std@@@std@@QBEXABV12@@Z 00532c30 f i Zenilib:zenilib.obj
 0002:000b1d30       ??0?$pair@Viterator@?$_Tree@V?$_Tmap_traits@UZeni_Input_ID@Zeni@@HU?$less@UZeni_Input_ID@Zeni@@@std@@V?$allocator@U?$pair@$$CBUZeni_Input_ID@Zeni@@H@std@@@4@$0A@@std@@@std@@_N@std@@QAE@ABViterator@?$_Tree@V?$_Tmap_traits@UZeni_Input_ID@Zeni@@HU?$less@UZeni_Input_ID@Zeni@@@std@@V?$allocator@U?$pair@$$CBUZeni_Input_ID@Zeni@@H@std@@@4@$0A@@std@@@1@AB_N@Z 00532d30 f i Zenilib:zenilib.obj
 0002:000b1da0       ??0?$pair@Viterator@?$_Tree@V?$_Tmap_traits@HUZeni_Input_ID@Zeni@@U?$less@H@std@@V?$allocator@U?$pair@$$CBHUZeni_Input_ID@Zeni@@@std@@@4@$0A@@std@@@std@@_N@std@@QAE@ABViterator@?$_Tree@V?$_Tmap_traits@HUZeni_Input_ID@Zeni@@U?$less@H@std@@V?$allocator@U?$pair@$$CBHUZeni_Input_ID@Zeni@@@std@@@4@$0A@@std@@@1@AB_N@Z 00532da0 f i Zenilib:zenilib.obj
 0002:000b1e10       ??0?$_Vector_iterator@PAUVertex_Buffer_Range@Vertex_Buffer@Zeni@@V?$allocator@PAUVertex_Buffer_Range@Vertex_Buffer@Zeni@@@std@@@std@@QAE@PAPAUVertex_Buffer_Range@Vertex_Buffer@Zeni@@PBV_Container_base_secure@1@@Z 00532e10 f i Zenilib:zenilib.obj
 0002:000b1e70       ??H?$_Vector_iterator@PAUVertex_Buffer_Range@Vertex_Buffer@Zeni@@V?$allocator@PAUVertex_Buffer_Range@Vertex_Buffer@Zeni@@@std@@@std@@QBE?AV01@H@Z 00532e70 f i Zenilib:zenilib.obj
 0002:000b1f90       ??G?$_Vector_const_iterator@PAUVertex_Buffer_Range@Vertex_Buffer@Zeni@@V?$allocator@PAUVertex_Buffer_Range@Vertex_Buffer@Zeni@@@std@@@std@@QBEHABV01@@Z 00532f90 f i Zenilib:zenilib.obj
 0002:000b2000       ??0?$_Vector_const_iterator@V?$_Iterator@$00@?$list@U?$pair@$$CBV?$basic_string@DU?$char_traits@D@std@@V?$allocator@D@2@@std@@K@std@@V?$allocator@U?$pair@$$CBV?$basic_string@DU?$char_traits@D@std@@V?$allocator@D@2@@std@@K@std@@@2@@std@@V?$allocator@V?$_Iterator@$00@?$list@U?$pair@$$CBV?$basic_string@DU?$char_traits@D@std@@V?$allocator@D@2@@std@@K@std@@V?$allocator@U?$pair@$$CBV?$basic_string@DU?$char_traits@D@std@@V?$allocator@D@2@@std@@K@std@@@2@@std@@@3@@std@@QAE@ABV01@@Z 00533000 f i Zenilib:zenilib.obj
 0002:000b2070       ??1?$_Vector_iterator@V?$_Iterator@$00@?$list@U?$pair@$$CBKVColor@Zeni@@@std@@V?$allocator@U?$pair@$$CBKVColor@Zeni@@@std@@@2@@std@@V?$allocator@V?$_Iterator@$00@?$list@U?$pair@$$CBKVColor@Zeni@@@std@@V?$allocator@U?$pair@$$CBKVColor@Zeni@@@std@@@2@@std@@@3@@std@@QAE@XZ 00533070 f i Zenilib:zenilib.obj
 0002:000b20c0       ??0?$_Vector_const_iterator@V?$_Iterator@$00@?$list@U?$pair@$$CBKVColor@Zeni@@@std@@V?$allocator@U?$pair@$$CBKVColor@Zeni@@@std@@@2@@std@@V?$allocator@V?$_Iterator@$00@?$list@U?$pair@$$CBKVColor@Zeni@@@std@@V?$allocator@U?$pair@$$CBKVColor@Zeni@@@std@@@2@@std@@@3@@std@@QAE@ABV01@@Z 005330c0 f i Zenilib:zenilib.obj
 0002:000b2130       ??1?$_Vector_const_iterator@V?$_Iterator@$00@?$list@U?$pair@$$CBKVColor@Zeni@@@std@@V?$allocator@U?$pair@$$CBKVColor@Zeni@@@std@@@2@@std@@V?$allocator@V?$_Iterator@$00@?$list@U?$pair@$$CBKVColor@Zeni@@@std@@V?$allocator@U?$pair@$$CBKVColor@Zeni@@@std@@@2@@std@@@3@@std@@QAE@XZ 00533130 f i Zenilib:zenilib.obj
 0002:000b2180       ??1?$_Vector_iterator@V?$_Iterator@$00@?$list@U?$pair@$$CBKPAVFont@Zeni@@@std@@V?$allocator@U?$pair@$$CBKPAVFont@Zeni@@@std@@@2@@std@@V?$allocator@V?$_Iterator@$00@?$list@U?$pair@$$CBKPAVFont@Zeni@@@std@@V?$allocator@U?$pair@$$CBKPAVFont@Zeni@@@std@@@2@@std@@@3@@std@@QAE@XZ 00533180 f i Zenilib:zenilib.obj
 0002:000b21d0       ??0?$_Vector_const_iterator@V?$_Iterator@$00@?$list@U?$pair@$$CBKPAVFont@Zeni@@@std@@V?$allocator@U?$pair@$$CBKPAVFont@Zeni@@@std@@@2@@std@@V?$allocator@V?$_Iterator@$00@?$list@U?$pair@$$CBKPAVFont@Zeni@@@std@@V?$allocator@U?$pair@$$CBKPAVFont@Zeni@@@std@@@2@@std@@@3@@std@@QAE@ABV01@@Z 005331d0 f i Zenilib:zenilib.obj
 0002:000b2240       ??1?$_Vector_const_iterator@V?$_Iterator@$00@?$list@U?$pair@$$CBKPAVFont@Zeni@@@std@@V?$allocator@U?$pair@$$CBKPAVFont@Zeni@@@std@@@2@@std@@V?$allocator@V?$_Iterator@$00@?$list@U?$pair@$$CBKPAVFont@Zeni@@@std@@V?$allocator@U?$pair@$$CBKPAVFont@Zeni@@@std@@@2@@std@@@3@@std@@QAE@XZ 00533240 f i Zenilib:zenilib.obj
 0002:000b2290       ??0?$_Vector_const_iterator@V?$_Iterator@$00@?$list@U?$pair@$$CBKPAVTexture@Zeni@@@std@@V?$allocator@U?$pair@$$CBKPAVTexture@Zeni@@@std@@@2@@std@@V?$allocator@V?$_Iterator@$00@?$list@U?$pair@$$CBKPAVTexture@Zeni@@@std@@V?$allocator@U?$pair@$$CBKPAVTexture@Zeni@@@std@@@2@@std@@@3@@std@@QAE@ABV01@@Z 00533290 f i Zenilib:zenilib.obj
 0002:000b2300       ??1?$_Vector_iterator@V?$_Iterator@$00@?$list@U?$pair@$$CBKVSound_Buffer@Zeni@@@std@@V?$allocator@U?$pair@$$CBKVSound_Buffer@Zeni@@@std@@@2@@std@@V?$allocator@V?$_Iterator@$00@?$list@U?$pair@$$CBKVSound_Buffer@Zeni@@@std@@V?$allocator@U?$pair@$$CBKVSound_Buffer@Zeni@@@std@@@2@@std@@@3@@std@@QAE@XZ 00533300 f i Zenilib:zenilib.obj
 0002:000b2350       ??0?$_Vector_const_iterator@V?$_Iterator@$00@?$list@U?$pair@$$CBKVSound_Buffer@Zeni@@@std@@V?$allocator@U?$pair@$$CBKVSound_Buffer@Zeni@@@std@@@2@@std@@V?$allocator@V?$_Iterator@$00@?$list@U?$pair@$$CBKVSound_Buffer@Zeni@@@std@@V?$allocator@U?$pair@$$CBKVSound_Buffer@Zeni@@@std@@@2@@std@@@3@@std@@QAE@ABV01@@Z 00533350 f i Zenilib:zenilib.obj
 0002:000b23c0       ??1?$_Vector_const_iterator@V?$_Iterator@$00@?$list@U?$pair@$$CBKVSound_Buffer@Zeni@@@std@@V?$allocator@U?$pair@$$CBKVSound_Buffer@Zeni@@@std@@@2@@std@@V?$allocator@V?$_Iterator@$00@?$list@U?$pair@$$CBKVSound_Buffer@Zeni@@@std@@V?$allocator@U?$pair@$$CBKVSound_Buffer@Zeni@@@std@@@2@@std@@@3@@std@@QAE@XZ 005333c0 f i Zenilib:zenilib.obj
 0002:000b2410       ??0?$_Ranit@PAU_SDL_Joystick@@HPBQAU1@ABQAU1@@std@@QAE@XZ 00533410 f i Zenilib:zenilib.obj
 0002:000b2470       ??0?$_Ranit@HHPBHABH@std@@QAE@XZ 00533470 f i Zenilib:zenilib.obj
 0002:000b24d0       ??0?$_Vector_iterator@PAUVertex_Buffer_Range@Vertex_Buffer@Zeni@@V?$allocator@PAUVertex_Buffer_Range@Vertex_Buffer@Zeni@@@std@@@std@@QAE@ABV01@@Z 005334d0 f i Zenilib:zenilib.obj
 0002:000b2530       ??0?$_Ranit@V?$_Iterator@$00@?$list@U?$pair@$$CBV?$basic_string@DU?$char_traits@D@std@@V?$allocator@D@2@@std@@K@std@@V?$allocator@U?$pair@$$CBV?$basic_string@DU?$char_traits@D@std@@V?$allocator@D@2@@std@@K@std@@@2@@std@@HPBV123@ABV123@@std@@QAE@ABU01@@Z 00533530 f i Zenilib:zenilib.obj
 0002:000b2590       ??0?$_Ranit@V?$_Iterator@$00@?$list@U?$pair@$$CBKVColor@Zeni@@@std@@V?$allocator@U?$pair@$$CBKVColor@Zeni@@@std@@@2@@std@@HPBV123@ABV123@@std@@QAE@ABU01@@Z 00533590 f i Zenilib:zenilib.obj
 0002:000b25f0       ??1?$_Ranit@V?$_Iterator@$00@?$list@U?$pair@$$CBKVColor@Zeni@@@std@@V?$allocator@U?$pair@$$CBKVColor@Zeni@@@std@@@2@@std@@HPBV123@ABV123@@std@@QAE@XZ 005335f0 f i Zenilib:zenilib.obj
 0002:000b2640       ??0?$_Ranit@V?$_Iterator@$00@?$list@U?$pair@$$CBKPAVFont@Zeni@@@std@@V?$allocator@U?$pair@$$CBKPAVFont@Zeni@@@std@@@2@@std@@HPBV123@ABV123@@std@@QAE@ABU01@@Z 00533640 f i Zenilib:zenilib.obj
 0002:000b26a0       ??1?$_Ranit@V?$_Iterator@$00@?$list@U?$pair@$$CBKPAVFont@Zeni@@@std@@V?$allocator@U?$pair@$$CBKPAVFont@Zeni@@@std@@@2@@std@@HPBV123@ABV123@@std@@QAE@XZ 005336a0 f i Zenilib:zenilib.obj
 0002:000b26f0       ??0?$_Ranit@V?$_Iterator@$00@?$list@U?$pair@$$CBKPAVTexture@Zeni@@@std@@V?$allocator@U?$pair@$$CBKPAVTexture@Zeni@@@std@@@2@@std@@HPBV123@ABV123@@std@@QAE@ABU01@@Z 005336f0 f i Zenilib:zenilib.obj
 0002:000b2750       ??0?$_Ranit@V?$_Iterator@$00@?$list@U?$pair@$$CBKVSound_Buffer@Zeni@@@std@@V?$allocator@U?$pair@$$CBKVSound_Buffer@Zeni@@@std@@@2@@std@@HPBV123@ABV123@@std@@QAE@ABU01@@Z 00533750 f i Zenilib:zenilib.obj
 0002:000b27b0       ??1?$_Ranit@V?$_Iterator@$00@?$list@U?$pair@$$CBKVSound_Buffer@Zeni@@@std@@V?$allocator@U?$pair@$$CBKVSound_Buffer@Zeni@@@std@@@2@@std@@HPBV123@ABV123@@std@@QAE@XZ 005337b0 f i Zenilib:zenilib.obj
 0002:000b2800       ??0?$_Iterator_with_base@Urandom_access_iterator_tag@std@@PAU_SDL_Joystick@@HPBQAU3@ABQAU3@V_Iterator_base@2@@std@@QAE@XZ 00533800 f i Zenilib:zenilib.obj
 0002:000b2860       ??0?$_Iterator_with_base@Urandom_access_iterator_tag@std@@HHPBHABHV_Iterator_base@2@@std@@QAE@XZ 00533860 f i Zenilib:zenilib.obj
